(dp0
(S'Schaake'
p1
S'Carson'
p2
tp3
I1900
s(S'Oda'
p4
S'Koumei'
p5
tp6
I1459
s(S'Philo, Jr.'
p7
S'Ron'
p8
tp9
I206
s(S'Armstrong'
p10
S'Ty'
p11
tp12
I599
s(S'Arnaud'
p13
S'Michael'
p14
tp15
I1482
s(S'Turcott'
p16
S'Jon'
p17
tp18
I504
s(S'Stefani'
p19
S'Shawn'
p20
tp21
I1580
s(S'Hendry'
p22
S'Mike'
p23
tp24
I1645
s(S'Collins'
p25
S'Chad'
p26
tp27
I1203
s(S'Hatton'
p28
S'Tyrrell'
p29
tp30
I1830
s(S'Nicklaus'
p31
S'Gary'
p32
tp33
I233
s(S'Williams'
p34
S'Chris'
p35
tp36
I1672
s(S'Landreville'
p37
S'Eric'
p38
tp39
I1254
s(S'Smith'
p40
S'Jerry'
p41
tp42
I130
s(S'Simpson'
p43
S'Scott'
p44
tp45
I126
s(S'Bullington'
p46
S'Brian'
p47
tp48
I1970
s(S'Im'
p49
S'Daniel'
p50
tp51
I1238
s(S'Stinson'
p52
S'Kevin'
p53
tp54
I1741
s(S'Light'
p55
S'Tyler'
p56
tp57
I2082
s(S'May'
p58
S'Bob'
p59
tp60
I177
s(S'Pate'
p61
S'Steve'
p62
tp63
I105
s(S'Williams'
p64
S'Gene'
p65
tp66
I1422
s(S'Liang'
p67
S'Wen-Chong'
p68
tp69
I993
s(S'Hossler'
p70
S'Beau'
p71
tp72
I1594
s(S'McClintock'
p73
S'Ryan'
p74
tp75
I1989
s(S'Farren'
p76
S'Sean'
p77
tp78
I507
s(S'Adams'
p79
S'Adam'
p80
tp81
I926
s(S'Wadkins'
p82
S'Travis'
p83
tp84
I1590
s(S'Dinwiddie'
p85
S'Robert'
p86
tp87
I1145
s(S'Hagestad'
p88
S'Stewart'
p89
tp90
I2087
s(S"O'Meara"
p91
S'Mark'
p92
tp93
I100
s(S'King'
p94
S'Corbin'
p95
tp96
I1155
s(S'Jones'
p97
S'Steve'
p98
tp99
I74
s(S'Ajubita'
p100
S'Neal'
p101
tp102
I1772
s(S'Jones'
p103
S'Brendan'
p104
tp105
I848
s(S'Axley'
p106
S'Eric'
p107
tp108
I838
s(S'Karlberg'
p109
S'Rikard'
p110
tp111
I1910
s(S'Bradley'
p112
S'Michael'
p113
tp114
I14
s(S'McClellan'
p115
S'Robert'
p116
tp117
I1460
s(S'Itzen'
p118
S'Justin'
p119
tp120
I1567
s(S'Venezio'
p121
S'Daniel'
p122
tp123
I1903
s(S'Kodaira'
p124
S'Satoshi'
p125
tp126
I1658
s(S'Gilliam'
p127
S'Nick'
p128
tp129
I700
s(S'Muto'
p130
S'Toshinori'
p131
tp132
I1555
s(S'Ouellette'
p133
S'Ryan'
p134
tp135
I455
s(S'Wilson'
p136
S'Mike'
p137
tp138
I1182
s(S'Johnston'
p139
S'Mike'
p140
tp141
I1253
s(S'Spence'
p142
S'Nigel'
p143
tp144
I1801
s(S'Bradford'
p145
S'George'
p146
tp147
I696
s(S'Benedetti'
p148
S'Camilo'
p149
tp150
I515
s(S'Watts'
p151
S'Brian'
p152
tp153
I154
s(S'Rollins'
p154
S'John'
p155
tp156
I404
s(S'Yurkiewicz'
p157
S'Jeff'
p158
tp159
I513
s(S'Widener'
p160
S'Jason'
p161
tp162
I2073
s(S'Rask'
p163
S'Clayton'
p164
tp165
I1916
s(S'MacPherson'
p166
S'Bryden'
p167
tp168
I1583
s(S'Gay'
p169
S'Brian'
p170
tp171
I302
s(S'Watson'
p172
S'Denis'
p173
tp174
I153
s(S'Dvorak'
p175
S'Doug'
p176
tp177
I1241
s(S'Kealey'
p178
S'Craig'
p179
tp180
I795
s(S'Holmes'
p181
S'David'
p182
tp183
I1800
s(S'Browne'
p184
S'Olin'
p185
tp186
I17
s(S'McClain'
p187
S'Wesley'
p188
tp189
I2022
s(S'Gutgsell'
p190
S'Austin'
p191
tp192
I1614
s(S'Olsen'
p193
S'Dan'
p194
tp195
I600
s(S'Swafford'
p196
S'Hudson'
p197
tp198
I1737
s(S'Mackenzie'
p199
S'Brock'
p200
tp201
I744
s(S'Elliott'
p202
S'John'
p203
tp204
I789
s(S'Levesque'
p205
S'Dave'
p206
tp207
I1711
s(S'Osborne'
p208
S'William'
p209
tp210
I1610
s(S'Cabrera Bello'
p211
S'Rafa'
p212
tp213
I1552
s(S'Allem'
p214
S'Fulton'
p215
tp216
I1
s(S'Brooks'
p217
S'Mark'
p218
tp219
I16
s(S'Palmer'
p220
S'Ryan'
p221
tp222
I666
s(S'Takayama'
p223
S'Tadahiro'
p224
tp225
I1012
s(S'Fdez-Casta\xf1o'
p226
S'Gonzalo'
p227
tp228
I997
s(S'Dubuisson'
p229
S'Victor'
p230
tp231
I1721
s(S'Gruss'
p232
S'Andrew'
p233
tp234
I1245
s(S'Watney'
p235
S'Nick'
p236
tp237
I532
s(S'Hadley'
p238
S'Chesson'
p239
tp240
I1589
s(S'Cavanagh'
p241
S'Santiago'
p242
tp243
I1233
s(S'Jaeckel'
p244
S'Barry'
p245
tp246
I72
s(S'Sanchez'
p247
S'David'
p248
tp249
I1566
s(S'Yates'
p250
S'Greg'
p251
tp252
I1956
s(S'Smith'
p253
S'Nathan'
p254
tp255
I1715
s(S'Schulz'
p256
S'Ted'
p257
tp258
I1178
s(S'Ramey'
p259
S'Chad'
p260
tp261
I1895
s(S'Carrigan'
p262
S'Kevin'
p263
tp264
I1694
s(S'Polzin'
p265
S'Ryan'
p266
tp267
I1856
s(S'Cook'
p268
S'John'
p269
tp270
I31
s(S'Dennis'
p271
S'Clark'
p272
tp273
I767
s(S'McLardy'
p274
S'Andrew'
p275
tp276
I655
s(S'Senden'
p277
S'John'
p278
tp279
I349
s(S'Conway'
p280
S'Steve'
p281
tp282
I1149
s(S'Albertson'
p283
S'Anders'
p284
tp285
I2047
s(S'Sadlowski'
p286
S'Jamie'
p287
tp288
I2023
s(S'Kuehne'
p289
S'Hank'
p290
tp291
I426
s(S'Kruger'
p292
S"Jbe'"
p293
tp294
I1570
s(S'Vazquez'
p295
S'Sebastian'
p296
tp297
I1930
s(S'Willis'
p298
S'Garrett'
p299
tp300
I329
s(S'Dietsche'
p301
S'Paul'
p302
tp303
I256
s(S'Heintz'
p304
S'Bob'
p305
tp306
I607
s(S'Bowden'
p307
S'Craig'
p308
tp309
I210
s(S'Pigman'
p310
S'Kenny'
p311
tp312
I2000
s(S'Wood'
p313
S'JJ'
p314
tp315
I2100
s(S'Narro'
p316
S'Jake'
p317
tp318
I415
s(S'Cline'
p319
S'Kelsey'
p320
tp321
I499
s(S'Huston'
p322
g269
tp323
I70
s(S'Kuwabara'
p324
S'Katsunori'
p325
tp326
I360
s(S'Sherfy'
p327
S'Brad'
p328
tp329
I181
s(S'Lavery'
p330
S'Mike'
p331
tp332
I730
s(S'Beckstrom'
p333
S'Colby'
p334
tp335
I904
s(S'Oda'
p336
S'Ryuichi'
p337
tp338
I1364
s(S'Johnson'
p339
S'Neil'
p340
tp341
I2061
s(S'Gangluff'
p342
S'Stephen'
p343
tp344
I852
s(S'Mahlberg'
p345
S'Scott'
p346
tp347
I1176
s(S'Osborn'
p348
S'Garrett'
p349
tp350
I1227
s(S'Cejka'
p351
S'Alex'
p352
tp353
I331
s(S'Dillow'
p354
S'Chris'
p355
tp356
I1172
s(S'Goich'
p357
S'George'
p358
tp359
I985
s(S'Brewbaker'
p360
S'Fielding'
p361
tp362
I1760
s(S'Edwards'
p363
S'David'
p364
tp365
I39
s(S'Duke'
p366
S'Ken'
p367
tp368
I624
s(g61
S'Jerry'
p369
tp370
I104
s(S'Aguilar'
p371
S'Tony'
p372
tp373
I810
s(S'Brand'
p374
S'Christian'
p375
tp376
I1524
s(S'Tanaka'
p377
S'Hidemichi'
p378
tp379
I335
s(S'Lowe'
p380
S'Mitch'
p381
tp382
I946
s(S'Bigley'
p383
S'Bryan'
p384
tp385
I1510
s(S'Faught'
p386
S'David'
p387
tp388
I660
s(S'Jones'
p389
S'Kent'
p390
tp391
I257
s(S'Baldwin'
p392
S'Chase'
p393
tp394
I1446
s(S'Pare'
p395
S'Troy'
p396
tp397
I922
s(S'Havret'
p398
S'Gregory'
p399
tp400
I1101
s(S'Hartwick'
p401
S'Jason'
p402
tp403
I742
s(S'Rank'
p404
S'Garrett'
p405
tp406
I1899
s(S'McLuen'
p407
S'Jay'
p408
tp409
I1641
s(S'Carter'
p410
S'Jim'
p411
tp412
I24
s(S'Imondi'
p413
S'Paul'
p414
tp415
I1584
s(S'Reeves'
p416
S'Zack'
p417
tp418
I1623
s(S'Price'
p419
S'Aron'
p420
tp421
I925
s(S'Mawjii'
p422
S'Abs'
p423
tp424
I1261
s(S'Yrene'
p425
S'Don'
p426
tp427
I658
s(S'Overton'
p428
S'Jeff'
p429
tp430
I917
s(S'Martin'
p431
S'Mike'
p432
tp433
I271
s(S'Shinaut'
p434
S'Tyson'
p435
tp436
I1420
s(S'Peters'
p437
S'Justin'
p438
tp439
I999
s(S'Jacobson'
p440
S'Freddie'
p441
tp442
I372
s(S'Howell'
p443
S'David'
p444
tp445
I343
s(S'Thomas'
p446
S'Craig'
p447
tp448
I608
s(S'Lehman'
p449
S'Tom'
p450
tp451
I78
s(S'Massey'
p452
S'Richard'
p453
tp454
I220
s(S'Bartoletti'
p455
S'Louis'
p456
tp457
I935
s(S'Scheffler'
p458
S'Scottie'
p459
tp460
I1778
s(S'Varner III'
p461
S'Harold'
p462
tp463
I1754
s(S'Vervaecke'
p464
S'Zack'
p465
tp466
I1897
s(S'Baker'
p467
S'Shawn'
p468
tp469
I886
s(S'Moore'
p470
S'Will'
p471
tp472
I430
s(S'Murphy'
p473
S'Sean'
p474
tp475
I171
s(S'Hill'
p476
S'Matt'
p477
tp478
I1340
s(S'Leibovich'
p479
S'Rick'
p480
tp481
I617
s(S'Pooley'
p482
S'Don'
p483
tp484
I579
s(S'Savage'
p485
S'Kevin'
p486
tp487
I630
s(S'Scott'
p488
S'Drew'
p489
tp490
I1234
s(S'Ames'
p491
S'Stephen'
p492
tp493
I160
s(S'Allan'
p494
g62
tp495
I370
s(S'Engler, Jr.'
p496
S'John'
p497
tp498
I1003
s(S'Sheehan'
p499
S'Paul'
p500
tp501
I837
s(S'Rogers'
p502
S'Chris'
p503
tp504
I1226
s(S'Deuel'
p505
S'Mike'
p506
tp507
I547
s(S'Finch'
p508
S'Richard'
p509
tp510
I1198
s(S'Olivo'
p511
S'Nate'
p512
tp513
I1511
s(S'Hickman'
p514
S'Joey'
p515
tp516
I1053
s(S'Smith'
p517
S'Michael*'
p518
tp519
I1818
s(S'Yates'
p520
S'Simon'
p521
tp522
I832
s(S'Mayfair'
p523
S'Billy'
p524
tp525
I91
s(S'Noh'
p526
S'Seung-Yul'
p527
tp528
I1374
s(S'Ping'
p529
S'David'
p530
tp531
I865
s(S'Koepka'
p532
S'Brooks'
p533
tp534
I1749
s(S'Beckman'
p535
S'Cameron'
p536
tp537
I280
s(S'Pope'
p538
S'Andy'
p539
tp540
I1661
s(S'Elder'
p541
S'Brad'
p542
tp543
I413
s(S'Kuchar'
p544
S'Matt'
p545
tp546
I411
s(S'Evanecz'
p547
S'Mitch'
p548
tp549
I1491
s(S'Sutherland'
p550
S'Kevin'
p551
tp552
I194
s(S'Malnati'
p553
S'Peter'
p554
tp555
I1738
s(S'Wadkins'
p556
S'Bobby'
p557
tp558
I1081
s(S'Byrd'
p559
S'Jonathan'
p560
tp561
I462
s(S'Corr'
p562
S'Jeff'
p563
tp564
I1814
s(S'Palmer'
p565
S'Arnold'
p566
tp567
I102
s(S'Russell'
p568
S'Terry'
p569
tp570
I807
s(S'Welch'
p571
S'Mike'
p572
tp573
I1070
s(S'Dodds'
p574
S'Trevor'
p575
tp576
I36
s(S'Vranesh'
p577
S'Brian'
p578
tp579
I1286
s(S'Yang'
p580
S'Gunn'
p581
tp582
I1868
s(S'Mulder'
p583
S'Brock'
p584
tp585
I1168
s(S'Blaum'
p586
S'Ryan'
p587
tp588
I1133
s(S'Chan'
p589
S'Lorens'
p590
tp591
I1326
s(S'Cook'
p592
S'Austin'
p593
tp594
I1784
s(S'Jacquelin'
p595
S'Raphael'
p596
tp597
I358
s(S'Gardner'
p598
S'Tom'
p599
tp600
I1604
s(S'Eichelberger'
p601
S'Dave'
p602
tp603
I565
s(S'Black'
p604
S'Chris'
p605
tp606
I1621
s(S'Ponchock'
p607
S'Del'
p608
tp609
I612
s(S'Atkins'
p610
S'Matt'
p611
tp612
I1949
s(S'Bohn'
p613
S'Douglas'
p614
tp615
I473
s(S'Connelly'
p616
S'Austin'
p617
tp618
I1892
s(S'Muehr'
p619
S'Michael'
p620
tp621
I297
s(S'Finau'
p622
S'Tony'
p623
tp624
I1143
s(S'Flores'
p625
S'Martin'
p626
tp627
I1030
s(S'Begay III'
p628
S'Notah'
p629
tp630
I308
s(S'Griff'
p631
S'Darren'
p632
tp633
I963
s(S'Grace'
p634
S'Branden'
p635
tp636
I1569
s(S'West'
p637
S'Heath'
p638
tp639
I903
s(S'Rokisky'
p640
S'Jody'
p641
tp642
I1056
s(S'van der Walt'
p643
S'Dawie'
p644
tp645
I1718
s(S'Parker'
p646
S'Chase'
p647
tp648
I1982
s(S'Lewis'
p649
S'J.L.'
p650
tp651
I80
s(S'Parry'
p652
S'Craig'
p653
tp654
I103
s(S'Bateman'
p655
S'Ahmad'
p656
tp657
I803
s(S'Freeman'
p658
S'Robin'
p659
tp660
I50
s(S'Ormsby'
p661
S'Wade'
p662
tp663
I2074
s(S'LaBelle II'
p664
S'Doug'
p665
tp666
I1100
s(S'Kesterson'
p667
S'Tanner'
p668
tp669
I1434
s(S'Singh'
p670
S'Jeev Milkha'
p671
tp672
I957
s(S'Danielson'
p673
S'Charlie'
p674
tp675
I1971
s(S'Corpening'
p676
S'Franklin'
p677
tp678
I1657
s(S'Bradshaw'
p679
S'David'
p680
tp681
I1454
s(S'Collins'
p682
S'Will'
p683
tp684
I1746
s(S'Schiene'
p685
S'Marty'
p686
tp687
I180
s(S'Armour'
p688
S'Ryan'
p689
tp690
I1093
s(S'Schutte'
p691
S'Warren'
p692
tp693
I1352
s(S'Duty'
p694
S'Patrick'
p695
tp696
I518
s(S'Lee'
p697
S'Sung Min'
p698
tp699
I2071
s(S'Meola'
p700
S'Charles'
p701
tp702
I551
s(S'Ricketts'
p703
S'Brian'
p704
tp705
I1611
s(S'Rominger'
p706
S'Martin'
p707
tp708
I996
s(S'Tiziani'
p709
S'Mario'
p710
tp711
I274
s(S'Canizares'
p712
S'Alejandro'
p713
tp714
I1123
s(S'Brehaut'
p715
S'Jeff'
p716
tp717
I228
s(S'Podas'
p718
S'David'
p719
tp720
I896
s(S'Bae'
p721
S'Sangmoon'
p722
tp723
I1302
s(S'van der Walt'
p724
S'Tjaart'
p725
tp726
I638
s(S'McCarron'
p727
S'Scott'
p728
tp729
I254
s(S'Molina'
p730
S'Mauricio'
p731
tp732
I1277
s(S'McGirt'
p733
S'William'
p734
tp735
I1170
s(S'McCarthy'
p736
S'Dan'
p737
tp738
I1912
s(S'Pacetti'
p739
S'Sean'
p740
tp741
I587
s(S'Yeckes'
p742
S'Jeffrey'
p743
tp744
I900
s(S'Baca'
p745
S'Ryan'
p746
tp747
I1375
s(S'Swan'
p748
S'Matthew'
p749
tp750
I1522
s(S'Power'
p751
S'Seamus'
p752
tp753
I1991
s(S'Leishman'
p754
S'Marc'
p755
tp756
I1290
s(S'Malm'
p757
S'Curtis'
p758
tp759
I1015
s(S'Scheer'
p760
S'Alan'
p761
tp762
I1771
s(S'Elliott'
p763
S'Jamie'
p764
tp765
I688
s(S'Olesen'
p766
S'Thorbj\xf8rn'
p767
tp768
I1663
s(S'Bushka'
p769
S'John'
p770
tp771
I1061
s(S'Haas, Jr.'
p772
S'Jay'
p773
tp774
I1052
s(S'Broadaway'
p775
S'Josh'
p776
tp777
I1458
s(S'Weintraub'
p778
S'Isaac'
p779
tp780
I1382
s(S'D\xedaz'
p781
S'Roberto'
p782
tp783
I2042
s(S'Piller'
p784
S'Martin'
p785
tp786
I1323
s(S'Vermeer'
p787
S'Ryan'
p788
tp789
I2094
s(S'Noll'
p790
S'David'
p791
tp792
I738
s(S'Goodwin'
p793
S'Shaun'
p794
tp795
I1049
s(S'Coetzee'
p796
S'George'
p797
tp798
I1644
s(S'Anderson'
p799
S'Chris'
p800
tp801
I408
s(S'Rau'
p802
S'Nathaniel'
p803
tp804
I1703
s(S'San Filippo'
p805
S'Mike'
p806
tp807
I932
s(S'Spengler'
p808
S'Dave'
p809
tp810
I779
s(S'Parry'
p811
S'Bryn'
p812
tp813
I1117
s(S'Mitchum'
p814
S'Kelly'
p815
tp816
I296
s(S'Sonnier'
p817
S'Greg'
p818
tp819
I1554
s(S'Young'
p820
S'Steven'
p821
tp822
I1802
s(S'Warren'
p823
S'Marc'
p824
tp825
I1713
s(S'Affrunti'
p826
S'Joe'
p827
tp828
I750
s(S'Wilcox'
p829
S'Will'
p830
tp831
I1427
s(S'Baker'
p832
S'Mark'
p833
tp834
I1649
s(S'Streelman'
p835
S'Kevin'
p836
tp837
I539
s(S'Barron'
p838
S'Doug'
p839
tp840
I315
s(S'Levet'
p841
S'Thomas'
p842
tp843
I283
s(S'Johnson'
p844
S'Vincent'
p845
tp846
I1331
s(S'Green'
p847
S'Nathan'
p848
tp849
I982
s(S'Maggert'
p850
g158
tp851
I87
s(S'Choi'
p852
S'Phillip'
p853
tp854
I1532
s(S'Pagunsan'
p855
S'Juvic'
p856
tp857
I1122
s(S'Dredge'
p858
S'Bradley'
p859
tp860
I836
s(S'Slattery'
p861
S'Kurt'
p862
tp863
I2054
s(S'Poncino'
p864
S'Vinnie'
p865
tp866
I1037
s(S'Rozo'
p867
S'Marcelo'
p868
tp869
I1847
s(S'Hatch'
p870
S'Terry'
p871
tp872
I830
s(S'Wise'
p873
S'Aaron'
p874
tp875
I1975
s(S'Kearney'
p876
S'Thomas'
p877
tp878
I1403
s(S'Andrade'
p879
S'Billy'
p880
tp881
I2
s(S'Murray'
p882
S'Tom'
p883
tp884
I1533
s(S'Tryon'
p885
S'Ty'
p886
tp887
I478
s(S'Peck'
p888
S'Brad'
p889
tp890
I1284
s(S'Meierdierks'
p891
S'Eric'
p892
tp893
I1347
s(S'Bourque'
p894
S'Casey'
p895
tp896
I1213
s(S'Heirakuji'
p897
S'Royden'
p898
tp899
I520
s(S'Hall'
p900
S'Kevin'
p901
tp902
I877
s(S'Hahn'
p903
S'James'
p904
tp905
I1655
s(S'Kaymer'
p906
S'Martin'
p907
tp908
I1208
s(S'Kim'
p909
S'Michael'
p910
tp911
I1698
s(S'Frazar'
p912
S'Harrison'
p913
tp914
I375
s(S'Mariano'
p915
S'Abe'
p916
tp917
I1146
s(S'Jacobsen'
p918
S'Peter'
p919
tp920
I71
s(S'Turnesa'
p921
S'Marc'
p922
tp923
I1205
s(S'Witherall'
p924
S'John'
p925
tp926
I521
s(S'Gibb'
p927
S'Judd'
p928
tp929
I1358
s(S'Silvers'
p930
S'Mark'
p931
tp932
I1665
s(S'Imano'
p933
S'Yasuharu'
p934
tp935
I382
s(S'Wilson'
p936
S'Brian'
p937
tp938
I601
s(S'Hoshino'
p939
S'Hidemasa'
p940
tp941
I1186
s(S'Evans'
p942
S'Barry'
p943
tp944
I506
s(S'Brown'
p945
S'Ted'
p946
tp947
I1371
s(S'Stegmaier'
p948
S'Brett'
p949
tp950
I1060
s(S'Griffith'
p951
S'Glen'
p952
tp953
I1684
s(S'Loar'
p954
S'Edward'
p955
tp956
I463
s(S'Wall'
p957
S'Anthony'
p958
tp959
I969
s(S'King'
p960
S'Danny'
p961
tp962
I1020
s(S'Merritt'
p963
S'Troy'
p964
tp965
I1392
s(S'Reid'
p966
S'Mike'
p967
tp968
I116
s(S'Mills'
p969
S'Corbin'
p970
tp971
I1606
s(S'Cole'
p972
S'Bobby'
p973
tp974
I30
s(S'Robinson'
p975
S'David'
p976
tp977
I1273
s(S'Foley'
p978
S'Kevin'
p979
tp980
I1745
s(S'Covello'
p981
S'Vince'
p982
tp983
I1659
s(S'Vogel'
p984
S'T.J.'
p985
tp986
I1690
s(S'Carranza'
p987
S'Clodomiro'
p988
tp989
I483
s(S'Berganio, Jr.'
p990
S'David'
p991
tp992
I202
s(S'Luck'
p993
S'Curtis'
p994
tp995
I2013
s(S'Gibson'
p996
S'Rhein'
p997
tp998
I1917
s(S'Long'
p999
S'Michael'
p1000
tp1001
I821
s(S'Svensson'
p1002
S'Adam'
p1003
tp1004
I1704
s(S'Paratore'
p1005
S'Renato'
p1006
tp1007
I2103
s(S'Benjamin'
p1008
S'Brad'
p1009
tp1010
I1416
s(S'Hansen'
p1011
S'Jaysen'
p1012
tp1013
I2099
s(S'Leary'
p1014
S'John Ray'
p1015
tp1016
I393
s(S'Caldwell'
p1017
S'Rex'
p1018
tp1019
I23
s(S'Matsuyama'
p1020
S'Hideki'
p1021
tp1022
I1480
s(S'Fabel'
p1023
S'Brad'
p1024
tp1025
I43
s(S'Yelverton'
p1026
S'Tim'
p1027
tp1028
I1927
s(S'Soero'
p1029
S'Pierre-Henri'
p1030
tp1031
I1561
s(S'Delahoussaye'
p1032
S'Brent'
p1033
tp1034
I1051
s(S'Deason'
p1035
S'Chip'
p1036
tp1037
I1114
s(S'Morris'
p1038
S'Dustin'
p1039
tp1040
I1615
s(S'Dobyns'
p1041
S'Matt'
p1042
tp1043
I1678
s(S'Meyer'
p1044
S'Greg'
p1045
tp1046
I610
s(S'Edfors'
p1047
S'Johan'
p1048
tp1049
I1014
s(S'Carbone'
p1050
S'Michael'
p1051
tp1052
I1071
s(S'Maginnes'
p1053
g278
tp1054
I236
s(S'Hronek'
p1055
S'David'
p1056
tp1057
I1740
s(S'Bowditch'
p1058
S'Steven'
p1059
tp1060
I862
s(S'Knaub'
p1061
S'Brandon'
p1062
tp1063
I747
s(S'Burgin'
p1064
S'Kelvin'
p1065
tp1066
I1162
s(S'Gleaton'
p1067
S'Todd'
p1068
tp1069
I618
s(S'Maness'
p1070
S'Mark'
p1071
tp1072
I88
s(S'Bourdy'
p1073
S'Gr\xe9gory'
p1074
tp1075
I1008
s(S'Curtis'
p1076
S'Ben'
p1077
tp1078
I399
s(S'Larrazabal'
p1079
S'Pablo'
p1080
tp1081
I1222
s(S'Worthington II'
p1082
S'Wyatt'
p1083
tp1084
I1976
s(S'Kurmel'
p1085
S'Chad'
p1086
tp1087
I1150
s(S'Stevens'
p1088
S'Craig'
p1089
tp1090
I135
s(S'Fdez-Castano'
p1091
S'Gonzalo'
p1092
tp1093
I997
s(S'Elkington'
p1094
S'Steve'
p1095
tp1096
I41
s(S'Kim'
p1097
S'Anthony'
p1098
tp1099
I1072
s(S'Greenwell'
p1100
S'Robbie'
p1101
tp1102
I1732
s(S'Patten'
p1103
S'Zeb'
p1104
tp1105
I244
s(S'Harding'
p1106
S'Tom'
p1107
tp1108
I204
s(S'Niebrugge'
p1109
S'Jordan'
p1110
tp1111
I1779
s(S'Peterson'
p1112
S'John'
p1113
tp1114
I1597
s(S'Blackmar'
p1115
S'Phil'
p1116
tp1117
I11
s(S'Scott'
p1118
S'Adam'
p1119
tp1120
I452
s(S'Etulain'
p1121
S'Juli\xe1n'
p1122
tp1123
I1992
s(S'Church'
p1124
S'David'
p1125
tp1126
I611
s(S'Barber'
p1127
S'Blayne'
p1128
tp1129
I1673
s(S'Jack'
p1130
S'Billy'
p1131
tp1132
I818
s(S'Medlin'
p1133
S'Scott'
p1134
tp1135
I1353
s(S'Gleeton'
p1136
S'Tom'
p1137
tp1138
I569
s(S'Azinger'
p1139
S'Paul'
p1140
tp1141
I4
s(S'Fisher'
p1142
S'Darin'
p1143
tp1144
I2052
s(S'Gibson'
p1145
S'Kelly'
p1146
tp1147
I56
s(S'Dickerson'
p1148
S'Bubba'
p1149
tp1150
I496
s(S'Mathis'
p1151
g387
tp1152
I661
s(S'Wakefield'
p1153
S'Simon'
p1154
tp1155
I978
s(S'Hickson'
p1156
S'John'
p1157
tp1158
I801
s(S'Norman'
p1159
S'Greg'
p1160
tp1161
I98
s(S'Dougherty'
p1162
S'Sean'
p1163
tp1164
I1816
s(S'Kitayama'
p1165
S'Kurt'
p1166
tp1167
I2036
s(S'Hurley'
p1168
S'John'
p1169
tp1170
I1598
s(S'Kua'
p1171
S'T.J.'
p1172
tp1173
I1407
s(S'Carter'
p1174
S'Tom'
p1175
tp1176
I273
s(S'Woods'
p1177
S'Jim'
p1178
tp1179
I443
s(S'Welborn'
p1180
S'Ryan'
p1181
tp1182
I405
s(S'Teshima'
p1183
S'Taichi'
p1184
tp1185
I356
s(S'Claar'
p1186
g152
tp1187
I27
s(S'Streck'
p1188
S'Ron'
p1189
tp1190
I1349
s(S'McIlroy'
p1191
S'Rory'
p1192
tp1193
I1301
s(S'Hughes'
p1194
S'Bradley'
p1195
tp1196
I267
s(S'Sanchez'
p1197
S'Javier'
p1198
tp1199
I799
s(S'Miller'
p1200
S'Andy'
p1201
tp1202
I467
s(S'Skinner'
p1203
S'Sonny'
p1204
tp1205
I934
s(S'Kraft'
p1206
S'Greg'
p1207
tp1208
I162
s(S'Colsaerts'
p1209
S'Nicolas'
p1210
tp1211
I1546
s(S'Brown'
p1212
S'Mark'
p1213
tp1214
I966
s(S'Hart'
p1215
S'Jeff'
p1216
tp1217
I769
s(S'Nakamura'
p1218
S'Tatsuaki'
p1219
tp1220
I642
s(S'Winkel'
p1221
S'Chris'
p1222
tp1223
I436
s(S'Olson'
p1224
S'Leif'
p1225
tp1226
I1297
s(S'Owen'
p1227
S'Greg'
p1228
tp1229
I823
s(S'Polland'
p1230
S'Ben'
p1231
tp1232
I1887
s(S'Knost'
p1233
S'Colt'
p1234
tp1235
I1158
s(S'Halpen'
p1236
S'Todd'
p1237
tp1238
I1074
s(S'Morse'
p1239
S'John'
p1240
tp1241
I209
s(S'Bernard'
p1242
S'Hugo'
p1243
tp1244
I1988
s(S'White'
p1245
S'Dustin'
p1246
tp1247
I1024
s(S'Wolfes'
p1248
S'Scott'
p1249
tp1250
I1964
s(S'McRoy'
p1251
S'Spike'
p1252
tp1253
I230
s(S'Maruyama'
p1254
S'Shigeki'
p1255
tp1256
I286
s(S'Vomacka'
p1257
S'Dean'
p1258
tp1259
I1278
s(S'Downs'
p1260
S'Dennis'
p1261
tp1262
I1628
s(S'Sawada'
p1263
S'Jared'
p1264
tp1265
I1770
s(S'Cooper'
p1266
S'Cory'
p1267
tp1268
I1967
s(S'McMillan'
p1269
S'Robert'
p1270
tp1271
I1221
s(S'Rainaud'
p1272
S'Adam'
p1273
tp1274
I1786
s(S'Juszczyk'
p1275
S'Joseph'
p1276
tp1277
I1839
s(S'Sutton'
p1278
S'Hal'
p1279
tp1280
I139
s(S'Dully'
p1281
S'Frank'
p1282
tp1283
I973
s(S'Loupe'
p1284
S'Andrew'
p1285
tp1286
I1508
s(S'Stanger'
p1287
S'Jimmy'
p1288
tp1289
I2044
s(S'Sanday'
p1290
S'Jeff'
p1291
tp1292
I412
s(S'Regner'
p1293
S'Mike'
p1294
tp1295
I1153
s(S'Johnson'
p1296
S'Audie'
p1297
tp1298
I1544
s(S'Abery'
p1299
S'Warren'
p1300
tp1301
I824
s(S'Hall'
p1302
S'Tyler'
p1303
tp1304
I920
s(S'Thompson'
p1305
S'Michael'
p1306
tp1307
I1237
s(S'Biancalana'
p1308
S'Roy'
p1309
tp1310
I8
s(S'Harrington'
p1311
S'Scott'
p1312
tp1313
I722
s(S'Payne'
p1314
S'Brian'
p1315
tp1316
I875
s(S'Kalinowski'
p1317
S'Tom'
p1318
tp1319
I804
s(S'Smail'
p1320
S'David'
p1321
tp1322
I346
s(S'Miyazato'
p1323
S'Yusaku'
p1324
tp1325
I434
s(S'Lepp'
p1326
S'James'
p1327
tp1328
I509
s(S'Jeong'
p1329
S'Yeon Jin'
p1330
tp1331
I1481
s(S'Franco'
p1332
S'Carlos'
p1333
tp1334
I294
s(S'Glasson'
p1335
S'Bill'
p1336
tp1337
I57
s(S'Bilodeau'
p1338
S'Kyle'
p1339
tp1340
I1699
s(S'Tringale'
p1341
S'Cameron'
p1342
tp1343
I1401
s(S'Hughes'
p1344
S'Mackenzie'
p1345
tp1346
I1595
s(S'Hamilton'
p1347
S'Blair'
p1348
tp1349
I1902
s(S'Schnider'
p1350
S'David'
p1351
tp1352
I729
s(S'Murphy'
p1353
S'Trevor'
p1354
tp1355
I1240
s(S'Mullinax'
p1356
S'Trey'
p1357
tp1358
I1867
s(S'Armour III'
p1359
S'Tommy'
p1360
tp1361
I3
s(S'Sutcliffe'
p1362
S'Nevin'
p1363
tp1364
I401
s(S'Presnell'
p1365
S'Alistair'
p1366
tp1367
I1363
s(S'Watt'
p1368
S'Brady'
p1369
tp1370
I1756
s(S'Smith'
p1371
S'Jordan L'
p1372
tp1373
I2097
s(S'Blixt'
p1374
S'Jonas'
p1375
tp1376
I1557
s(S'Willmann'
p1377
S'Kyle'
p1378
tp1379
I902
s(S'Renner'
p1380
S'Jim'
p1381
tp1382
I1225
s(S'Stadler'
p1383
S'Kevin'
p1384
tp1385
I505
s(S'Barker'
p1386
S'Mickey'
p1387
tp1388
I905
s(S'Wonnell'
p1389
S'Clayton'
p1390
tp1391
I1685
s(S'Rahm'
p1392
S'Jon'
p1393
tp1394
I1869
s(S'Green'
p1395
S'Ken'
p1396
tp1397
I59
s(S'Davies'
p1398
S'Rhys'
p1399
tp1400
I1384
s(S'Swanson'
p1401
S'Tyler'
p1402
tp1403
I555
s(S'Berger'
p1404
S'Daniel'
p1405
tp1406
I1853
s(S'Behr'
p1407
S'Stephen'
p1408
tp1409
I968
s(S'Rody'
p1410
S'Tyler'
p1411
tp1412
I1627
s(S'Reynolds'
p1413
S'Greg'
p1414
tp1415
I514
s(S'Lowry'
p1416
S'Shane'
p1417
tp1418
I1334
s(S'Leon'
p1419
S'Hugo'
p1420
tp1421
I1324
s(S'Kai'
p1422
S'Shintaro'
p1423
tp1424
I1281
s(S'Hansen'
p1425
S'Soren'
p1426
tp1427
I1194
s(S'Molder'
p1428
S'Bryce'
p1429
tp1430
I433
s(S'Hazen'
p1431
S'James'
p1432
tp1433
I1619
s(S'Hoey'
p1434
S'Michael'
p1435
tp1436
I1545
s(S'Kim'
p1437
S'Whee'
p1438
tp1439
I1848
s(S'Woodland'
p1440
S'Gary'
p1441
tp1442
I1315
s(S'Stankowski'
p1443
S'Paul'
p1444
tp1445
I231
s(S'Clampett'
p1446
S'Bobby'
p1447
tp1448
I927
s(S"O'Mahony"
p1449
S'Greg'
p1450
tp1451
I1499
s(S'Lunde'
p1452
S'Bill'
p1453
tp1454
I1105
s(S'Fisher Jr'
p1455
S'Trevor'
p1456
tp1457
I1360
s(S'Zaback'
p1458
S'Zach'
p1459
tp1460
I2062
s(S'Marquez'
p1461
S'Braxton'
p1462
tp1463
I1414
s(S'Thompson'
p1464
S'Curtis'
p1465
tp1466
I1798
s(S'Beard'
p1467
S'Michael'
p1468
tp1469
I659
s(S'Hend'
p1470
S'Scott'
p1471
tp1472
I662
s(S'Cooper'
p1473
S'Carl'
p1474
tp1475
I1632
s(S'Bova'
p1476
S'Matt'
p1477
tp1478
I1686
s(S'India'
p1479
S'Vince'
p1480
tp1481
I1933
s(S'Montgomerie'
p1482
S'Colin'
p1483
tp1484
I238
s(S'Dugas'
p1485
S'Eric'
p1486
tp1487
I1577
s(S'Jertson'
p1488
S'Marty'
p1489
tp1490
I1368
s(S'Fichardt'
p1491
S'Darren'
p1492
tp1493
I636
s(S'Waite'
p1494
S'Grant'
p1495
tp1496
I151
s(S'Thelen'
p1497
S'Tim'
p1498
tp1499
I581
s(S'Graham'
p1500
S'Austin'
p1501
tp1502
I1605
s(S'Hicks'
p1503
S'Justin*'
p1504
tp1505
I1456
s(S'Johnston'
p1506
S'Andrew'
p1507
tp1508
I1921
s(S'McDowell'
p1509
S'Graeme'
p1510
tp1511
I485
s(S'Adcock'
p1512
S'Mitch'
p1513
tp1514
I1181
s(S'Lee'
p1515
S'Matt'
p1516
tp1517
I2049
s(S'Penner'
p1518
S'Kevin'
p1519
tp1520
I1767
s(S'Downes'
p1521
S'Chris'
p1522
tp1523
I448
s(S'Morin'
p1524
S'Alan'
p1525
tp1526
I410
s(S'Williamson'
p1527
S'Jay'
p1528
tp1529
I252
s(S'Phengsavath'
p1530
S'Joe'
p1531
tp1532
I517
s(S'Lebeck'
p1533
S'David'
p1534
tp1535
I623
s(S'Bennett'
p1536
S'Mike'
p1537
tp1538
I814
s(S'Staten'
p1539
S'B.J.'
p1540
tp1541
I1000
s(S'Wilson'
p1542
S'Oliver'
p1543
tp1544
I1209
s(S'Points'
p1545
S'D.A.'
p1546
tp1547
I692
s(S'de Jonge'
p1548
S'Brendon'
p1549
tp1550
I1106
s(S'Butcher'
p1551
S'Rodney'
p1552
tp1553
I1271
s(S'Bermel'
p1554
S'John'
p1555
tp1556
I189
s(S'Hjertstedt'
p1557
S'Gabriel'
p1558
tp1559
I363
s(S'Toms'
p1560
S'David'
p1561
tp1562
I142
s(S'Gregory'
p1563
S'Greg'
p1564
tp1565
I2093
s(S'Teater'
p1566
S'Josh'
p1567
tp1568
I878
s(S'Block'
p1569
S'Michael'
p1570
tp1571
I1634
s(S'Reed'
p1572
S'Stephen'
p1573
tp1574
I1025
s(S'Oosthuizen'
p1575
S'Louis'
p1576
tp1577
I1005
s(S'Liu'
p1578
S'Yan Wei'
p1579
tp1580
I1747
s(S'Johnson'
p1581
S'Dustin'
p1582
tp1583
I1163
s(S'Zhang'
p1584
S'Lian-Wei'
p1585
tp1586
I649
s(S'Fujikawa'
p1587
S'Tadd'
p1588
tp1589
I1140
s(S'Tian Liang'
p1590
S'Guan'
p1591
tp1592
I1675
s(S'Kokrak'
p1593
S'Jason'
p1594
tp1595
I1473
s(S'Hwang'
p1596
S'Jay'
p1597
tp1598
I1603
s(S'Renner'
p1599
S'Jack'
p1600
tp1601
I117
s(S'Giles'
p1602
S'Matthew'
p1603
tp1604
I1562
s(S'Weaver'
p1605
S'Drew'
p1606
tp1607
I1224
s(S'Karlsson'
p1608
S'Robert'
p1609
tp1610
I305
s(S'Sauers'
p1611
S'Gene'
p1612
tp1613
I125
s(S'Schmuhl'
p1614
S'Jason'
p1615
tp1616
I1328
s(S'Payne'
p1617
S'Jordan'
p1618
tp1619
I1445
s(S'Choi'
p1620
S'Albin'
p1621
tp1622
I1520
s(S'Flanagan'
p1623
S'Nick'
p1624
tp1625
I723
s(S'Strickler'
p1626
S'Will'
p1627
tp1628
I1495
s(S'Senior'
p1629
S'Peter'
p1630
tp1631
I580
s(S'Miller'
p1632
S'Scott'
p1633
tp1634
I1018
s(S'Okamura'
p1635
S'Garrett'
p1636
tp1637
I1876
s(S'Durant'
p1638
S'Joe'
p1639
tp1640
I196
s(S'Ruiz'
p1641
S'Mike'
p1642
tp1643
I690
s(S'Hadwin'
p1644
S'Adam'
p1645
tp1646
I1400
s(S'Wax'
p1647
S'Danny'
p1648
tp1649
I1402
s(S'Muttitt'
p1650
S'David'
p1651
tp1652
I1943
s(S'Green'
p1653
S'Garland'
p1654
tp1655
I1898
s(S'Daly'
p1656
S'John'
p1657
tp1658
I34
s(S'Ruddo'
p1659
S'Tim'
p1660
tp1661
I1055
s(S'Kamte'
p1662
S'James'
p1663
tp1664
I1296
s(S'Soli'
p1665
S'Mick'
p1666
tp1667
I933
s(S'Schouller, Jr.'
p1668
S'Jim'
p1669
tp1670
I711
s(S'Branham'
p1671
S'David'
p1672
tp1673
I752
s(S'Dodd'
p1674
S'Stephen'
p1675
tp1676
I806
s(S'Hensby'
p1677
S'Mark'
p1678
tp1679
I328
s(S'Peck'
p1680
S'Jeff'
p1681
tp1682
I1373
s(S'Pride'
p1683
S'Dicky'
p1684
tp1685
I249
s(S'North'
p1686
S'Andy'
p1687
tp1688
I931
s(S'Griffin'
p1689
S'Lanto'
p1690
tp1691
I1509
s(S'Simpson'
p1692
S'Webb'
p1693
tp1694
I1040
s(S'Kiyota'
p1695
S'Taichiro'
p1696
tp1697
I385
s(S'Homa'
p1698
S'Max'
p1699
tp1700
I1759
s(S'Bryant'
p1701
g1024
tp1702
I19
s(S'Guetz'
p1703
S'Brian'
p1704
tp1705
I972
s(S'Schlottman'
p1706
S'Ben'
p1707
tp1708
I1901
s(S'Foster'
p1709
S'Mark'
p1710
tp1711
I391
s(S'Gates'
p1712
S'Bobby'
p1713
tp1714
I1321
s(S'Lile'
p1715
S'Craig'
p1716
tp1717
I1098
s(S'Goldberg'
p1718
S'Aaron'
p1719
tp1720
I1395
s(S'Miller'
p1721
S'Mike'
p1722
tp1723
I1777
s(S'Prince'
p1724
S'Patrick'
p1725
tp1726
I619
s(S'Thompson'
p1727
S'Nicholas'
p1728
tp1729
I1034
s(S'Sullivan'
p1730
S'Chip'
p1731
tp1732
I137
s(S'MacKenzie'
p1733
S'Will'
p1734
tp1735
I860
s(S'Harmon'
p1736
S'Mike'
p1737
tp1738
I571
s(S'Bensel'
p1739
S'Frank'
p1740
tp1741
I979
s(S'Sterne'
p1742
S'Richard'
p1743
tp1744
I1113
s(S'Arp'
p1745
S'Riley'
p1746
tp1747
I2021
s(S'Prowse'
p1748
S'Dean'
p1749
tp1750
I593
s(S'Kennedy'
p1751
S'Ryan'
p1752
tp1753
I1874
s(S'Tyler'
p1754
S'Nathan'
p1755
tp1756
I1389
s(S'Stricker'
p1757
S'Steve'
p1758
tp1759
I188
s(S'Jobe'
p1760
S'Brandt'
p1761
tp1762
I191
s(S'Miyase'
p1763
S'Hirofumi'
p1764
tp1765
I616
s(S'Ross'
p1766
S'Christopher'
p1767
tp1768
I1437
s(S'Floyd'
p1769
S'Robert'
p1770
tp1771
I1092
s(S'Fowler'
p1772
S'Rickie'
p1773
tp1774
I1236
s(S'Brigman'
p1775
S'D.J.'
p1776
tp1777
I679
s(S'Freeman'
p1778
S'Cody'
p1779
tp1780
I1010
s(S'Mize'
p1781
S'Larry'
p1782
tp1783
I95
s(S'Paolucci'
p1784
S'Anthony'
p1785
tp1786
I1503
s(S'Peterson'
p1787
S'Matt'
p1788
tp1789
I184
s(S'Grillo'
p1790
S'Emiliano'
p1791
tp1792
I1815
s(S'Summerhays'
p1793
S'Daniel'
p1794
tp1795
I1457
s(S'Bertsch'
p1796
S'Shane'
p1797
tp1798
I945
s(S'Cabrera'
p1799
S'\xc1ngel'
p1800
tp1801
I359
s(S'Doyle'
p1802
S'Matt'
p1803
tp1804
I828
s(S'Speight'
p1805
S'Josh'
p1806
tp1807
I1985
s(S'Moore'
p1808
S'Patrick'
p1809
tp1810
I352
s(S'Jaidee'
p1811
S'Thongchai'
p1812
tp1813
I454
s(S'Klein'
p1814
S'Jeff'
p1815
tp1816
I182
s(S'Hallberg'
p1817
S'Gary'
p1818
tp1819
I61
s(S'Tambellini'
p1820
S'Roger'
p1821
tp1822
I665
s(S'Haas'
p1823
S'Hunter'
p1824
tp1825
I858
s(S'Francis'
p1826
S'Philip'
p1827
tp1828
I1138
s(S'Stockton'
p1829
S'Brady'
p1830
tp1831
I1036
s(S'Heffernan'
p1832
S'Wesley'
p1833
tp1834
I988
s(S'Wolf'
p1835
S'Erik'
p1836
tp1837
I1204
s(S'Connell'
p1838
S'Michael'
p1839
tp1840
I981
s(S'Singh'
p1841
S'Vijay'
p1842
tp1843
I190
s(S'Fraser'
p1844
S'Marcus'
p1845
tp1846
I1359
s(S'Nelson'
p1847
S'Kirk'
p1848
tp1849
I222
s(S'Frost'
p1850
S'David'
p1851
tp1852
I52
s(S'Neil'
p1853
S'Bradley'
p1854
tp1855
I1866
s(S'Tataurangi'
p1856
S'Phil'
p1857
tp1858
I284
s(S'Langham'
p1859
S'Franklin'
p1860
tp1861
I242
s(S'Park'
p1862
S'Sung Joon'
p1863
tp1864
I1826
s(S'Pearson'
p1865
S'Michael'
p1866
tp1867
I450
s(S'Carpenter'
p1868
S'Alex'
p1869
tp1870
I1504
s(S'Claxton'
p1871
S'Will'
p1872
tp1873
I1465
s(S'Faldo'
p1874
S'Nick'
p1875
tp1876
I44
s(S'Weekley'
p1877
S'Boo'
p1878
tp1879
I1120
s(S'Hall'
p1880
S'Gavin'
p1881
tp1882
I1440
s(S'Lederer'
p1883
S'Brett'
p1884
tp1885
I1394
s(S'Randolph'
p1886
S'Sam'
p1887
tp1888
I115
s(S'Flores'
p1889
S'Erik'
p1890
tp1891
I1531
s(S'Robbins'
p1892
S'Kyle'
p1893
tp1894
I1979
s(S'McKenzie'
p1895
S'David'
p1896
tp1897
I956
s(S'Nesbitt'
p1898
S'Drew'
p1899
tp1900
I2056
s(S'Stanley'
p1901
S'Kyle'
p1902
tp1903
I1152
s(S'Kohn'
p1904
S'Matthew'
p1905
tp1906
I1262
s(S'Morland IV'
p1907
S'David'
p1908
tp1909
I289
s(S'Capone'
p1910
S'Mike'
p1911
tp1912
I480
s(S'Adamonis'
p1913
S'Brad'
p1914
tp1915
I431
s(S'Sloan'
p1916
S'Roger'
p1917
tp1918
I1492
s(S'Otto'
p1919
S'Hennie'
p1920
tp1921
I395
s(S'Botes'
p1922
S'Desvonde'
p1923
tp1924
I637
s(S'Sabbatini'
p1925
S'Rory'
p1926
tp1927
I428
s(S'Lee'
p1928
S'D.H.'
p1929
tp1930
I1643
s(S'Lamely'
p1931
S'Derek'
p1932
tp1933
I751
s(S'Roach'
p1934
S'Wes'
p1935
tp1936
I1744
s(S'Williamson'
p1937
S'Peter'
p1938
tp1939
I1651
s(S'LaBarge'
p1940
S'Parker'
p1941
tp1942
I1493
s(S'Obremski'
p1943
S'Dan'
p1944
tp1945
I1701
s(S'Garza'
p1946
S'Dustin'
p1947
tp1948
I1428
s(S'Kamiyama'
p1949
S'Takashi'
p1950
tp1951
I839
s(S'McCallister'
p1952
S'Blaine'
p1953
tp1954
I92
s(S'Russell'
p1955
S'Jordan'
p1956
tp1957
I2027
s(S'Hutcherson'
p1958
S'Bobby'
p1959
tp1960
I1424
s(S'Kim'
p1961
S'K.T.'
p1962
tp1963
I1464
s(S'Dellostritto'
p1964
S'Ron'
p1965
tp1966
I805
s(S'Buckle'
p1967
S'Andrew'
p1968
tp1969
I1115
s(S'Bates'
p1970
S'Pat'
p1971
tp1972
I218
s(S'Frank'
p1973
S'Garrett'
p1974
tp1975
I1455
s(S'Parun'
p1976
S'Tim'
p1977
tp1978
I728
s(S'Martens'
p1979
S'Gibby'
p1980
tp1981
I511
s(S'Hull'
p1982
S'Brian'
p1983
tp1984
I344
s(S'Lee'
p1985
S'Lucas'
p1986
tp1987
I1325
s(S'Perez'
p1988
S'Pat'
p1989
tp1990
I446
s(S'Cantlay'
p1991
S'Patrick'
p1992
tp1993
I1517
s(S'Conley'
p1994
S'Tim'
p1995
tp1996
I247
s(S'Strange'
p1997
S'Curtis'
p1998
tp1999
I136
s(S'Benepe'
p2000
S'Jim'
p2001
tp2002
I7
s(S'Anderson'
p2003
S'Billy'
p2004
tp2005
I1279
s(S'Kim'
p2006
S'Kenny'
p2007
tp2008
I1229
s(S'Schneiter'
p2009
S'Steve'
p2010
tp2011
I939
s(S'Brown'
p2012
S'Scott'
p2013
tp2014
I1565
s(S'Morse'
p2015
S'Andy'
p2016
tp2017
I586
s(S'Peters'
p2018
S'Austin'
p2019
tp2020
I1905
s(S'Lashley'
p2021
S'Nate'
p2022
tp2023
I1033
s(S'Oh'
p2024
g1351
tp2025
I717
s(S'Rivera'
p2026
S'Miguel'
p2027
tp2028
I749
s(S'Taniguchi'
p2029
S'Toru'
p2030
tp2031
I825
s(S'Cannon'
p2032
S'Will'
p2033
tp2034
I2069
s(S'Guillaume'
p2035
S'Vaita'
p2036
tp2037
I1626
s(S'Crane'
p2038
S'Ben'
p2039
tp2040
I425
s(S'Theegala'
p2041
S'Sahith'
p2042
tp2043
I2011
s(S'Stiles'
p2044
S'Darron'
p2045
tp2046
I388
s(S'Panek'
p2047
S'John'
p2048
tp2049
I1063
s(S'Merrick'
p2050
S'John'
p2051
tp2052
I1132
s(S'Killeen'
p2053
S'J.J.'
p2054
tp2055
I1572
s(S'Todd'
p2056
S'Brendon'
p2057
tp2058
I1313
s(S'Walker'
p2059
S'Jimmy'
p2060
tp2061
I488
s(S'Amershadian'
p2062
S'Jeff'
p2063
tp2064
I960
s(S'Karmis'
p2065
S'Peter'
p2066
tp2067
I1210
s(S'Villarreal'
p2068
S'Armando'
p2069
tp2070
I1757
s(S'Bolli'
p2071
S'Justin'
p2072
tp2073
I854
s(S'Tate'
p2074
S'Steven'
p2075
tp2076
I725
s(S'Starkjohann'
p2077
S'Chris'
p2078
tp2079
I780
s(S'Burke'
p2080
S'James'
p2081
tp2082
I1069
s(S'Herman'
p2083
S'Jim'
p2084
tp2085
I1476
s(S'Pellegrine'
p2086
S'Steve'
p2087
tp2088
I1148
s(S'Flesch'
p2089
S'Steve'
p2090
tp2091
I213
s(S'Mathias'
p2092
S'Jonathan'
p2093
tp2094
I890
s(S'Donaldson'
p2095
S'Jamie'
p2096
tp2097
I1550
s(S'Dyson'
p2098
S'Simon'
p2099
tp2100
I991
s(S'Whitekiller'
p2101
S'Trent'
p2102
tp2103
I1669
s(S'Hull'
p2104
S'Jeff'
p2105
tp2106
I1188
s(S'Wright'
p2107
S'Zach'
p2108
tp2109
I1977
s(S'Sullivan'
p2110
g967
tp2111
I138
s(S'Fox'
p2112
S'Benjamin'
p2113
tp2114
I1246
s(S'Levy'
p2115
S'Alexander'
p2116
tp2117
I1739
s(S'Anderson'
p2118
S'Jeremy'
p2119
tp2120
I471
s(S'Gomez'
p2121
S'Fabian'
p2122
tp2123
I1466
s(S'Maguire'
p2124
S'Jack'
p2125
tp2126
I1960
s(S'Grant'
p2127
S'Brent'
p2128
tp2129
I2007
s(S'Gaffney'
p2130
S'Brian'
p2131
tp2132
I1804
s(S'Evans'
p2133
S'Chris'
p2134
tp2135
I1990
s(S'Lyle'
p2136
S'Jarrod'
p2137
tp2138
I1125
s(S'Horschel'
p2139
S'Billy'
p2140
tp2141
I1305
s(S'Fieger'
p2142
S'Gene'
p2143
tp2144
I791
s(S'Labritz'
p2145
S'Rob'
p2146
tp2147
I1909
s(S'Saka'
p2148
S'David'
p2149
tp2150
I1502
s(S'Avret'
p2151
S'Clint'
p2152
tp2153
I1044
s(S'Fischer'
p2154
S'Zack'
p2155
tp2156
I1689
s(S'McLean'
p2157
S'James'
p2158
tp2159
I468
s(S'Lee'
p2160
S'Richard'
p2161
tp2162
I1169
s(S'Hopper'
p2163
S'Michael'
p2164
tp2165
I1877
s(S'Frittelli'
p2166
S'Dylan'
p2167
tp2168
I2096
s(S'St. Pierre'
p2169
S'Jim'
p2170
tp2171
I918
s(S'Lindheim'
p2172
S'Nicholas'
p2173
tp2174
I1995
s(S'Scott'
p2175
S'Kasey'
p2176
tp2177
I552
s(S'Brigman'
p2178
S'Jaxon'
p2179
tp2180
I173
s(S'Couch'
p2181
S'Chris'
p2182
tp2183
I613
s(S'Bartlett'
p2184
S'Jonathan'
p2185
tp2186
I1439
s(S'Schniederjans'
p2187
S'Ollie'
p2188
tp2189
I1864
s(S'Gallagher, Jr.'
p2190
S'Jim'
p2191
tp2192
I54
s(S'McGovern'
p2193
S'Jim'
p2194
tp2195
I169
s(S'Willman'
p2196
S'Ben'
p2197
tp2198
I1806
s(S'DeLaet'
p2199
S'Graham'
p2200
tp2201
I1129
s(S'Drewitt'
p2202
S'Brett'
p2203
tp2204
I1994
s(S'Iwata'
p2205
S'Hiroshi'
p2206
tp2207
I1298
s(S'Homan'
p2208
S'Wes'
p2209
tp2210
I1827
s(S'Lopez'
p2211
S'Lance'
p2212
tp2213
I1888
s(S'Rubinson'
p2214
S'Adam'
p2215
tp2216
I560
s(S'Moss'
p2217
S'Perry'
p2218
tp2219
I1351
s(S'Snedeker'
p2220
S'Haymes'
p2221
tp2222
I1346
s(S'Stockton, Jr.'
p2223
S'Dave'
p2224
tp2225
I205
s(S'Crain'
p2226
S'Andy'
p2227
tp2228
I710
s(S'Brodell'
p2229
S'Brian'
p2230
tp2231
I1342
s(S'Ormand'
p2232
S'Robby'
p2233
tp2234
I1913
s(S'Dalke'
p2235
S'Brad'
p2236
tp2237
I1972
s(S'Tewell'
p2238
S'Doug'
p2239
tp2240
I781
s(S'Aber'
p2241
S'John'
p2242
tp2243
I626
s(S'Silverman'
p2244
S'Ben'
p2245
tp2246
I1758
s(S'Worley, Jr.'
p2247
S'Carl'
p2248
tp2249
I487
s(S'Curran'
p2250
S'Jon'
p2251
tp2252
I1666
s(S'Schachner'
p2253
S'Michael'
p2254
tp2255
I1065
s(S'Madigan'
p2256
S'Timothy'
p2257
tp2258
I1780
s(S'Garland'
p2259
S'Rob'
p2260
tp2261
I1335
s(S'Kalinowski'
p2262
S'Bobby'
p2263
tp2264
I651
s(S'Risdon'
p2265
S'Dustin'
p2266
tp2267
I1207
s(S'Donald'
p2268
S'Luke'
p2269
tp2270
I437
s(S'LeBrun'
p2271
S'Steve'
p2272
tp2273
I884
s(S'Thompson'
p2274
S'Robert'
p2275
tp2276
I140
s(S'Gormley'
p2277
S'Jim'
p2278
tp2279
I1007
s(S'Fly'
p2280
S'Jonathan'
p2281
tp2282
I1613
s(S'Grob'
p2283
S'Mike'
p2284
tp2285
I224
s(S'Stroud'
p2286
S'Chris'
p2287
tp2288
I762
s(S'LoCicero'
p2289
S'Paul'
p2290
tp2291
I541
s(S'Kennerly'
p2292
S'Billy'
p2293
tp2294
I1523
s(S'Wall'
p2295
S'JJ'
p2296
tp2297
I753
s(S'Murray'
p2298
S'Grayson'
p2299
tp2300
I1993
s(S'McKay'
p2301
S'Billy'
p2302
tp2303
I915
s(S'Broadhurst'
p2304
S'Paul'
p2305
tp2306
I938
s(S'Springer'
p2307
S'Mike'
p2308
tp2309
I131
s(S'Fischer'
p2310
S'Todd'
p2311
tp2312
I317
s(S'Morgan'
p2313
g155
tp2314
I516
s(S'Weir'
p2315
S'Ben'
p2316
tp2317
I798
s(S'Gielow'
p2318
S'Brendan'
p2319
tp2320
I1441
s(S'Sim'
p2321
S'Michael'
p2322
tp2323
I874
s(S'Pollack'
p2324
S'Joe'
p2325
tp2326
I911
s(S'Isenhour'
p2327
S'Tripp'
p2328
tp2329
I605
s(S'Short'
p2330
S'Adam'
p2331
tp2332
I856
s(S'McCarty'
p2333
S'Sean'
p2334
tp2335
I250
s(S'Hanson'
p2336
S'Peter'
p2337
tp2338
I1191
s(S'Forsyth'
p2339
S'Alastair'
p2340
tp2341
I441
s(S'Meth'
p2342
S'Byron'
p2343
tp2344
I1934
s(S'Lu'
p2345
S'Shawn'
p2346
tp2347
I1969
s(S'Catalioto'
p2348
S'Martin'
p2349
tp2350
I1336
s(S'Ogilvy'
p2351
S'Geoff'
p2352
tp2353
I383
s(S'Hoffhine'
p2354
S'Ben'
p2355
tp2356
I537
s(S'Jenkins'
p2357
S'Carter'
p2358
tp2359
I2045
s(S'Lahiri'
p2360
S'Anirban'
p2361
tp2362
I1728
s(S'Rende'
p2363
S'Derek'
p2364
tp2365
I2067
s(S'Cairns'
p2366
g2131
tp2367
I1803
s(S'Stuard'
p2368
S'Brian'
p2369
tp2370
I1386
s(S'Kim'
p2371
S'Jae Yong'
p2372
tp2373
I2057
s(S'Echavarria'
p2374
S'Andres'
p2375
tp2376
I1834
s(S'Trahan'
p2377
S'D.J.'
p2378
tp2379
I432
s(S'Janewattananond'
p2380
S'Jazz'
p2381
tp2382
I2024
s(S'Mahoney'
p2383
S'Korey'
p2384
tp2385
I1066
s(S'Schleicher'
p2386
S'Troy'
p2387
tp2388
I1009
s(S'Barber'
p2389
S'Aaron'
p2390
tp2391
I373
s(S'Hansen'
p2392
S'Matt'
p2393
tp2394
I1023
s(S'Parra'
p2395
S'Chris'
p2396
tp2397
I994
s(S'Deane'
p2398
S'Stuart'
p2399
tp2400
I992
s(S'Traub'
p2401
S'John'
p2402
tp2403
I143
s(S'Lee'
p2404
S'Steve'
p2405
tp2406
I1514
s(S'Sorenstam'
p2407
S'Annika'
p2408
tp2409
I528
s(S'Davidson'
p2410
S'Matt'
p2411
tp2412
I888
s(S'Ching'
p2413
S'Alex'
p2414
tp2415
I1228
s(S'Wheeldon'
p2416
S'Riley'
p2417
tp2418
I1671
s(S'Blair'
p2419
S'Zac'
p2420
tp2421
I1855
s(S'Schmitt'
p2422
S'Phil'
p2423
tp2424
I847
s(S'Every'
p2425
S'Matt'
p2426
tp2427
I1028
s(S'Henke'
p2428
S'Nolan'
p2429
tp2430
I67
s(S'Ogilvie'
p2431
S'Joe'
p2432
tp2433
I652
s(S'Fryatt'
p2434
S'Edward'
p2435
tp2436
I310
s(S'Lancaster'
p2437
S'Neal'
p2438
tp2439
I176
s(S'Damron'
p2440
S'Robert'
p2441
tp2442
I303
s(S'MacKellar'
p2443
S'Bryant'
p2444
tp2445
I668
s(S'Chopra'
p2446
S'Daniel'
p2447
tp2448
I639
s(S'Cleland'
p2449
S'Rocky'
p2450
tp2451
I1444
s(S'Olazabal'
p2452
S'Jose Maria'
p2453
tp2454
I179
s(S'Pepperell'
p2455
S'Eddie'
p2456
tp2457
I1831
s(S'Hietala'
p2458
S'Ryan'
p2459
tp2460
I980
s(S'Piercy'
p2461
S'Scott'
p2462
tp2463
I491
s(S'Huber'
p2464
S'Keith'
p2465
tp2466
I855
s(S'Johnson'
p2467
S'Kevin'
p2468
tp2469
I786
s(S'Garrido'
p2470
S'Ignacio'
p2471
tp2472
I332
s(S'Skinns'
p2473
S'David'
p2474
tp2475
I1640
s(S'Castillo, Jr.'
p2476
S'Ron'
p2477
tp2478
I663
s(S'Suppa'
p2479
S'Kyle'
p2480
tp2481
I1875
s(S'Haas'
p2482
S'Jerry'
p2483
tp2484
I570
s(S'Hendrix'
p2485
S'Matt'
p2486
tp2487
I741
s(S'Ten Broeck'
p2488
S'Lance'
p2489
tp2490
I1179
s(S'Takeya'
p2491
S'Yoshitaka'
p2492
tp2493
I1726
s(S'Marshall'
p2494
S'Matt'
p2495
tp2496
I1490
s(S'G\xf3mez'
p2497
S'Fabi\xe1n'
p2498
tp2499
I1466
s(S'DeFrancesco'
p2500
S'Wayne'
p2501
tp2502
I800
s(S'Hattori'
p2503
S'Richard'
p2504
tp2505
I1683
s(S'Kestner'
p2506
S'Darrell'
p2507
tp2508
I574
s(S'Putnam'
p2509
S'Andrew'
p2510
tp2511
I1736
s(S'Lamontagne'
p2512
S'Steve'
p2513
tp2514
I1267
s(S'Rai'
p2515
S'Aaron'
p2516
tp2517
I2081
s(S'Caron'
p2518
S'Jason'
p2519
tp2520
I429
s(S'Kirk'
p2521
g355
tp2522
I1164
s(S'Ferrell'
p2523
S'Jess'
p2524
tp2525
I1620
s(S'Portie'
p2526
S'Ben'
p2527
tp2528
I872
s(S'Kelly'
p2529
S'Shawn'
p2530
tp2531
I232
s(S'Volk'
p2532
S'Dustin'
p2533
tp2534
I1751
s(S'Bates'
p2535
S'Ben'
p2536
tp2537
I1348
s(S'Dougherty'
p2538
S'Ed'
p2539
tp2540
I38
s(S'Lee'
p2541
S'Walker'
p2542
tp2543
I2092
s(S'Glover'
p2544
S'Lucas'
p2545
tp2546
I705
s(S'Golding'
p2547
S'Kevin'
p2548
tp2549
I1885
s(S'Cooke'
p2550
S'Alan'
p2551
tp2552
I2064
s(S'Flynn'
p2553
S'Michael'
p2554
tp2555
I377
s(S'Janneck'
p2556
S'Frederick'
p2557
tp2558
I1945
s(S'Tomasulo'
p2559
S'Peter'
p2560
tp2561
I894
s(S'Wise'
p2562
S'Paul'
p2563
tp2564
I1180
s(S'Baldwin'
p2565
S'Mark'
p2566
tp2567
I1813
s(S'DeForest'
p2568
S'Christopher'
p2569
tp2570
I1516
s(S'Turner'
p2571
S'Jerod'
p2572
tp2573
I1391
s(S'Nicklaus'
p2574
S'Jack'
p2575
tp2576
I97
s(S'Burns'
p2577
S'Bob'
p2578
tp2579
I200
s(S'Imahira'
p2580
S'Shugo'
p2581
tp2582
I2075
s(S'Hart'
p2583
S'Adam'
p2584
tp2585
I1915
s(S'Mickelson'
p2586
S'Phil'
p2587
tp2588
I94
s(S'Bauman'
p2589
S'Doug'
p2590
tp2591
I785
s(S'Olson'
p2592
S'Eddie'
p2593
tp2594
I1448
s(S'Tanner'
p2595
S'Todd'
p2596
tp2597
I846
s(S'DeChambeau'
p2598
S'Bryson'
p2599
tp2600
I1894
s(S'Molinari'
p2601
S'Edoardo'
p2602
tp2603
I983
s(S'Mattiace'
p2604
S'Len'
p2605
tp2606
I90
s(S'Smith'
p2607
S'Scott'
p2608
tp2609
I1526
s(S'Greyserman'
p2610
S'Max'
p2611
tp2612
I2088
s(S'Struver'
p2613
S'Sven'
p2614
tp2615
I632
s(S'Persons'
p2616
S'Josh'
p2617
tp2618
I1670
s(S'Barrett'
p2619
S'Andy'
p2620
tp2621
I755
s(S'van Tonder'
p2622
S'Daniel'
p2623
tp2624
I1833
s(S'Arendell'
p2625
S'Connor'
p2626
tp2627
I1676
s(S'Zackheim'
p2628
S'Eli'
p2629
tp2630
I743
s(S'Byrne'
p2631
S'David'
p2632
tp2633
I1599
s(S'Touma'
p2634
S'Ricky'
p2635
tp2636
I695
s(S'Love IV'
p2637
S'Davis'
p2638
tp2639
I1937
s(S'Baker'
p2640
S'Chris'
p2641
tp2642
I1919
s(S'Main'
p2643
S'Gregor'
p2644
tp2645
I1330
s(S'Gilchrest'
p2646
S'Matt'
p2647
tp2648
I1984
s(S'Schwamkrug'
p2649
S'Victor'
p2650
tp2651
I653
s(S'Yano'
p2652
S'Azuma'
p2653
tp2654
I975
s(S'Fukabori'
p2655
S'Keiichiro'
p2656
tp2657
I640
s(S'Van Aswegen'
p2658
S'Tyrone'
p2659
tp2660
I1719
s(S'Heintz'
p2661
S'Chris'
p2662
tp2663
I727
s(S'Meesawat'
p2664
S'Prom'
p2665
tp2666
I1109
s(S'Pinckney'
p2667
S'Scott'
p2668
tp2669
I1838
s(S'Sonoda'
p2670
S'Shunsuke'
p2671
tp2672
I1472
s(S'McDonald'
p2673
S'Bill'
p2674
tp2675
I1086
s(S'Sluman'
p2676
S'Jeff'
p2677
tp2678
I128
s(S'Wilson'
p2679
S'Dean*'
p2680
tp2681
I726
s(S'Pernice Jr.'
p2682
g450
tp2683
I109
s(S'Lee'
p2684
S'Ki Taek'
p2685
tp2686
I1773
s(S'Williams'
p2687
S'Ryan'
p2688
tp2689
I2055
s(S'Kohles'
p2690
S'Ben'
p2691
tp2692
I1624
s(S'Smith'
p2693
S'Cameron'
p2694
tp2695
I1840
s(S'Moore'
p2696
S'Ryan'
p2697
tp2698
I712
s(S'Blakefield'
p2699
S'Mark'
p2700
tp2701
I1730
s(S'Bjornstad'
p2702
S'Henrik'
p2703
tp2704
I974
s(S'Henry'
p2705
S'J.J.'
p2706
tp2707
I421
s(S'Cantwell, Jr.'
p2708
S'Tim'
p2709
tp2710
I986
s(S'Johnson'
p2711
S'Zach'
p2712
tp2713
I438
s(S'Dawson'
p2714
S'Marco'
p2715
tp2716
I164
s(S'Boisvert'
p2717
S'Robert'
p2718
tp2719
I967
s(S'Smith'
p2720
S'Brian'
p2721
tp2722
I285
s(S'Ellis'
p2723
S'Danny'
p2724
tp2725
I291
s(S'Schwarzrock'
p2726
S'Brent'
p2727
tp2728
I407
s(S'Haas'
p2729
S'Jay'
p2730
tp2731
I60
s(S'Steele'
p2732
S'Brendan'
p2733
tp2734
I1469
s(S'Weaver'
p2735
S'Michael'
p2736
tp2737
I1842
s(S'Russell'
p2738
S'Casey'
p2739
tp2740
I2033
s(S'Rose'
p2741
S'Todd'
p2742
tp2743
I469
s(S'Scott'
p2744
S'Richard'
p2745
tp2746
I556
s(S'Rinker'
p2747
S'Larry'
p2748
tp2749
I119
s(S'Crouch'
p2750
S'Timothy'
p2751
tp2752
I1873
s(S'Saxton'
p2753
S'Reinier'
p2754
tp2755
I1295
s(S'Pastore'
p2756
S'David'
p2757
tp2758
I1871
s(S'Putnam'
p2759
S'Michael'
p2760
tp2761
I921
s(S'Mallinger'
p2762
S'John'
p2763
tp2764
I1013
s(S'Curiel'
p2765
S'Scott'
p2766
tp2767
I766
s(S'Green'
p2768
S'Hunter'
p2769
tp2770
I1781
s(S'Rummings'
p2771
S'Mark'
p2772
tp2773
I1151
s(S'Smith'
p2774
S'Byron'
p2775
tp2776
I1807
s(S'Loftsson'
p2777
S'Olafur'
p2778
tp2779
I1528
s(S'Lenahan'
p2780
S'Ryan'
p2781
tp2782
I1793
s(S'Renfrew'
p2783
S'Cory'
p2784
tp2785
I1571
s(S'Deruntz'
p2786
S'Robert'
p2787
tp2788
I627
s(S'Miller'
p2789
S'Brian'
p2790
tp2791
I1134
s(S'Wilson'
p2792
S'Dean'
p2793
tp2794
I277
s(S'Hampshire'
p2795
S'Travis'
p2796
tp2797
I1478
s(S'Snedeker'
p2798
S'Brandt'
p2799
tp2800
I736
s(S'Sjoholm'
p2801
S'Joel'
p2802
tp2803
I1314
s(S'Kaufman'
p2804
S'Smylie'
p2805
tp2806
I1860
s(S'Wadkins'
p2807
S'Lanny'
p2808
tp2809
I782
s(S'Naegel'
p2810
S'Chris'
p2811
tp2812
I1693
s(S'Duval'
p2813
S'David'
p2814
tp2815
I243
s(S'Lickliter II'
p2816
S'Frank'
p2817
tp2818
I269
s(S'Davis'
p2819
S'Brian'
p2820
tp2821
I374
s(S'Ishikawa'
p2822
S'Ryo'
p2823
tp2824
I1312
s(S'Faidley'
p2825
S'John'
p2826
tp2827
I1799
s(S'Cobb'
p2828
S'Brandon'
p2829
tp2830
I489
s(S'Reilly'
p2831
S'Steven'
p2832
tp2833
I1062
s(S'Jordan'
p2834
S'Pete'
p2835
tp2836
I175
s(S'Newman'
p2837
S'Jack'
p2838
tp2839
I1332
s(S'Chappell'
p2840
S'Kevin'
p2841
tp2842
I1244
s(S'Ilonen'
p2843
S'Mikko'
p2844
tp2845
I1638
s(S'Gray'
p2846
S'Chris'
p2847
tp2848
I1047
s(S'Campbell'
p2849
S'Peter'
p2850
tp2851
I1232
s(S'Floyd'
p2852
S'Raymond'
p2853
tp2854
I1077
s(S'Summerhays'
p2855
S'Joseph'
p2856
tp2857
I1908
s(S'Oda'
p2858
S'John'
p2859
tp2860
I1602
s(S'Cochran'
p2861
S'Russ'
p2862
tp2863
I29
s(S"La'Cassie"
p2864
S'Bronson'
p2865
tp2866
I1127
s(S'Gouveia'
p2867
S'Ricardo'
p2868
tp2869
I1948
s(S'Kelly'
p2870
S'Troy'
p2871
tp2872
I1303
s(S'Wadsworth'
p2873
S'Fred'
p2874
tp2875
I150
s(S'Zanotti'
p2876
S'Fabrizio'
p2877
tp2878
I1724
s(S'Hemmerich'
p2879
S'Chris'
p2880
tp2881
I1782
s(S'Myers II'
p2882
S'Clay'
p2883
tp2884
I1886
s(S'Black'
p2885
S'Ronnie'
p2886
tp2887
I9
s(S'Levin'
p2888
S'Spencer'
p2889
tp2890
I882
s(S'Sutherland'
p2891
g2814
tp2892
I193
s(S'Wilkinson'
p2893
S'Tim'
p2894
tp2895
I475
s(S'Moody'
p2896
S'Chris'
p2897
tp2898
I2101
s(S'Fraustro'
p2899
S'Oscar'
p2900
tp2901
I1812
s(S'Hiratsuka'
p2902
S'Tetsuji'
p2903
tp2904
I673
s(S'Chin'
p2905
S'David'
p2906
tp2907
I1091
s(S'Bland'
p2908
S'Adam'
p2909
tp2910
I1121
s(S'Miyamoto'
p2911
S'Katsumasa'
p2912
tp2913
I1354
s(S'Schoolcraft'
p2914
S'Michael'
p2915
tp2916
I1955
s(S'Colligan'
p2917
S'Dennis'
p2918
tp2919
I702
s(S'Bj\xf8rn'
p2920
S'Thomas'
p2921
tp2922
I266
s(S'Nelson'
p2923
S'John*'
p2924
tp2925
I835
s(S'Taylor'
p2926
S'Vaughn'
p2927
tp2928
I667
s(S'Molinari'
p2929
S'Francesco'
p2930
tp2931
I1283
s(S'Wooding'
p2932
S'Joshua'
p2933
tp2934
I1410
s(S'Crowder'
p2935
S'Rett'
p2936
tp2937
I264
s(S'Riegger'
p2938
S'John'
p2939
tp2940
I118
s(S'Laws'
p2941
S'Peter'
p2942
tp2943
I557
s(S'Hardy'
p2944
S'Nick'
p2945
tp2946
I2048
s(S'Heyn'
p2947
S'Scott'
p2948
tp2949
I706
s(S'Campbell'
p2950
S'Matthew'
p2951
tp2952
I2090
s(S'Kawamura'
p2953
S'Masahiro'
p2954
tp2955
I1731
s(S'Schwab'
p2956
S'Matthias'
p2957
tp2958
I2012
s(S'Ulrich'
p2959
S'Gus'
p2960
tp2961
I1538
s(S'Alexander'
p2962
S'Carl'
p2963
tp2964
I643
s(S'Nirat'
p2965
S'Chapchai'
p2966
tp2967
I1218
s(S'Habig'
p2968
S'Josh'
p2969
tp2970
I995
s(S'Gossett'
p2971
S'David'
p2972
tp2973
I419
s(S'Solomon'
p2974
S'David'
p2975
tp2976
I1965
s(S'Mitchell'
p2977
S'Keith'
p2978
tp2979
I2043
s(S'Newcomb'
p2980
S'Patrick'
p2981
tp2982
I1844
s(S'Ryder'
p2983
S'Sam'
p2984
tp2985
I2079
s(S'Goosen'
p2986
S'Retief'
p2987
tp2988
I321
s(S'McDougall'
p2989
S'Matt'
p2990
tp2991
I464
s(S'Couture'
p2992
S'Rob'
p2993
tp2994
I1625
s(S'Hudson'
p2995
S'Bobby'
p2996
tp2997
I1513
s(S'McLister'
p2998
S'Joey'
p2999
tp3000
I1588
s(S'Kullberg'
p3001
S'Mike'
p3002
tp3003
I486
s(S'Champ'
p3004
S'Cameron'
p3005
tp3006
I2091
s(S'Kribel'
p3007
S'Joel'
p3008
tp3009
I400
s(S"O'Neal"
p3010
S'Michael'
p3011
tp3012
I1399
s(S'Lonard'
p3013
S'Peter'
p3014
tp3015
I348
s(S'Kelly'
p3016
S'Dave'
p3017
tp3018
I1039
s(S'Lynch'
p3019
S'John'
p3020
tp3021
I527
s(S'Burgoon'
p3022
S'Bronson'
p3023
tp3024
I1048
s(S'Janzen'
p3025
S'Lee'
p3026
tp3027
I73
s(S'Lewallen'
p3028
S'Rick'
p3029
tp3030
I1536
s(S'Thompson'
p3031
S'Matt'
p3032
tp3033
I1846
s(S'Healey'
p3034
S'James'
p3035
tp3036
I482
s(S'Van Sickle'
p3037
S'Mike'
p3038
tp3039
I1339
s(S'Ramsay'
p3040
S'Richie'
p3041
tp3042
I1142
s(S'Larrazabal'
p3043
S'Alejandro'
p3044
tp3045
I417
s(S'Forsman'
p3046
S'Dan'
p3047
tp3048
I49
s(S'Saavedra'
p3049
S'Sebastian'
p3050
tp3051
I1725
s(S'Whittaker'
p3052
S'Ron'
p3053
tp3054
I949
s(S'Roesch'
p3055
S'David'
p3056
tp3057
I669
s(S'Grunewald'
p3058
S'Kelly'
p3059
tp3060
I797
s(S'Schnell'
p3061
S'Brady'
p3062
tp3063
I1160
s(S'Woltman'
p3064
S'Dan'
p3065
tp3066
I1251
s(S'Wilson'
p3067
S'Cameron'
p3068
tp3069
I1748
s(S'Hayes'
p3070
g218
tp3071
I66
s(S'Bateman'
p3072
g170
tp3073
I207
s(S'Williams'
p3074
S'Lee'
p3075
tp3076
I1135
s(S'Boner'
p3077
S'Brett'
p3078
tp3079
I857
s(S'Werenski'
p3080
S'Richy'
p3081
tp3082
I1872
s(S'Poston'
p3083
S'J.T.'
p3084
tp3085
I1999
s(S'Hurley III'
p3086
S'Billy'
p3087
tp3088
I1041
s(S'Shelton'
p3089
S'Robby'
p3090
tp3091
I1861
s(S"O'Hair"
p3092
S'Sean'
p3093
tp3094
I853
s(S'Synkelma'
p3095
S'Jay'
p3096
tp3097
I1084
s(S'Gribble'
p3098
S'Cody'
p3099
tp3100
I1696
s(S'Bryan'
p3101
S'Wesley'
p3102
tp3103
I1962
s(S'Oberholser'
p3104
S'Arron'
p3105
tp3106
I347
s(S'Lepak'
p3107
S'John'
p3108
tp3109
I1308
s(S'Rose'
p3110
S'Justin'
p3111
tp3112
I396
s(S'Marchand'
p3113
S'David'
p3114
tp3115
I203
s(S'Ayers'
p3116
S'Dirk'
p3117
tp3118
I647
s(S'Schauffele'
p3119
S'Xander'
p3120
tp3121
I1961
s(S'Morrison'
p3122
S'James'
p3123
tp3124
I1810
s(S'Jewell'
p3125
S'Vince'
p3126
tp3127
I962
s(S'Cable'
p3128
S'GW'
p3129
tp3130
I685
s(S'Carballo'
p3131
S'Miguel Angel'
p3132
tp3133
I1558
s(S'Dunlap'
p3134
S'Scott'
p3135
tp3136
I165
s(S'Schneider'
p3137
S'Cory'
p3138
tp3139
I1311
s(S'Mast'
p3140
S'Dick'
p3141
tp3142
I89
s(S'Gallo'
p3143
S'Kyle'
p3144
tp3145
I544
s(S'Garrity'
p3146
S'Ryan'
p3147
tp3148
I1175
s(S'Rummells'
p3149
S'Dave'
p3150
tp3151
I123
s(S'Bettencourt'
p3152
S'Matt'
p3153
tp3154
I1272
s(S'McNerney'
p3155
S'Mike'
p3156
tp3157
I538
s(S'Bryan'
p3158
S'George'
p3159
tp3160
I595
s(S'Kjeldsen'
p3161
S'S\xf8ren'
p3162
tp3163
I406
s(S'Markle'
p3164
S'David'
p3165
tp3166
I1582
s(S'Maguire'
p3167
S'MJ'
p3168
tp3169
I1881
s(S'Leonard'
p3170
S'Justin'
p3171
tp3172
I262
s(S'Sheehan'
p3173
S'Patrick'
p3174
tp3175
I397
s(S'Sainz Jr'
p3176
S'Carlos'
p3177
tp3178
I1824
s(S'McCumber'
p3179
S'Mark'
p3180
tp3181
I773
s(S'Randolph'
p3182
S'Jonathan'
p3183
tp3184
I1432
s(S'Horgan III'
p3185
S'P.H.'
p3186
tp3187
I770
s(S'Bungert'
p3188
S'John'
p3189
tp3190
I733
s(S'Fleetwood'
p3191
S'Tommy'
p3192
tp3193
I1727
s(S'Inman'
p3194
S'John'
p3195
tp3196
I1535
s(S'Furyk'
p3197
S'Jim'
p3198
tp3199
I258
s(S'Beljan'
p3200
S'Charlie'
p3201
tp3202
I1575
s(S'Mucha'
p3203
S'Bob'
p3204
tp3205
I597
s(S'Price'
p3206
S'Rick'
p3207
tp3208
I1269
s(S'Sutton'
p3209
S'Fred'
p3210
tp3211
I422
s(S'Lemke'
p3212
S'Niklas'
p3213
tp3214
I1118
s(S'Broberg'
p3215
S'Kristoffer'
p3216
tp3217
I1931
s(S'Schultz'
p3218
S'Jason'
p3219
tp3220
I961
s(S'Romero'
p3221
S'Eduardo'
p3222
tp3223
I122
s(S'Martin'
p3224
S'Jeff'
p3225
tp3226
I757
s(S'Hakes'
p3227
S'Steven'
p3228
tp3229
I891
s(S'Frost'
p3230
S'Charles'
p3231
tp3232
I1660
s(S'Noren'
p3233
S'Alexander'
p3234
tp3235
I1372
s(S'Beyer'
p3236
S'Cody'
p3237
tp3238
I524
s(S'Haas'
p3239
S'Bill'
p3240
tp3241
I461
s(S'Hebert'
p3242
S'Michael'
p3243
tp3244
I1769
s(S'Hnatiuk'
p3245
S'Glen'
p3246
tp3247
I235
s(S'Hutchins'
p3248
S'Jesse'
p3249
tp3250
I1723
s(S'Haley II'
p3251
S'Paul'
p3252
tp3253
I1601
s(S'Nazareth'
p3254
S'Savio'
p3255
tp3256
I1220
s(S'Peacock'
p3257
S'Oliver'
p3258
tp3259
I2030
s(S'Barron'
p3260
S'Derek'
p3261
tp3262
I2078
s(S'Westwood'
p3263
S'Lee'
p3264
tp3265
I326
s(S'Harvey'
p3266
S'Scott'
p3267
tp3268
I2084
s(S'Overton'
p3269
S'Jay'
p3270
tp3271
I578
s(S'Honeck'
p3272
S'Creighton'
p3273
tp3274
I1496
s(S'Goss'
p3275
S'Oliver'
p3276
tp3277
I1755
s(S'Norris'
p3278
S'Shaun'
p3279
tp3280
I2102
s(S'Scaletta'
p3281
S'Paul'
p3282
tp3283
I1636
s(S'Vargas'
p3284
S'James'
p3285
tp3286
I1712
s(S'Burns'
p3287
S'Sam'
p3288
tp3289
I1883
s(S'Banks'
p3290
S'Eric'
p3291
tp3292
I1705
s(S'Hoffman'
p3293
S'Charley'
p3294
tp3295
I288
s(S'Crim'
p3296
S'Rich'
p3297
tp3298
I545
s(S'Grisette'
p3299
S'Uly'
p3300
tp3301
I596
s(S'Rodriguez'
p3302
S'Jose de Jesus'
p3303
tp3304
I1477
s(S'Olson'
p3305
S'Blake'
p3306
tp3307
I1953
s(S'Thomson'
p3308
S'Oliver'
p3309
tp3310
I984
s(S'Matthews'
p3311
S'Andrew'
p3312
tp3313
I1110
s(S'Thompson'
p3314
S'Chris'
p3315
tp3316
I1708
s(S'Baryla'
p3317
S'Chris'
p3318
tp3319
I535
s(S'Boyd'
p3320
S'Bob'
p3321
tp3322
I765
s(S'Aiken'
p3323
S'Thomas'
p3324
tp3325
I1282
s(S'Taylor'
p3326
S'Ben'
p3327
tp3328
I1963
s(S'Driscoll'
p3329
S'James'
p3330
tp3331
I842
s(S'Coceres'
p3332
S'Jose'
p3333
tp3334
I306
s(S'Stanley'
p3335
S'Jon'
p3336
tp3337
I1540
s(S'Fox'
p3338
S'Steven'
p3339
tp3340
I1682
s(S'Kelly'
p3341
S'Sean'
p3342
tp3343
I2019
s(S'Baker'
p3344
S'Mike'
p3345
tp3346
I598
s(S'Godwin'
p3347
S'John'
p3348
tp3349
I260
s(S'Corcoran'
p3350
S'Rob'
p3351
tp3352
I1709
s(S'Obremski'
p3353
S'Daniel'
p3354
tp3355
I1701
s(S'Webb'
p3356
S'Brennan'
p3357
tp3358
I1377
s(S'Smith'
p3359
S'Stuart'
p3360
tp3361
I892
s(S'Sposa'
p3362
S'Mike'
p3363
tp3364
I268
s(S'Lowery'
p3365
g98
tp3366
I83
s(S'Cazaubon'
p3367
S'Rodolfo'
p3368
tp3369
I1946
s(S'Estes'
p3370
g2578
tp3371
I42
s(S'Rohlik'
p3372
S'Tony'
p3373
tp3374
I512
s(S'Duncan'
p3375
S'Brian'
p3376
tp3377
I1396
s(S'Johnson'
p3378
S'Michael'
p3379
tp3380
I1924
s(S'Marshall'
p3381
S'Ian'
p3382
tp3383
I1618
s(S'Reader'
p3384
S'Jeff'
p3385
tp3386
I1192
s(S'Knutzon'
p3387
S'Jason'
p3388
tp3389
I861
s(S'Ogrin'
p3390
S'David'
p3391
tp3392
I101
s(S'Campbell'
p3393
S'Chad'
p3394
tp3395
I276
s(S'Karlsson'
p3396
S'Jeff'
p3397
tp3398
I1922
s(S'Lee'
p3399
S'Richard*'
p3400
tp3401
I1592
s(S'Park'
p3402
S'Jae-bum'
p3403
tp3404
I1467
s(S'Flint'
p3405
S'Gavin'
p3406
tp3407
I885
s(S'Moore'
p3408
S'Taylor'
p3409
tp3410
I1974
s(S'Toulson'
p3411
S'Chris'
p3412
tp3413
I211
s(S'Stenson'
p3414
S'Henrik'
p3415
tp3416
I829
s(S'Wie'
p3417
S'Michelle'
p3418
tp3419
I718
s(S'Green'
p3420
S'Gavin Kyle'
p3421
tp3422
I2039
s(S'Thomas'
p3423
S'Justin'
p3424
tp3425
I1337
s(S'Stadler'
p3426
S'Craig'
p3427
tp3428
I132
s(S'Koepka'
p3429
S'Chase'
p3430
tp3431
I2016
s(S'Friend'
p3432
S'Bob'
p3433
tp3434
I51
s(S'McCorkle'
p3435
S'Todd'
p3436
tp3437
I1797
s(S'Jensen'
p3438
S'Clint'
p3439
tp3440
I672
s(S'Friesen'
p3441
S'Steve'
p3442
tp3443
I701
s(S'Muthiya'
p3444
S'Madalitso'
p3445
tp3446
I1031
s(S'Skayhan'
p3447
S'Ron'
p3448
tp3449
I270
s(S'Aldridge'
p3450
S'Tyler'
p3451
tp3452
I1307
s(S'Joyner'
p3453
S'Randy'
p3454
tp3455
I871
s(S'Bunker'
p3456
S'Dave'
p3457
tp3458
I1436
s(S'Lankford'
p3459
S'Jeffrey'
p3460
tp3461
I77
s(S'Hogarth'
p3462
S'Tim'
p3463
tp3464
I1083
s(S'Nutt'
p3465
S'Bret'
p3466
tp3467
I1635
s(S'Khan'
p3468
S'Simon'
p3469
tp3470
I1362
s(S'Castillo'
p3471
S'Ron'
p3472
tp3473
I170
s(S'Holtby'
p3474
S'Paul'
p3475
tp3476
I614
s(S'Justesen'
p3477
S'Erick'
p3478
tp3479
I1397
s(S'Fiori'
p3480
S'Ed'
p3481
tp3482
I566
s(S'Smith'
p3483
S'Robin'
p3484
tp3485
I1259
s(S'Jones'
p3486
S'Brett'
p3487
tp3488
I1808
s(S'Burns'
p3489
S'George'
p3490
tp3491
I564
s(S'Fitzpatrick'
p3492
S'Matthew'
p3493
tp3494
I1762
s(S'Dartnall'
p3495
S'Steve'
p3496
tp3497
I1309
s(S'Villegas'
p3498
S'Manuel'
p3499
tp3500
I1390
s(S'Reifers'
p3501
S'Kyle'
p3502
tp3503
I1058
s(S'Yarnes'
p3504
S'David'
p3505
tp3506
I899
s(S'Dell'
p3507
S'David'
p3508
tp3509
I216
s(S'Lam'
p3510
S'Chih-Bing'
p3511
tp3512
I1285
s(S'Lee'
p3513
S'Regan'
p3514
tp3515
I519
s(S'Chin'
p3516
S'John'
p3517
tp3518
I1431
s(S'Sanders'
p3519
S'Andy'
p3520
tp3521
I498
s(S'Borchert'
p3522
S'Matthew'
p3523
tp3524
I1318
s(S'Sellers'
p3525
S'Kelly'
p3526
tp3527
I1197
s(S'Johnson'
p3528
S'Richard'
p3529
tp3530
I497
s(S'Peck'
p3531
S'Cameron'
p3532
tp3533
I1258
s(S'Woodard'
p3534
S'Stephen'
p3535
tp3536
I494
s(S'Seiffert'
p3537
S'Chase'
p3538
tp3539
I1695
s(S'Neher'
p3540
S'Jamie'
p3541
tp3542
I664
s(S'Uresti'
p3543
S'Omar'
p3544
tp3545
I602
s(S'Bramlett'
p3546
S'Joseph'
p3547
tp3548
I1426
s(S'Cabra'
p3549
S'Zach'
p3550
tp3551
I2034
s(S'Sessler'
p3552
S'Chris'
p3553
tp3554
I522
s(S'Faxon'
p3555
S'Brad'
p3556
tp3557
I45
s(S'Pan'
p3558
S'Cheng Tsung'
p3559
tp3560
I1811
s(S'Campbell'
p3561
S'Brian'
p3562
tp3563
I1863
s(S'Otte'
p3564
S'Preston'
p3565
tp3566
I1530
s(S'Lovemark'
p3567
S'Jamie'
p3568
tp3569
I1057
s(S'Wright'
p3570
S'Chase'
p3571
tp3572
I1630
s(S'Le\xf3n'
p3573
S'Hugo'
p3574
tp3575
I1324
s(S'Ruiz'
p3576
S'Johnny'
p3577
tp3578
I2059
s(S'Miller'
p3579
S'Brad'
p3580
tp3581
I1851
s(S'Personett'
p3582
S'Loren'
p3583
tp3584
I606
s(S'Martin'
p3585
S'Ben'
p3586
tp3587
I1488
s(S'Holland'
p3588
S'Charlie'
p3589
tp3590
I1688
s(S'Vincent'
p3591
S'Scott'
p3592
tp3593
I1825
s(S'Garrick'
p3594
S'Jonathan'
p3595
tp3596
I2010
s(S'Campos'
p3597
S'Rafael'
p3598
tp3599
I1914
s(S'Quinney'
p3600
S'Jeff'
p3601
tp3602
I472
s(S'Olson'
p3603
S'Jeff'
p3604
tp3605
I1829
s(S'Perks'
p3606
g653
tp3607
I265
s(S'Alexander'
p3608
S'Lonny'
p3609
tp3610
I739
s(S'Taylor'
p3611
g355
tp3612
I1171
s(S'Hamilton'
p3613
S'Todd'
p3614
tp3615
I63
s(S'Gilchrist'
p3616
S'Nate'
p3617
tp3618
I1068
s(S'Lamb'
p3619
S'Rick'
p3620
tp3621
I1997
s(S'Anderson'
p3622
S'Josh'
p3623
tp3624
I1327
s(S'Hoag'
p3625
S'Bo'
p3626
tp3627
I1581
s(S'Fasth'
p3628
S'Niclas'
p3629
tp3630
I341
s(S'Little II'
p3631
S'John'
p3632
tp3633
I1418
s(S'Zylstra'
p3634
S'Ryan'
p3635
tp3636
I1702
s(S'Maltbie'
p3637
S'Roger'
p3638
tp3639
I576
s(S'Love'
p3640
S'Dru'
p3641
tp3642
I1937
s(S'Snyder III'
p3643
S'Joey'
p3644
tp3645
I831
s(S'Lee'
p3646
S'Jun Hak'
p3647
tp3648
I1837
s(S'Broce'
p3649
S'Jamie'
p3650
tp3651
I1710
s(S'Quiros'
p3652
S'Alvaro'
p3653
tp3654
I1291
s(S'Alvarado'
p3655
S'Benjamin'
p3656
tp3657
I1475
s(S'Ackerman'
p3658
S'Bob'
p3659
tp3660
I562
s(S'Mu\xf1oz'
p3661
S'Sebasti\xe1n'
p3662
tp3663
I1998
s(S'Walewski'
p3664
S'Trey'
p3665
tp3666
I546
s(S'McCarthy'
p3667
S'Denny'
p3668
tp3669
I1959
s(S'Lemon'
p3670
S'Jim'
p3671
tp3672
I278
s(S'Fathauer'
p3673
S'Derek'
p3674
tp3675
I1173
s(S'Barcelo'
p3676
S'Rich'
p3677
tp3678
I674
s(S'McNealy'
p3679
S'Maverick'
p3680
tp3681
I1862
s(S'Norman'
p3682
S'Brian'
p3683
tp3684
I1794
s(S'Laird'
p3685
S'Martin'
p3686
tp3687
I1215
s(S'Boros'
p3688
S'Guy'
p3689
tp3690
I172
s(S'Johnson'
p3691
S'Mark'
p3692
tp3693
I357
s(S'Cauley'
p3694
S'Bud'
p3695
tp3696
I1415
s(S'Aragon'
p3697
S'Alex'
p3698
tp3699
I1004
s(S'Dougherty'
p3700
S'Nick'
p3701
tp3702
I442
s(S'Purtzer'
p3703
S'Tom'
p3704
tp3705
I776
s(S'Anderson'
p3706
S'Mark'
p3707
tp3708
I1333
s(S'Sill'
p3709
S'Brad'
p3710
tp3711
I2072
s(S'Potter, Jr.'
p3712
S'Ted'
p3713
tp3714
I1556
s(S'Tateyama'
p3715
S'Mitsuhiro'
p3716
tp3717
I1196
s(S'Greenwood'
p3718
S'Chris'
p3719
tp3720
I295
s(S'Arvold'
p3721
S'Tony'
p3722
tp3723
I542
s(S'Demattia'
p3724
S'Constant'
p3725
tp3726
I802
s(S'Wassem'
p3727
S'Heath'
p3728
tp3729
I625
s(S'Wiebe'
p3730
S'Gunner'
p3731
tp3732
I1408
s(S'Ciesielski'
p3733
S'Victor'
p3734
tp3735
I1076
s(S'Laudien'
p3736
S'Mike'
p3737
tp3738
I944
s(S'Kim'
p3739
S'Chan'
p3740
tp3741
I2077
s(S'Chawrasia'
p3742
S'SSP'
p3743
tp3744
I1200
s(S'Pullen'
p3745
S'Craig'
p3746
tp3747
I1156
s(S'McDonald'
p3748
S'Bruce'
p3749
tp3750
I947
s(S'Spallone'
p3751
S'Sal'
p3752
tp3753
I526
s(S'Paquet'
p3754
S'Brett'
p3755
tp3756
I694
s(S'Reed'
p3757
S'Curtis'
p3758
tp3759
I1954
s(S'Strange'
p3760
S'Scott'
p3761
tp3762
I1195
s(S'Love'
p3763
S'James'
p3764
tp3765
I1017
s(S'Templeton'
p3766
S'Jeff'
p3767
tp3768
I1413
s(S'Lowry'
p3769
S'Randy'
p3770
tp3771
I1647
s(S'Larsen'
p3772
S'Kevin'
p3773
tp3774
I1319
s(S'Micheel'
p3775
S'Shaun'
p3776
tp3777
I186
s(S'Garnett'
p3778
S'Brice'
p3779
tp3780
I1722
s(S'Mahan'
p3781
S'Hunter'
p3782
tp3783
I457
s(S'Mauchaza'
p3784
S'Nyasha'
p3785
tp3786
I1529
s(S'Durkin'
p3787
S'Kevin'
p3788
tp3789
I703
s(S'Warren'
p3790
S'Charles'
p3791
tp3792
I420
s(S'Sneve'
p3793
S'J.B.'
p3794
tp3795
I591
s(S'Pohl'
p3796
S'Dan'
p3797
tp3798
I113
s(S'Tway'
p3799
S'Kevin'
p3800
tp3801
I1479
s(S'Marksaeng'
p3802
S'Prayad'
p3803
tp3804
I1189
s(S'Laing'
p3805
S'Jason'
p3806
tp3807
I740
s(S'Poulter'
p3808
S'Ian'
p3809
tp3810
I439
s(S'Johnson'
p3811
S'Andrew'
p3812
tp3813
I1102
s(S'Day'
p3814
S'Jason'
p3815
tp3816
I1027
s(S'Moe'
p3817
S'Kris'
p3818
tp3819
I96
s(S'Reavie'
p3820
S'Chez'
p3821
tp3822
I709
s(S'Barranger'
p3823
g2311
tp3824
I282
s(S'Zunic'
p3825
S'Jordan'
p3826
tp3827
I1925
s(S'Sturgeon'
p3828
S'Grant'
p3829
tp3830
I1820
s(S'Stone'
p3831
S'Brandon'
p3832
tp3833
I1926
s(S'Cayeux'
p3834
S'Marc'
p3835
tp3836
I834
s(S'Lipsky'
p3837
S'David'
p3838
tp3839
I1841
s(S'Bernakevitch'
p3840
S'Lindsay'
p3841
tp3842
I559
s(S'Veazey'
p3843
S'Vance'
p3844
tp3845
I290
s(S'Boudreau'
p3846
S'Ben'
p3847
tp3848
I1393
s(S'Leaney'
p3849
S'Stephen'
p3850
tp3851
I325
s(S'Thompson'
p3852
S'Kyle'
p3853
tp3854
I398
s(S'Knox'
p3855
S'Kenny'
p3856
tp3857
I575
s(S"O'Hern"
p3858
S'Nick'
p3859
tp3860
I657
s(S'Blean'
p3861
S'Bob'
p3862
tp3863
I201
s(S'Sutter'
p3864
S'Tom'
p3865
tp3866
I815
s(S'Robledo'
p3867
S'Roman'
p3868
tp3869
I2083
s(S'Kingston'
p3870
S'James'
p3871
tp3872
I1185
s(S'Nash'
p3873
S'Simon'
p3874
tp3875
I543
s(S'Hayes'
p3876
S'J.P.'
p3877
tp3878
I234
s(S'Peoples'
p3879
S'David'
p3880
tp3881
I108
s(S'Popovic'
p3882
S'Daniel'
p3883
tp3884
I1674
s(S'Kite'
p3885
S'Tom'
p3886
tp3887
I772
s(S'Goff'
p3888
S'Drew'
p3889
tp3890
I2038
s(S'Shindler'
p3891
S'Conrad'
p3892
tp3893
I1687
s(S'Schultz'
p3894
S'Dave'
p3895
tp3896
I1306
s(S'Siem'
p3897
S'Marcel'
p3898
tp3899
I670
s(S'Buha'
p3900
S'Jason'
p3901
tp3902
I444
s(S'Spaun'
p3903
S'J.J.'
p3904
tp3905
I1850
s(S'Walker'
p3906
S'Andy'
p3907
tp3908
I1551
s(S'Alker'
p3909
S'Steven'
p3910
tp3911
I355
s(g2792
S'Mark'
p3912
tp3913
I378
s(S'Cappelen'
p3914
S'Sebastian'
p3915
tp3916
I1828
s(S'Fisher'
p3917
S'Ross'
p3918
tp3919
I1214
s(S'Nosler'
p3920
S'Brian'
p3921
tp3922
I873
s(S'Rumford'
p3923
S'Brett'
p3924
tp3925
I677
s(S'Briggs'
p3926
S'Danny'
p3927
tp3928
I15
s(S'Atwal'
p3929
S'Arjun'
p3930
tp3931
I367
s(S'Brown'
p3932
S'Charlie'
p3933
tp3934
I629
s(S'Boyd'
p3935
S'Michael'
p3936
tp3937
I1107
s(S'Ramey'
p3938
S'Kyle'
p3939
tp3940
I2017
s(S'Littrell'
p3941
S'Don'
p3942
tp3943
I1768
s(S'Baillargeon'
p3944
S'Graham'
p3945
tp3946
I1320
s(S'Hoffmann'
p3947
S'Morgan'
p3948
tp3949
I1489
s(S'DeCorso'
p3950
S'Bryan'
p3951
tp3952
I1183
s(S'Hayashi'
p3953
S'Kevin'
p3954
tp3955
I633
s(S'Johnson'
p3956
S'Richard*'
p3957
tp3958
I977
s(S'Bourdy'
p3959
S'Gregory'
p3960
tp3961
I1008
s(S'Lewis'
p3962
S'Tom'
p3963
tp3964
I1591
s(S'Klauk'
p3965
g1815
tp3966
I453
s(S'Quinn'
p3967
S'Fran'
p3968
tp3969
I1177
s(S'Hahn'
p3970
S'John'
p3971
tp3972
I1941
s(S'Wayment'
p3973
S'Brett'
p3974
tp3975
I964
s(S'Andersen'
p3976
S'Mason'
p3977
tp3978
I2089
s(S'Bierkan'
p3979
S'John'
p3980
tp3981
I1429
s(S'Fehr'
p3982
S'Rick'
p3983
tp3984
I46
s(S'Kittleson'
p3985
S'Drew'
p3986
tp3987
I1483
s(S'Ferrier'
p3988
S'Branson'
p3989
tp3990
I1973
s(S'Ota'
p3991
S'Jonathan'
p3992
tp3993
I708
s(S'Fox'
p3994
S'Ryan'
p3995
tp3996
I2095
s(S'Bjorn'
p3997
S'Thomas'
p3998
tp3999
I266
s(S'McCabe'
p4000
S'Michael'
p4001
tp4002
I1656
s(S'Fields'
p4003
S'Jack'
p4004
tp4005
I1677
s(S'Wallace'
p4006
S'Matt'
p4007
tp4008
I2085
s(S'Carroll'
p4009
S'Brian'
p4010
tp4011
I1249
s(S'Tentis'
p4012
S'David'
p4013
tp4014
I1706
s(S'Hinkle'
p4015
S'Lon'
p4016
tp4017
I929
s(S'Martin'
p4018
S'Casey'
p4019
tp4020
I631
s(S'Geyer'
p4021
S'Ben'
p4022
tp4023
I1951
s(S'Lynn'
p4024
S'David'
p4025
tp4026
I1633
s(S'Henley'
p4027
S'Kip'
p4028
tp4029
I787
s(S'Quigley'
p4030
S'Brett'
p4031
tp4032
I219
s(S'Nitties'
p4033
S'James'
p4034
tp4035
I1287
s(S'Hammond'
p4036
S'Donnie'
p4037
tp4038
I64
s(S'Zalatoris'
p4039
S'Will'
p4040
tp4041
I1882
s(S'Langer'
p4042
S'Bernhard'
p4043
tp4044
I76
s(S'Imada'
p4045
S'Ryuji'
p4046
tp4047
I366
s(S'Kuboya'
p4048
S'Kenichi'
p4049
tp4050
I361
s(S'Hui'
p4051
S'Phillip'
p4052
tp4053
I1609
s(S'Austin'
p4054
S'Woody'
p4055
tp4056
I223
s(S'Burt'
p4057
S'Keith'
p4058
tp4059
I1038
s(S'Leggatt'
p4060
S'Ian'
p4061
tp4062
I253
s(S'McCann'
p4063
S'Brian'
p4064
tp4065
I1006
s(S'Fritz'
p4066
S'Nathan'
p4067
tp4068
I713
s(S'Blackburn'
p4069
S'Woody'
p4070
tp4071
I10
s(S'Williamson'
p4072
S'Eric'
p4073
tp4074
I1795
s(S'Summerhays'
p4075
S'Boyd'
p4076
tp4077
I628
s(S'Bailey'
p4078
S'Cliff'
p4079
tp4080
I941
s(S'Jonzon'
p4081
S'Michael'
p4082
tp4083
I1355
s(S'Tidland'
p4084
S'Chris'
p4085
tp4086
I811
s(S'Fulke'
p4087
S'Pierre'
p4088
tp4089
I353
s(S'Walker'
p4090
S'Mark'
p4091
tp4092
I465
s(S'Tsukada'
p4093
S'Yosuke'
p4094
tp4095
I1920
s(S"O'Neal"
p4096
S'Timothy'
p4097
tp4098
I840
s(S'McLachlin'
p4099
S'Parker'
p4100
tp4101
I990
s(S'Williamson'
p4102
S'Lee'
p4103
tp4104
I1011
s(S'Brown'
p4105
S'Hunter'
p4106
tp4107
I1765
s(S'Bescansa'
p4108
S'Ramon'
p4109
tp4110
I735
s(S'Kendall'
p4111
S'Skip'
p4112
tp4113
I75
s(S'Gligic'
p4114
S'Michael'
p4115
tp4116
I1578
s(S'Beach'
p4117
S'Alexander'
p4118
tp4119
I2098
s(S'Tanihara'
p4120
S'Hideto'
p4121
tp4122
I646
s(S'Smith'
p4123
g800
tp4124
I129
s(S'Hicks'
p4125
S'Justin'
p4126
tp4127
I1230
s(S'Graziosa'
p4128
S'Frank'
p4129
tp4130
I756
s(S'Hutchison'
p4131
S'Randall'
p4132
tp4133
I1344
s(S'Oh'
p4134
g4034
tp4135
I1288
s(S'McQuillan'
p4136
S'Matt'
p4137
tp4138
I1461
s(S'Huh'
p4139
g2859
tp4140
I1586
s(S'Kapur'
p4141
S'Shiv'
p4142
tp4143
I1021
s(S'Vecellio'
p4144
S'Steve'
p4145
tp4146
I754
s(S'Gomez'
p4147
S'Jaime'
p4148
tp4149
I788
s(S'Mechereffe'
p4150
S'Fernando'
p4151
tp4152
I1310
s(S'Pappas'
p4153
S'Deane'
p4154
tp4155
I246
s(S'Castro'
p4156
S'Roberto'
p4157
tp4158
I1239
s(S'Small'
p4159
S'Mike'
p4160
tp4161
I217
s(S'Rodriguez'
p4162
S'Anthony'
p4163
tp4164
I1452
s(S'List'
p4165
S'Luke'
p4166
tp4167
I1128
s(S'Knight'
p4168
S'Michael'
p4169
tp4170
I1247
s(S'Standly'
p4171
S'Mike'
p4172
tp4173
I133
s(S'Mason'
p4174
S'John'
p4175
tp4176
I319
s(S'Allard'
p4177
S'Ken'
p4178
tp4179
I185
s(S'Rock'
p4180
S'Robert'
p4181
tp4182
I1553
s(S'Walter'
p4183
S'Ben'
p4184
tp4185
I950
s(S'Tabuena'
p4186
S'Miguel'
p4187
tp4188
I1593
s(S'Clark'
p4189
S'Wyndham'
p4190
tp4191
I2050
s(S'Johansson'
p4192
S'Per-Ulrik'
p4193
tp4194
I237
s(S'Dahmen'
p4195
S'Joel'
p4196
tp4197
I1735
s(S'Maness'
p4198
S'Michael'
p4199
tp4200
I1543
s(S'Parr'
p4201
S'Andrew'
p4202
tp4203
I1166
s(S'Hutton'
p4204
S'Brian'
p4205
tp4206
I1449
s(S'Parnevik'
p4207
S'Jesper'
p4208
tp4209
I281
s(S'Cole'
p4210
S'Eli'
p4211
tp4212
I1796
s(S'Keymont'
p4213
S'Mike'
p4214
tp4215
I1350
s(S'Park'
p4216
S'Myung Jun'
p4217
tp4218
I724
s(S'Villegas'
p4219
S'Camilo'
p4220
tp4221
I745
s(S'Weir'
p4222
S'Mike'
p4223
tp4224
I251
s(S'Ishii'
p4225
S'David'
p4226
tp4227
I572
s(S'Remesy'
p4228
S'Jean-Francois'
p4229
tp4230
I680
s(S'Stewart'
p4231
S'Hunter'
p4232
tp4233
I1776
s(S'Hebert'
p4234
S'Scott'
p4235
tp4236
I1103
s(S'Garrison'
p4237
S'Jim'
p4238
tp4239
I924
s(S'Jarosch'
p4240
S'Barrett'
p4241
tp4242
I1380
s(S'Dodson'
p4243
S'Will'
p4244
tp4245
I897
s(S'Baker-Finch'
p4246
S'Ian'
p4247
tp4248
I1263
s(S'Bean'
p4249
S'Andy'
p4250
tp4251
I5
s(S'Howell III'
p4252
S'Charles'
p4253
tp4254
I380
s(S'Brun'
p4255
S'Julien'
p4256
tp4257
I1752
s(S'Gallacher'
p4258
g1675
tp4259
I819
s(S'Oppenheim'
p4260
S'Rob'
p4261
tp4262
I1022
s(S'Kim'
p4263
S'Sunny'
p4264
tp4265
I1406
s(S'Whitsett'
p4266
S'Cory'
p4267
tp4268
I1845
s(S'March'
p4269
S'Gary'
p4270
tp4271
I227
s(S'Guerrero'
p4272
S'Estanislao'
p4273
tp4274
I1412
s(S'Norris'
p4275
S'Paul'
p4276
tp4277
I1539
s(S'Mediate'
p4278
S'Rocco'
p4279
tp4280
I93
s(S'Gordon'
p4281
S'Scott'
p4282
tp4283
I1463
s(S'Sullivan'
p4284
S'Andy'
p4285
tp4286
I1836
s(S'Gogel'
p4287
g545
tp4288
I248
s(S'Isley'
p4289
S'Steve'
p4290
tp4291
I1087
s(S'Bray'
p4292
S'Dustin'
p4293
tp4294
I1720
s(S'Randhawa'
p4295
S'Jyoti'
p4296
tp4297
I384
s(S'Gregory'
p4298
S'Scott'
p4299
tp4300
I2026
s(S'Heath'
p4301
S'Rick'
p4302
tp4303
I368
s(S'James'
p4304
S'Austin'
p4305
tp4306
I2058
s(S'Halldorson'
p4307
S'Dan'
p4308
tp4309
I62
s(S'Gatto'
p4310
S'CJ'
p4311
tp4312
I1822
s(S'Gardiner'
p4313
S'Scott'
p4314
tp4315
I1637
s(S'Olesen'
p4316
S'Thorbjorn'
p4317
tp4318
I1663
s(S'Romero'
p4319
S'Andres'
p4320
tp4321
I1116
s(S'Jones'
p4322
S'Matt'
p4323
tp4324
I869
s(S'Sanders'
p4325
S'Derek'
p4326
tp4327
I603
s(S'Staton'
p4328
S'Kenneth'
p4329
tp4330
I416
s(S'Gortana'
p4331
S'Marco'
p4332
tp4333
I816
s(S'Beck'
p4334
S'Chip'
p4335
tp4336
I6
s(S'Brauer'
p4337
S'Scott'
p4338
tp4339
I503
s(S'Patton'
p4340
S'Chris'
p4341
tp4342
I183
s(S'Schwartzel'
p4343
S'Charl'
p4344
tp4345
I870
s(S'Mulroy'
p4346
S'Garth'
p4347
tp4348
I1293
s(S'Miller'
p4349
S'Lindy'
p4350
tp4351
I774
s(S'Wittenberg'
p4352
S'Casey'
p4353
tp4354
I501
s(S'Proehl'
p4355
S'Chad'
p4356
tp4357
I1250
s(S'Mabrey'
p4358
S'Matt'
p4359
tp4360
I1958
s(S'Cassini'
p4361
S'Nick'
p4362
tp4363
I707
s(S'Barlow'
p4364
S'Craig'
p4365
tp4366
I300
s(S'Stieren'
p4367
S'Tim'
p4368
tp4369
I1045
s(S'Garmendia'
p4370
S'Alejandro'
p4371
tp4372
I1607
s(S'Leaver'
p4373
S'Grant'
p4374
tp4375
I1405
s(S'Izawa'
p4376
S'Toshi'
p4377
tp4378
I259
s(S'Botsford'
p4379
S'Chris'
p4380
tp4381
I746
s(S'Burns'
p4382
S'Steve'
p4383
tp4384
I704
s(S'Christian'
p4385
S'Gary'
p4386
tp4387
I1542
s(S'Crawford'
p4388
S'Christopher'
p4389
tp4390
I2086
s(S'Levi'
p4391
S'Wayne'
p4392
tp4393
I79
s(S'Ernst'
p4394
S'Derek'
p4395
tp4396
I1629
s(S'Wood'
p4397
g3601
tp4398
I523
s(S'Adams'
p4399
S'Blake'
p4400
tp4401
I1378
s(S'Watson'
p4402
S'Tom'
p4403
tp4404
I584
s(S'Scriven'
p4405
S'Jacob'
p4406
tp4407
I1256
s(S'Harris'
p4408
S'Ty'
p4409
tp4410
I1165
s(S'Beale'
p4411
S'James'
p4412
tp4413
I1884
s(S'Huxman'
p4414
S'Greg'
p4415
tp4416
I1521
s(S'Matsumura'
p4417
S'Michio'
p4418
tp4419
I1474
s(S'Miyazato'
p4420
S'Kiyoshi'
p4421
tp4422
I481
s(S'Toledo'
p4423
S'Esteban'
p4424
tp4425
I168
s(S'Haefner'
p4426
S'Kevin'
p4427
tp4428
I714
s(S'Aphibarnrat'
p4429
S'Kiradech'
p4430
tp4431
I1648
s(S'Hamilton'
p4432
S'Robert'
p4433
tp4434
I466
s(S'Willett'
p4435
S'Danny'
p4436
tp4437
I1574
s(S'Black'
p4438
S'Mark'
p4439
tp4440
I764
s(S'Taylor'
p4441
S'Nick'
p4442
tp4443
I1201
s(S'Kok'
p4444
S'Johan'
p4445
tp4446
I1714
s(S'Garrigus'
p4447
S'Robert'
p4448
tp4449
I989
s(S'Takayama'
p4450
S'Junpei'
p4451
tp4452
I1292
s(S'Cabrera'
p4453
S'Angel'
p4454
tp4455
I359
s(S'Maurer'
p4456
S'Brian'
p4457
tp4458
I1518
s(S'Saraceno'
p4459
S'Tony'
p4460
tp4461
I1265
s(S'Carnevale'
p4462
S'Mark'
p4463
tp4464
I215
s(S'Letzig'
p4465
S'Michael'
p4466
tp4467
I1206
s(S'Taniguchi'
p4468
S'Takuya'
p4469
tp4470
I864
s(S'Henderson'
p4471
S'Scott'
p4472
tp4473
I364
s(S'Doherty'
p4474
S'Greg'
p4475
tp4476
I1579
s(S'Velasquez'
p4477
S'Diego'
p4478
tp4479
I1587
s(S'Rottluff'
p4480
S'Max'
p4481
tp4482
I2004
s(S"O'Grady"
p4483
S'Mac'
p4484
tp4485
I577
s(S'Collins'
p4486
S'Steve'
p4487
tp4488
I879
s(S'Price'
p4489
S'Nick'
p4490
tp4491
I114
s(S'Sutterfield'
p4492
S'Brad'
p4493
tp4494
I622
s(S'Goggin'
p4495
S'Mathew'
p4496
tp4497
I340
s(S'Roos'
p4498
S'Jake'
p4499
tp4500
I1217
s(S'Dunne'
p4501
S'Paul'
p4502
tp4503
I1947
s(S'Baek'
p4504
S'Todd'
p4505
tp4506
I1652
s(S'Lin'
p4507
S'Wen-Tang'
p4508
tp4509
I1299
s(S'Wilson'
p4510
S'Chris'
p4511
tp4512
I1289
s(S'Sucher'
p4513
S'Zack'
p4514
tp4515
I1338
s(S'Danielson'
p4516
S'Paul'
p4517
tp4518
I883
s(S'Walsh'
p4519
S'Billy'
p4520
tp4521
I1743
s(S'Meloan'
p4522
S'Marcus'
p4523
tp4524
I320
s(S'Peddicord'
p4525
S'Chris'
p4526
tp4527
I775
s(S'Doan'
p4528
S'Cameron'
p4529
tp4530
I671
s(S'Price'
p4531
S'Andrew'
p4532
tp4533
I910
s(S'DeMoss'
p4534
S'Mookie'
p4535
tp4536
I2068
s(S'Olsen'
p4537
S'Zachary'
p4538
tp4539
I1775
s(S'Chipokas'
p4540
S'Scott'
p4541
tp4542
I796
s(S'Kelly'
p4543
S'Jerry'
p4544
tp4545
I226
s(S'Huber'
p4546
S'Tim'
p4547
tp4548
I893
s(S'Goydos'
p4549
S'Paul'
p4550
tp4551
I197
s(S'Seppanen'
p4552
S'Matt'
p4553
tp4554
I715
s(S'Carll'
p4555
S'Kevin'
p4556
tp4557
I889
s(S'Percy'
p4558
S'Cameron'
p4559
tp4560
I1357
s(S'Burke'
p4561
S'Cameron'
p4562
tp4563
I1322
s(S'Edwards'
p4564
S'Joel'
p4565
tp4566
I40
s(S'Collins'
p4567
S'Wil'
p4568
tp4569
I880
s(S'Graham'
p4570
S'Wesley'
p4571
tp4572
I1257
s(S'Baines'
p4573
S'Scott'
p4574
tp4575
I1064
s(S'Gallagher'
p4576
S'Jeff'
p4577
tp4578
I166
s(S'Otis'
p4579
S'Ray'
p4580
tp4581
I2006
s(S'Delsing'
p4582
S'Jay'
p4583
tp4584
I35
s(S'Kim'
p4585
S'Si Woo'
p4586
tp4587
I1680
s(S'Wi'
p4588
S'Charlie'
p4589
tp4590
I817
s(S'Ruffels'
p4591
S'Ryan'
p4592
tp4593
I1849
s(S'Trainer'
p4594
S'Martin'
p4595
tp4596
I1525
s(S'Kataoka'
p4597
S'Daisuke'
p4598
tp4599
I1911
s(S'George'
p4600
S'Larry'
p4601
tp4602
I1046
s(S'Han'
p4603
S'Seung-su'
p4604
tp4605
I550
s(S'Brown'
p4606
S'Mark*'
p4607
tp4608
I1242
s(S'Kang'
p4609
S'Sung'
p4610
tp4611
I1462
s(S'Fritsch'
p4612
S'Brad'
p4613
tp4614
I1075
s(S'Choi'
p4615
S'Jinho'
p4616
tp4617
I2008
s(S'Slover'
p4618
S'Cody'
p4619
tp4620
I1576
s(S'Wallace'
p4621
S'Darren'
p4622
tp4623
I759
s(S'Lutterus'
p4624
S'David'
p4625
tp4626
I1211
s(S'Trittler'
p4627
S'Paul'
p4628
tp4629
I1080
s(S'Sindelar'
p4630
S'Joey'
p4631
tp4632
I127
s(S'Maruyama'
p4633
S'Daisuke'
p4634
tp4635
I645
s(S'Kuhlman'
p4636
S'Erich'
p4637
tp4638
I553
s(S'Pappas'
p4639
S'Brenden'
p4640
tp4641
I351
s(S'Storm'
p4642
S'Graeme'
p4643
tp4644
I1108
s(S'Wagner'
p4645
S'Johnson'
p4646
tp4647
I1126
s(S'Weibring'
p4648
S'Matt'
p4649
tp4650
I502
s(S'Steffen'
p4651
S'Zach'
p4652
tp4653
I1889
s(S'Rocha'
p4654
S'Alexandre'
p4655
tp4656
I479
s(S'Giancola'
p4657
S'Kevin'
p4658
tp4659
I568
s(S'Kondo'
p4660
S'Tomohiro'
p4661
tp4662
I381
s(S'Li'
p4663
S'Hao Tong'
p4664
tp4665
I1928
s(S'Brock'
p4666
S'Josh'
p4667
tp4668
I2032
s(S'Jin'
p4669
S'Cheng'
p4670
tp4671
I2014
s(S'Landry'
p4672
S'Andrew'
p4673
tp4674
I1819
s(S'Marino'
p4675
S'Steve'
p4676
tp4677
I561
s(S'Wald'
p4678
S'Lucas'
p4679
tp4680
I1219
s(S'Portz'
p4681
S'Clayton'
p4682
tp4683
I2065
s(S'Cox'
p4684
S'Kris'
p4685
tp4686
I604
s(S'Ward'
p4687
S'Dalton'
p4688
tp4689
I1906
s(S'Fujita'
p4690
S'Hiroyuki'
p4691
tp4692
I641
s(S'An'
p4693
S'Byeong Hun'
p4694
tp4695
I1411
s(S'Weston'
p4696
S'Rich'
p4697
tp4698
I952
s(S'Walters'
p4699
S'Euan'
p4700
tp4701
I833
s(S'Snyder'
p4702
S'Brent'
p4703
tp4704
I1904
s(S'Schuman'
p4705
S'Jim'
p4706
tp4707
I167
s(S'Crowe'
p4708
S'Trace'
p4709
tp4710
I2070
s(S'Anania'
p4711
S'Brian'
p4712
tp4713
I1788
s(S'Girouard'
p4714
S'Marc'
p4715
tp4716
I594
s(S'Richardson, Jr.'
p4717
S'Jerry'
p4718
tp4719
I1442
s(S'Berberian, Jr.'
p4720
S'Rich'
p4721
tp4722
I1957
s(S'Bryant'
p4723
S'Bart'
p4724
tp4725
I18
s(S'Douma'
p4726
S'John'
p4727
tp4728
I681
s(S'Kizzire'
p4729
S'Patton'
p4730
tp4731
I1260
s(S'Parel'
p4732
S'Scott'
p4733
tp4734
I976
s(S'Doig'
p4735
S'Ian'
p4736
tp4737
I768
s(S'Spieth'
p4738
S'Jordan'
p4739
tp4740
I1417
s(S'Guthrie'
p4741
S'Luke'
p4742
tp4743
I1596
s(S'Tims'
p4744
S'Tim'
p4745
tp4746
I686
s(S'Loving'
p4747
S'Matthew'
p4748
tp4749
I721
s(S'Concha'
p4750
S'Carlos'
p4751
tp4752
I1433
s(S'Dodt'
p4753
S'Andrew'
p4754
tp4755
I1809
s(S'Tryba'
p4756
S'Ted'
p4757
tp4758
I582
s(S'Verplank'
p4759
S'Scott'
p4760
tp4761
I149
s(S'Ikeda'
p4762
S'Yuta'
p4763
tp4764
I1370
s(S'Shields'
p4765
S'Kevin'
p4766
tp4767
I458
s(S'Saathoff'
p4768
S'Curt'
p4769
tp4770
I525
s(S'Hamrick'
p4771
S'Hunter'
p4772
tp4773
I1616
s(S'Gove'
p4774
g1815
tp4775
I316
s(S'Beisser'
p4776
S'Benoit'
p4777
tp4778
I732
s(S'Roberts'
p4779
S'Loren'
p4780
tp4781
I121
s(S'Kresge'
p4782
S'Cliff'
p4783
tp4784
I287
s(S'Barbaree'
p4785
S'Philip'
p4786
tp4787
I1978
s(S'Heaven'
p4788
S'Bradley'
p4789
tp4790
I656
s(S'Bourgeois'
p4791
S'Marc'
p4792
tp4793
I760
s(S'Riley'
p4794
g800
tp4795
I318
s(S'Cornelson'
p4796
S'Adam'
p4797
tp4798
I1929
s(S'Britton'
p4799
S'Bill'
p4800
tp4801
I563
s(S'Arthur'
p4802
S'Perry'
p4803
tp4804
I763
s(S'Muncrief'
p4805
S'Kevin'
p4806
tp4807
I691
s(S'Guetz'
p4808
S'Bret'
p4809
tp4810
I1369
s(S'Clearwater'
p4811
S'Keith'
p4812
tp4813
I28
s(S'Luiten'
p4814
S'Joost'
p4815
tp4816
I1560
s(S'Smith'
p4817
S'Anthony'
p4818
tp4819
I1270
s(S'Lardon'
p4820
g328
tp4821
I163
s(S'Blanks'
p4822
S'Kris'
p4823
tp4824
I1300
s(S'Meyer'
p4825
S'Adam'
p4826
tp4827
I716
s(S'Jeffress'
p4828
S'Steven'
p4829
tp4830
I1805
s(S'Kinkopf'
p4831
S'Michael'
p4832
tp4833
I1859
s(S'Krueger'
p4834
S'Aaron'
p4835
tp4836
I1341
s(S'Ruthkoski'
p4837
S'Andrew'
p4838
tp4839
I1029
s(S'Hummel'
p4840
S'Steve'
p4841
tp4842
I822
s(S'Kim'
p4843
S'Sihwan'
p4844
tp4845
I2035
s(S'Wilcox'
p4846
S'Willy'
p4847
tp4848
I1427
s(S'Kortan'
p4849
S'Brian'
p4850
tp4851
I650
s(S'Looper'
p4852
S'Ken'
p4853
tp4854
I1692
s(S'Els'
p4855
S'Ernie'
p4856
tp4857
I187
s(S'Schembechler II'
p4858
S'Richie'
p4859
tp4860
I2029
s(S'Hulbert'
p4861
S'Mike'
p4862
tp4863
I69
s(S'Earnest'
p4864
S'Paul'
p4865
tp4866
I2018
s(S'Wang'
p4867
S'Jeunghun'
p4868
tp4869
I1940
s(S'Rossetti'
p4870
S'Todd'
p4871
tp4872
I987
s(S'Curl'
p4873
S'Rod'
p4874
tp4875
I33
s(S'Ford'
p4876
S'Bob'
p4877
tp4878
I567
s(S'Wetterich'
p4879
S'Brett'
p4880
tp4881
I418
s(S'Smith'
p4882
S'Sam'
p4883
tp4884
I1512
s(S'Bingham'
p4885
S'Brett'
p4886
tp4887
I998
s(S'Garber'
p4888
S'Joey'
p4889
tp4890
I1789
s(S'Reed'
p4891
S'Patrick'
p4892
tp4893
I1498
s(S'Agee'
p4894
S'Brian'
p4895
tp4896
I1791
s(S'Kodama'
p4897
S'Mathew'
p4898
tp4899
I1231
s(S'Fergus'
p4900
g4812
tp4901
I47
s(S'Perry'
p4902
S'Kenny'
p4903
tp4904
I111
s(S'Wyatt'
p4905
S'Bobby'
p4906
tp4907
I1787
s(S'Nelson'
p4908
S'Larry'
p4909
tp4910
I1079
s(S'Yokoo'
p4911
S'Kaname'
p4912
tp4913
I336
s(S'Ho'
p4914
S'S.K.'
p4915
tp4916
I699
s(S'Paulson'
p4917
S'Dennis'
p4918
tp4919
I106
s(S'Kraft'
p4920
S'Kelly'
p4921
tp4922
I1600
s(S'Hearn'
p4923
S'David'
p4924
tp4925
I508
s(S'Gamez'
p4926
S'Robert'
p4927
tp4928
I55
s(S'Wallace'
p4929
S'Harold'
p4930
tp4931
I1085
s(S'Green'
p4932
S'Richard'
p4933
tp4934
I634
s(S'Couples'
p4935
S'Fred'
p4936
tp4937
I32
s(S'Prugh'
p4938
S'Alex'
p4939
tp4940
I1385
s(S'Kim'
p4941
S'Shi'
p4942
tp4943
I2003
s(S'Hickok'
p4944
S'Kramer'
p4945
tp4946
I1968
s(S'Mitchell'
p4947
S'Stiles'
p4948
tp4949
I951
s(S'Zyroll'
p4950
S'Tate'
p4951
tp4952
I530
s(S'Kjeldsen'
p4953
S'Soren'
p4954
tp4955
I406
s(S'Blake'
p4956
S'Jay Don'
p4957
tp4958
I12
s(S'Kennedy'
p4959
S'Blake'
p4960
tp4961
I2046
s(S'Nisbet'
p4962
S'Daniel'
p4963
tp4964
I1653
s(S'Allenby'
p4965
S'Robert'
p4966
tp4967
I263
s(S'Gonzalez'
p4968
S'Ernie'
p4969
tp4970
I58
s(S'Clarke'
p4971
S'Darren'
p4972
tp4973
I301
s(S'Woodson'
p4974
S'Rick'
p4975
tp4976
I1451
s(S'Perez'
p4977
S'Mike'
p4978
tp4979
I1365
s(S'Crenshaw'
p4980
S'Ben'
p4981
tp4982
I928
s(S'Redfield'
p4983
S'Alex'
p4984
tp4985
I1939
s(S'Waldorf'
p4986
S'Duffy'
p4987
tp4988
I152
s(S'Gutschewski'
p4989
S'Scott'
p4990
tp4991
I687
s(S'Price'
p4992
S'Phillip'
p4993
tp4994
I333
s(S'Morales'
p4995
S'Wilfredo'
p4996
tp4997
I386
s(S'Genovese'
p4998
S'Mike'
p4999
tp5000
I2066
s(S'Dougherty'
p5001
S'Kevin'
p5002
tp5003
I2009
s(S'Gonzalez'
p5004
S'Ricardo'
p5005
tp5006
I654
s(S'Sierak'
p5007
S'Mark'
p5008
tp5009
I548
s(S'Claxton'
p5010
S'Paul'
p5011
tp5012
I813
s(S'Baird'
p5013
S'Briny'
p5014
tp5015
I334
s(S'Kaye'
p5016
S'Jonathan'
p5017
tp5018
I312
s(S'Igarashi'
p5019
S'Yuji'
p5020
tp5021
I1276
s(S'Dillon'
p5022
S'Ryan'
p5023
tp5024
I849
s(S'Rashell'
p5025
S'Rob'
p5026
tp5027
I867
s(S'Ferrie'
p5028
S'Kenneth'
p5029
tp5030
I827
s(S'Epperson'
p5031
S'Chris'
p5032
tp5033
I1500
s(S'Moore'
p5034
S'Jonathan'
p5035
tp5036
I1141
s(S'Vucinich'
p5037
S'Roy'
p5038
tp5039
I792
s(S'Acosta, Jr.'
p5040
S'Joe'
p5041
tp5042
I311
s(S'Twiggs'
p5043
S'Greg'
p5044
tp5045
I146
s(S'Uihlein'
p5046
S'Peter'
p5047
tp5048
I1059
s(S'Hogue'
p5049
S'Ryan'
p5050
tp5051
I440
s(S'Woo'
p5052
S'Charlie'
p5053
tp5054
I1255
s(S'Gilley'
p5055
S'Chris'
p5056
tp5057
I1878
s(S'Dixon'
p5058
S'Brian'
p5059
tp5060
I737
s(S'Kim'
p5061
S'Bio'
p5062
tp5063
I1501
s(S'Moyers'
p5064
S'Mikey'
p5065
tp5066
I1790
s(S'Helminen'
p5067
S'Ryan'
p5068
tp5069
I913
s(S'Ziska'
p5070
S'Ian'
p5071
tp5072
I1067
s(S'Coughlan'
p5073
S'Richie'
p5074
tp5075
I369
s(S'Hallberg'
p5076
S'Eric'
p5077
tp5078
I1966
s(S'Bradley'
p5079
S'Keegan'
p5080
tp5081
I1485
s(S'Hauer'
p5082
S'Brad'
p5083
tp5084
I682
s(S'Noren'
p5085
S'Alex'
p5086
tp5087
I1372
s(S'Smalley'
p5088
S'Alex'
p5089
tp5090
I2080
s(S'Triplett'
p5091
S'Kirk'
p5092
tp5093
I144
s(S'Wong'
p5094
S'Eugene'
p5095
tp5096
I1435
s(S'Shawver'
p5097
S'John'
p5098
tp5099
I609
s(S'Pampling'
p5100
S'Rod'
p5101
tp5102
I338
s(S'Iaciofano'
p5103
S'Joey'
p5104
tp5105
I919
s(S'Katayama'
p5106
S'Shingo'
p5107
tp5108
I322
s(S'Lim'
p5109
S'Thomas'
p5110
tp5111
I1891
s(S'Bozzelli'
p5112
S'Dominic'
p5113
tp5114
I1996
s(S'Vana'
p5115
S'Frank'
p5116
tp5117
I758
s(S'Hagy'
p5118
S'Brandon'
p5119
tp5120
I1865
s(S"O'Dell"
p5121
S'Sam'
p5122
tp5123
I1893
s(S'Ring'
p5124
S'Willis'
p5125
tp5126
I1421
s(S'Fast'
p5127
S'Matt'
p5128
tp5129
I1419
s(S'Lawrence'
p5130
S'Mike'
p5131
tp5132
I1078
s(S'Millard'
p5133
S'Jason'
p5134
tp5135
I1761
s(S'Heinen'
p5136
S'Mike'
p5137
tp5138
I229
s(S'Weibring'
p5139
S'D.A.'
p5140
tp5141
I155
s(S'Pavin'
p5142
S'Corey'
p5143
tp5144
I107
s(S'Stalter'
p5145
S'Joel'
p5146
tp5147
I1942
s(S'Younan'
p5148
S'Jake'
p5149
tp5150
I1317
s(S'Gibson'
p5151
S'John'
p5152
tp5153
I225
s(S'Kohut'
p5154
S'J.T.'
p5155
tp5156
I1193
s(S"O'Malley"
p5157
S'Peter'
p5158
tp5159
I99
s(S'Hack'
p5160
S'Jhared'
p5161
tp5162
I1823
s(S'Abel'
p5163
S'Derek'
p5164
tp5165
I1157
s(S'Hubbard'
p5166
S'Mark'
p5167
tp5168
I1750
s(S'Laycock'
p5169
S'Scott'
p5170
tp5171
I339
s(S'Gore'
p5172
g3901
tp5173
I403
s(S'Birdsey'
p5174
S'Thomas'
p5175
tp5176
I1857
s(S'Perry'
p5177
S'Rod'
p5178
tp5179
I493
s(S'Lara'
p5180
S'Jose Manuel'
p5181
tp5182
I1096
s(S'Perkins'
p5183
S'Travis'
p5184
tp5185
I1202
s(S'Wiebe'
p5186
S'Mark'
p5187
tp5188
I156
s(S'Smotherman'
p5189
S'Austin'
p5190
tp5191
I2020
s(g3965
g4175
tp5192
I510
s(S'Barnes'
p5193
S'Ricky'
p5194
tp5195
I459
s(S'Chartrand'
p5196
S'Dan'
p5197
tp5198
I908
s(S'Nagy'
p5199
S'Corey'
p5200
tp5201
I1923
s(S'Cuzzort'
p5202
S'Jeff'
p5203
tp5204
I1216
s(S'Slocum'
p5205
S'Heath'
p5206
tp5207
I387
s(S'Wiesberger'
p5208
S'Bernd'
p5209
tp5210
I1564
s(S'DiMarco'
p5211
g800
tp5212
I174
s(S'Kisner'
p5213
S'Kevin'
p5214
tp5215
I1468
s(S'Hessing'
p5216
S'Rob'
p5217
tp5218
I906
s(S'Marcano'
p5219
S'Ross'
p5220
tp5221
I1144
s(S'Gooch'
p5222
S'Talor'
p5223
tp5224
I1783
s(S'Nelson'
p5225
S'John'
p5226
tp5227
I261
s(S'Thatcher'
p5228
S'Roland'
p5229
tp5230
I495
s(S'Lohr'
p5231
S'Bob'
p5232
tp5233
I81
s(S'Miernicki'
p5234
S'Daniel'
p5235
tp5236
I1430
s(S'McCoy'
p5237
S'Lee'
p5238
tp5239
I1896
s(S'Price'
p5240
S'Anthony'
p5241
tp5242
I1537
s(S'Cochran'
p5243
S'Nicholas'
p5244
tp5245
I1774
s(S'Rowell'
p5246
S'Brian'
p5247
tp5248
I971
s(S'Grube'
p5249
S'Rob'
p5250
tp5251
I1248
s(S'Herron'
p5252
S'Tim'
p5253
tp5254
I292
s(S'Brazel'
p5255
S'Sam'
p5256
tp5257
I2041
s(S'Kang'
p5258
S'Anthony'
p5259
tp5260
I1280
s(S'Pieters'
p5261
S'Thomas'
p5262
tp5263
I1918
s(S'Campbell'
p5264
S'Michael'
p5265
tp5266
I327
s(S'Esposito'
p5267
S'Frank'
p5268
tp5269
I1707
s(S'Sowards'
p5270
S'Bob'
p5271
tp5272
I808
s(S'Ancer'
p5273
S'Abraham'
p5274
tp5275
I1944
s(S'Day'
p5276
S'Glen'
p5277
tp5278
I241
s(S'Hart'
p5279
S'Dudley'
p5280
tp5281
I192
s(S'du Toit'
p5282
S'Jared'
p5283
tp5284
I1983
s(S'Schuller'
p5285
S'Rick'
p5286
tp5287
I778
s(S'Madison'
p5288
S'Brian'
p5289
tp5290
I866
s(S'Boyle'
p5291
S'Bob'
p5292
tp5293
I208
s(S'Kokott'
p5294
S'Bill'
p5295
tp5296
I937
s(S'Rosinia'
p5297
S'Billy'
p5298
tp5299
I943
s(S'Ruda'
p5300
S'J.R.'
p5301
tp5302
I895
s(S'Hosokawa'
p5303
S'Kazuhiko'
p5304
tp5305
I826
s(S'Henley'
p5306
S'Russell'
p5307
tp5308
I1664
s(S'Slattery'
p5309
S'Lee'
p5310
tp5311
I1549
s(S'Howe'
p5312
S'T.J.'
p5313
tp5314
I1890
s(S'Proveaux'
p5315
S'Cody'
p5316
tp5317
I1612
s(S'Lawrie'
p5318
S'Paul'
p5319
tp5320
I304
s(S'Mulhearn'
p5321
S'Danny'
p5322
tp5323
I678
s(S'Burns'
p5324
S'Jeff'
p5325
tp5326
I1361
s(S'Miles'
p5327
S'Michael'
p5328
tp5329
I1264
s(S'Moon'
p5330
S'Alex'
p5331
tp5332
I1938
s(S'Holmes'
p5333
S'J.B.'
p5334
tp5335
I876
s(S'Lawrence'
p5336
S'David'
p5337
tp5338
I2053
s(S'Georgiou'
p5339
S'Andrew'
p5340
tp5341
I1662
s(S'Pendrith'
p5342
S'Taylor'
p5343
tp5344
I1766
s(S'Ellis'
p5345
S'John'
p5346
tp5347
I720
s(S'Yokomoto'
p5348
S'Beau'
p5349
tp5350
I948
s(S'Watson'
p5351
S'Bubba'
p5352
tp5353
I1001
s(S'Tolan'
p5354
S'Derek'
p5355
tp5356
I1367
s(S'Jones'
p5357
S'Nickolas'
p5358
tp5359
I1294
s(S'Lower'
p5360
S'Justin'
p5361
tp5362
I1763
s(S'Hale'
p5363
S'Damian'
p5364
tp5365
I484
s(S'Mazza'
p5366
S'John'
p5367
tp5368
I930
s(S'PomArleau'
p5369
S'Kevin'
p5370
tp5371
I844
s(S'Funk'
p5372
S'Fred'
p5373
tp5374
I53
s(S'Wurtz'
p5375
g218
tp5376
I199
s(S'Leon'
p5377
S'Tyler'
p5378
tp5379
I1471
s(S'Ortiz'
p5380
S'Carlos'
p5381
tp5382
I1733
s(S'Meyer'
p5383
S'Dylan'
p5384
tp5385
I2051
s(S'Gomez'
p5386
S'Rafael'
p5387
tp5388
I859
s(S'Kim'
p5389
S'Hyung-Sung'
p5390
tp5391
I1753
s(S'Lee'
p5392
S'Soomin'
p5393
tp5394
I1987
s(S'Massa'
p5395
S'Bobby'
p5396
tp5397
I1691
s(S'McConnell'
p5398
S'Paul'
p5399
tp5400
I1950
s(S'Short, Jr.'
p5401
S'Wes'
p5402
tp5403
I592
s(S'Baddeley'
p5404
S'Aaron'
p5405
tp5406
I389
s(S'Brandt'
p5407
S'Jimmy'
p5408
tp5409
I1832
s(S'Marin'
p5410
S'Chris'
p5411
tp5412
I1447
s(S'Panzeri'
p5413
S'Joe'
p5414
tp5415
I1506
s(S'Anderson'
p5416
S'Stuart'
p5417
tp5418
I881
s(S'Fauchier'
p5419
S'Ryan'
p5420
tp5421
I402
s(S'Gow'
p5422
S'Paul'
p5423
tp5424
I376
s(S'Jung'
p5425
S'Richard'
p5426
tp5427
I1852
s(S'Backel'
p5428
S'Camden'
p5429
tp5430
I1870
s(S'Ridings'
p5431
S'Tag'
p5432
tp5433
I423
s(S'Byrum'
p5434
g450
tp5435
I21
s(S'Perry'
p5436
S'Chris'
p5437
tp5438
I110
s(S'Schultz'
p5439
S'Dirk'
p5440
tp5441
I212
s(S'Knox'
p5442
S'Russell'
p5443
tp5444
I1484
s(S'Wooding'
p5445
S'Jeremiah'
p5446
tp5447
I1681
s(S'Song'
p5448
S'Young-han'
p5449
tp5450
I1936
s(S'Bickerton'
p5451
S'John'
p5452
tp5453
I954
s(S'Sanchez'
p5454
S'Isaac'
p5455
tp5456
I1734
s(S'Wightman'
p5457
S'Paul'
p5458
tp5459
I1002
s(S'Wolcott'
p5460
S'Bob'
p5461
tp5462
I157
s(S'Allred'
p5463
S'Jason'
p5464
tp5465
I424
s(S'Kelley'
p5466
S'Tony'
p5467
tp5468
I1268
s(S'Whaley'
p5469
S'Suzy'
p5470
tp5471
I549
s(S'English'
p5472
S'Harris'
p5473
tp5474
I1585
s(S'Cink'
p5475
S'Stewart'
p5476
tp5477
I323
s(S'Biershenk'
p5478
S'Tommy'
p5479
tp5480
I1547
s(S'Alexander'
p5481
S'Tyson'
p5482
tp5483
I2076
s(S'Knous'
p5484
S'Jim'
p5485
tp5486
I2002
s(S'Haig'
p5487
S'Anton'
p5488
tp5489
I1130
s(S'Upper'
p5490
S'Brett'
p5491
tp5492
I583
s(S'Casagranda'
p5493
S'Greg'
p5494
tp5495
I790
s(S'Melton'
p5496
S'Brett'
p5497
tp5498
I748
s(S'Hughes'
p5499
S'Reed'
p5500
tp5501
I771
s(S'NeSmith'
p5502
S'Matthew'
p5503
tp5504
I1622
s(S'Clark II'
p5505
S'Michael'
p5506
tp5507
I272
s(S'Link IV'
p5508
S'William'
p5509
tp5510
I698
s(S'Takahashi'
p5511
S'Tatsuhiko'
p5512
tp5513
I959
s(S'Olive'
p5514
S'Patrick'
p5515
tp5516
I1235
s(S'Nannen'
p5517
S'Derek'
p5518
tp5519
I887
s(S'Bolling'
p5520
S'Charles'
p5521
tp5522
I13
s(S'Byman'
p5523
S'Bob'
p5524
tp5525
I20
s(S'Robertson'
p5526
S'John'
p5527
tp5528
I409
s(S'Sorensen'
p5529
S'Chad'
p5530
tp5531
I1880
s(S'Stolz'
p5532
S'Andre'
p5533
tp5534
I635
s(S'Sciorra'
p5535
S'Cary'
p5536
tp5537
I1016
s(S'Martin Benavides'
p5538
S'Pablo'
p5539
tp5540
I1119
s(S'Lee'
p5541
S'Han'
p5542
tp5543
I1111
s(S'Choe'
p5544
S'Jay'
p5545
tp5546
I1035
s(S'Wilson'
p5547
S'TJ'
p5548
tp5549
I901
s(S'Allen'
p5550
S'Michael'
p5551
tp5552
I588
s(S'Thornberry'
p5553
S'Braden'
p5554
tp5555
I2031
s(S'Ferguson'
p5556
S'Ben'
p5557
tp5558
I1097
s(S'Anderson'
p5559
S'JC'
p5560
tp5561
I161
s(S'Diaz'
p5562
S'David'
p5563
tp5564
I1099
s(S'Utley'
p5565
S'Stan'
p5566
tp5567
I148
s(S'Harrington'
p5568
S'Padraig'
p5569
tp5570
I354
s(S'Jaeger'
p5571
S'Stephan'
p5572
tp5573
I2037
s(S'Na'
p5574
S'Kevin'
p5575
tp5576
I477
s(S'Casey'
p5577
S'Paul'
p5578
tp5579
I476
s(S'Haverland'
p5580
S'Butch'
p5581
tp5582
I970
s(S'Harmon'
p5583
S'Matt'
p5584
tp5585
I1167
s(S'Tracy'
p5586
S'Ethan'
p5587
tp5588
I1952
s(S'Cutler'
p5589
S'Steve'
p5590
tp5591
I1980
s(S'Schultze'
p5592
S'Bobby'
p5593
tp5594
I1147
s(S'Tucker'
p5595
S'Jeremy'
p5596
tp5597
I1019
s(S'Dufner'
p5598
S'Jason'
p5599
tp5600
I697
s(S'Bare'
p5601
S'Andy'
p5602
tp5603
I1139
s(S'Zokol'
p5604
S'Richard'
p5605
tp5606
I159
s(S'Holman'
p5607
S'Nathan'
p5608
tp5609
I1935
s(S'Webber'
p5610
S'Kane'
p5611
tp5612
I1054
s(S'Adams III'
p5613
S'Frank'
p5614
tp5615
I1559
s(S'Calcavecchia'
p5616
g92
tp5617
I22
s(S'Chamblee'
p5618
S'Brandel'
p5619
tp5620
I25
s(S'Svoboda'
p5621
S'Andrew'
p5622
tp5623
I1376
s(S'Gonzales'
p5624
S'Andres'
p5625
tp5626
I1073
s(S'Horsfield'
p5627
S'Sam'
p5628
tp5629
I2028
s(S'Damesworth'
p5630
S'David'
p5631
tp5632
I1608
s(S'Smith'
p5633
S'Bruce'
p5634
tp5635
I456
s(S'Sanders'
p5636
S'Curt'
p5637
tp5638
I1199
s(S'German'
p5639
S'Kyle'
p5640
tp5641
I1343
s(S'Gillis'
p5642
S'Tom'
p5643
tp5644
I239
s(S'Lyle'
p5645
S'Sandy'
p5646
tp5647
I85
s(S'Fergin'
p5648
S'Michael'
p5649
tp5650
I394
s(S'Magee'
p5651
S'Andrew'
p5652
tp5653
I86
s(S'Jimenez'
p5654
S'Miguel Angel'
p5655
tp5656
I621
s(S'Nallen'
p5657
S'Chris'
p5658
tp5659
I731
s(S'Love III'
p5660
S'Davis'
p5661
tp5662
I82
s(S'Purdy'
p5663
S'Ted'
p5664
tp5665
I379
s(S'Cheetham'
p5666
S'Neil'
p5667
tp5668
I851
s(S'Holmes'
p5669
S'Steve'
p5670
tp5671
I1366
s(S'Tucker'
p5672
S'Mark'
p5673
tp5674
I809
s(S'Drummond'
p5675
S'Scott'
p5676
tp5677
I676
s(S'Snyder'
p5678
S'Jay'
p5679
tp5680
I923
s(S'Meade'
p5681
S'Charlie'
p5682
tp5683
I178
s(S'Lane'
p5684
S'Barry'
p5685
tp5686
I615
s(S'Edstrom'
p5687
S'Reid'
p5688
tp5689
I1187
s(S'Park'
p5690
S'S.J.'
p5691
tp5692
I1826
s(S'Cullen'
p5693
S'Nick'
p5694
tp5695
I1821
s(S'Tolles'
p5696
S'Tommy'
p5697
tp5698
I589
s(S'Mitchell'
p5699
S'Jordan'
p5700
tp5701
I1631
s(S'Smith'
p5702
S'Nate'
p5703
tp5704
I1494
s(S'Henninger'
p5705
g152
tp5706
I195
s(S'Knoll'
p5707
S'Raymond'
p5708
tp5709
I1792
s(S'Fiedler'
p5710
S'Jon'
p5711
tp5712
I48
s(S'Ott'
p5713
S'Brad'
p5714
tp5715
I1907
s(S'Kop'
p5716
S'Brandan'
p5717
tp5718
I940
s(S'Johnson'
p5719
S'Tom'
p5720
tp5721
I1089
s(S'Appleby'
p5722
S'Stuart'
p5723
tp5724
I314
s(S'Yancey'
p5725
S'Cameron'
p5726
tp5727
I500
s(S'Park'
p5728
S'Jin'
p5729
tp5730
I330
s(S'Hansen'
p5731
S'Anders'
p5732
tp5733
I1095
s(S'Shriver'
p5734
S'Eric'
p5735
tp5736
I1443
s(S'Schultz'
p5737
S'David'
p5738
tp5739
I1425
s(S'Sokol'
p5740
S'Steve'
p5741
tp5742
I1124
s(S'Adams'
p5743
S'John'
p5744
tp5745
I0
s(S'Harman'
p5746
S'Brian'
p5747
tp5748
I734
s(S'Wiratchant'
p5749
S'Thaworn'
p5750
tp5751
I965
s(S'Donald'
p5752
S'Mike'
p5753
tp5754
I37
s(S'Wheatcroft'
p5755
S'Steve'
p5756
tp5757
I868
s(S'Smock'
p5758
S'Brian'
p5759
tp5760
I1453
s(S'Harris'
p5761
S'Michael'
p5762
tp5763
I460
s(S'Sharp'
p5764
S'Tommy'
p5765
tp5766
I1986
s(S'Blackburn'
p5767
S'Brooks'
p5768
tp5769
I2015
s(S'Bekker'
p5770
S'Oliver'
p5771
tp5772
I1573
s(S'Hocknull'
p5773
S'Craig'
p5774
tp5775
I2001
s(S'McGowan'
p5776
S'Ross'
p5777
tp5778
I1379
s(S'Lingmerth'
p5779
S'David'
p5780
tp5781
I1667
s(S'von Hoffmann'
p5782
S'David'
p5783
tp5784
I1717
s(S'Curl'
p5785
S'Jeff'
p5786
tp5787
I1563
s(S'Sadakata'
p5788
S'Akio'
p5789
tp5790
I490
s(S'Pratt'
p5791
S'Andrew'
p5792
tp5793
I907
s(S'Choi'
p5794
S'Andy'
p5795
tp5796
I1161
s(S'Johnson'
p5797
S'Rob'
p5798
tp5799
I447
s(S'Rodgers'
p5800
S'Patrick'
p5801
tp5802
I1617
s(S'Poole'
p5803
S'Stephen'
p5804
tp5805
I1243
s(S'Hadley'
p5806
S'Brian'
p5807
tp5808
I1136
s(S'Dottley'
p5809
S'Will'
p5810
tp5811
I1032
s(S'Pettersson'
p5812
S'Carl'
p5813
tp5814
I474
s(S'Kelley'
p5815
S'Ken'
p5816
tp5817
I573
s(S'Weinhart'
p5818
S'Tim'
p5819
tp5820
I293
s(S'Horsey'
p5821
S'David'
p5822
tp5823
I1383
s(S'Constable'
p5824
S'Donald'
p5825
tp5826
I1679
s(S'Streb'
p5827
S'Robert'
p5828
tp5829
I1668
s(S'Immelman'
p5830
S'Trevor'
p5831
tp5832
I390
s(S'Richardson'
p5833
S'Clark'
p5834
tp5835
I1515
s(S'Brehm'
p5836
S'Ryan'
p5837
tp5838
I916
s(S'Reilly'
p5839
S'Mike'
p5840
tp5841
I536
s(S'Iredell'
p5842
S'Tom'
p5843
tp5844
I850
s(S'King'
p5845
S'Kevin'
p5846
tp5847
I1082
s(S'Griffin'
p5848
S'Matthew'
p5849
tp5850
I2025
s(S'Webster'
p5851
S'Steve'
p5852
tp5853
I1184
s(S'Chalmers'
p5854
S'Greg'
p5855
tp5856
I342
s(S'Johnson'
p5857
S'Jamie'
p5858
tp5859
I1050
s(S'Gump'
p5860
S'Scott'
p5861
tp5862
I783
s(S'Trimble'
p5863
S'Blake'
p5864
tp5865
I1404
s(S'Wood'
p5866
S'Chris'
p5867
tp5868
I1356
s(S'Potter'
p5869
S'Zechariah'
p5870
tp5871
I1843
s(S'Watkins'
p5872
S'Aaron'
p5873
tp5874
I898
s(S'Haeggman'
p5875
S'Joakim'
p5876
tp5877
I620
s(S'Morikawa'
p5878
S'Collin'
p5879
tp5880
I2040
s(S'Camplin'
p5881
S'Todd'
p5882
tp5883
I1507
s(S'Mills'
p5884
S'Jon'
p5885
tp5886
I492
s(S'Senecal'
p5887
S'Kevin'
p5888
tp5889
I1104
s(S'Rose'
p5890
S'Clarence'
p5891
tp5892
I777
s(S'McNabb'
p5893
S'David'
p5894
tp5895
I1764
s(S'Osborn'
p5896
S'Payton'
p5897
tp5898
I1131
s(S'Moran'
p5899
S'Scott'
p5900
tp5901
I1388
s(S'Carter'
p5902
S'Pat'
p5903
tp5904
I1642
s(S'Hatalsky'
p5905
S'Morris'
p5906
tp5907
I1534
s(g3673
S'Daryl'
p5908
tp5909
I1174
s(S'Bohn'
p5910
S'Jason'
p5911
tp5912
I683
s(S'Del Vecchio'
p5913
S'Paul'
p5914
tp5915
I909
s(S'Matteson'
p5916
S'Troy'
p5917
tp5918
I534
s(S'Kase'
p5919
S'Hideki'
p5920
tp5921
I794
s(S'Twitty'
p5922
S'Howard'
p5923
tp5924
I147
s(S'Zarlengo'
p5925
S'Rick'
p5926
tp5927
I533
s(S'Miller'
p5928
S'Zack'
p5929
tp5930
I1316
s(S'Kamin'
p5931
S'Chris'
p5932
tp5933
I841
s(S'Wood'
p5934
S'Willie'
p5935
tp5936
I158
s(S'Marrello'
p5937
S'Fran'
p5938
tp5939
I936
s(S'DeVoll'
p5940
S'Casey'
p5941
tp5942
I1541
s(S'Henderson'
p5943
S'Mike'
p5944
tp5945
I689
s(S'Gillespie'
p5946
S'Derek'
p5947
tp5948
I470
s(S'Tway'
p5949
S'Bob'
p5950
tp5951
I145
s(S'Mitchell'
p5952
S'Daniel'
p5953
tp5954
I1387
s(S'Mason'
p5955
S'Nick'
p5956
tp5957
I1409
s(S'Wilson'
p5958
S'Steve'
p5959
tp5960
I1190
s(S'Smith'
p5961
S'Brandon'
p5962
tp5963
I1505
s(S'Weston'
p5964
S'Wes'
p5965
tp5966
I1266
s(S'Ming'
p5967
S'Chris'
p5968
tp5969
I845
s(S'Roth'
p5970
S'Jeff'
p5971
tp5972
I198
s(S'Rogers'
p5973
S'Jamie'
p5974
tp5975
I693
s(S'Gronberg'
p5976
S'Mathias'
p5977
tp5978
I324
s(S'Henderson'
p5979
S'Michael'
p5980
tp5981
I953
s(S'Larsson'
p5982
S'Dean'
p5983
tp5984
I812
s(S'Branshaw'
p5985
S'David'
p5986
tp5987
I648
s(S'Daley'
p5988
S'Joe'
p5989
tp5990
I1094
s(S'Elliott'
p5991
S'Bobby'
p5992
tp5993
I955
s(S'McGinley'
p5994
S'Paul'
p5995
tp5996
I275
s(S'Esler'
p5997
S'Josh'
p5998
tp5999
I1252
s(S'Van Horn'
p6000
S'Craig'
p6001
tp6002
I820
s(S'Woodson'
p6003
S'Jay'
p6004
tp6005
I1212
s(S'Hultman'
p6006
S'Anders'
p6007
tp6008
I843
s(S'Killpack'
p6009
S'Nick'
p6010
tp6011
I1932
s(S'Carr'
p6012
S'David'
p6013
tp6014
I1716
s(S'Paulson'
p6015
S'Carl'
p6016
tp6017
I313
s(S'Fujimoto'
p6018
S'Yoshinori'
p6019
tp6020
I1568
s(S'Demsey'
p6021
S'Todd'
p6022
tp6023
I1088
s(S'Springer'
p6024
S'Hayden'
p6025
tp6026
I1981
s(S'Lee'
p6027
S'Beon Yeong'
p6028
tp6029
I1438
s(S'Sisk'
p6030
S'Geoffrey'
p6031
tp6032
I590
s(S'Coceres'
p6033
S'Roberto'
p6034
tp6035
I863
s(S'Bisbee'
p6036
S'Jeff'
p6037
tp6038
I912
s(S'Cheesman'
p6039
S'Barry'
p6040
tp6041
I26
s(S'Manning'
p6042
S'Eric'
p6043
tp6044
I784
s(S'Smith'
p6045
S'Michael'
p6046
tp6047
I1154
s(S'Puska'
p6048
S'Jeff'
p6049
tp6050
I1381
s(S'Lowe'
p6051
S'Cortland'
p6052
tp6053
I1329
s(S'Cochran'
p6054
S'Bobby'
p6055
tp6056
I298
s(S'Rinker'
p6057
S'Lee'
p6058
tp6059
I120
s(S'Rutledge'
p6060
S'Jim'
p6061
tp6062
I124
s(S'Lundstrom'
p6063
S'David'
p6064
tp6065
I84
s(S'Compton'
p6066
S'Erik'
p6067
tp6068
I451
s(S'McLean'
p6069
S'Alan'
p6070
tp6071
I958
s(S'Beem'
p6072
S'Rich'
p6073
tp6074
I427
s(g5193
S'Andrew'
p6075
tp6076
I435
s(S'Miller'
p6077
S'Mark'
p6078
tp6079
I307
s(S'Stal'
p6080
S'Gary'
p6081
tp6082
I1817
s(S'Garcia'
p6083
S'Sergio'
p6084
tp6085
I365
s(S'Langley'
p6086
S'Scott'
p6087
tp6088
I1497
s(S'Bogle'
p6089
S'Scott'
p6090
tp6091
I558
s(S'Painter'
p6092
S'Anthony'
p6093
tp6094
I337
s(S'Hamilton'
p6095
S'Alex'
p6096
tp6097
I1398
s(S'Coletta'
p6098
S'Brett'
p6099
tp6100
I2005
s(S'Hoge'
p6101
S'Tom'
p6102
tp6103
I1519
s(S'Manassero'
p6104
S'Matteo'
p6105
tp6106
I1486
s(S'McMillan'
p6107
S'Rob'
p6108
tp6109
I309
s(S'McGreal'
p6110
S'Simon'
p6111
tp6112
I1304
s(S'Simonsen'
p6113
S'Henrik'
p6114
tp6115
I793
s(S'Van Pelt'
p6116
S'Bo'
p6117
tp6118
I675
s(S'Coles'
p6119
S'Gavin'
p6120
tp6121
I345
s(S'Stallings'
p6122
S'Scott'
p6123
tp6124
I1470
s(S'Lee'
p6125
S'Danny'
p6126
tp6127
I1223
s(S'Scherrer'
p6128
S'Tom'
p6129
tp6130
I255
s(S'Day'
p6131
S'Kelvin'
p6132
tp6133
I1835
s(S'Cotner'
p6134
S'Keoke'
p6135
tp6136
I1275
s(S'Dean'
p6137
S'Geoffrey'
p6138
tp6139
I719
s(S'Van Zyl'
p6140
S'Jaco'
p6141
tp6142
I1112
s(S'Gainey'
p6143
S'Tommy'
p6144
tp6145
I1159
s(S'Watson'
p6146
S'Derek'
p6147
tp6148
I1026
s(S'Howison'
p6149
S'Ryan'
p6150
tp6151
I1090
s(S'Stamey'
p6152
S'Nathan'
p6153
tp6154
I1487
s(S'Norlander'
p6155
S'Henrik'
p6156
tp6157
I1646
s(S'Damron'
p6158
S'Patrick'
p6159
tp6160
I540
s(S'Kanada'
p6161
S'Craig'
p6162
tp6163
I214
s(S'Shin'
p6164
S'Justin'
p6165
tp6166
I1854
s(S'Smith'
p6167
S'Jesse'
p6168
tp6169
I1654
s(S'Downes'
p6170
S'Billy'
p6171
tp6172
I2060
s(S'Clark'
p6173
S'Tim'
p6174
tp6175
I414
s(S'Scott'
p6176
S'Steve'
p6177
tp6178
I644
s(S'Cashell'
p6179
S'Scott'
p6180
tp6181
I1345
s(S'Sterling'
p6182
S'Scott'
p6183
tp6184
I942
s(S'Hoch'
p6185
S'Scott'
p6186
tp6187
I68
s(S'Conners'
p6188
S'Corey'
p6189
tp6190
I1700
s(S'Ihm'
p6191
S'Steven'
p6192
tp6193
I1697
s(S'Howser'
p6194
S'David'
p6195
tp6196
I299
s(S'Choi'
p6197
S'K.J.'
p6198
tp6199
I445
s(S'Niemann'
p6200
S'Joaquin'
p6201
tp6202
I2063
s(S'Vegas'
p6203
S'Jhonattan'
p6204
tp6205
I529
s(S'Chestnut'
p6206
S'Jimmy'
p6207
tp6208
I914
s(S'Love'
p6209
S'Sam'
p6210
tp6211
I1785
s(S'Woods'
p6212
S'Tiger'
p6213
tp6214
I240
s(S'Knapp'
p6215
S'Jake'
p6216
tp6217
I1879
s(S'Jamieson'
p6218
S'Scott'
p6219
tp6220
I1650
s(S'Cevaer'
p6221
S'Christian'
p6222
tp6223
I1274
s(S'Geiberger'
p6224
S'Brent'
p6225
tp6226
I279
s(S'Saunders'
p6227
S'Sam'
p6228
tp6229
I1042
s(S'Abbott'
p6230
S'Scott'
p6231
tp6232
I1137
s(S'Cornellier'
p6233
S'Jean-Philip'
p6234
tp6235
I1858
s(S'McNeill'
p6236
S'George'
p6237
tp6238
I449
s(S'Kimbell'
p6239
S'John'
p6240
tp6241
I1639
s(S'Yang'
p6242
S'Y.E.'
p6243
tp6244
I684
s(S'Brown'
p6245
S'Christopher'
p6246
tp6247
I1423
s(S'Doell'
p6248
S'Craig'
p6249
tp6250
I761
s(S'Goya'
p6251
S'Tano'
p6252
tp6253
I1729
s(S'Austin'
p6254
S'Mike'
p6255
tp6256
I585
s(S'Pesta'
p6257
S'Matt'
p6258
tp6259
I1742
s(S'Hutsell'
p6260
S'David'
p6261
tp6262
I1548
s(S'Freeman'
p6263
S'Jeff'
p6264
tp6265
I1450
s(S'Petrovic'
p6266
g5253
tp6267
I112
s(S'Jacobs'
p6268
S'Hal'
p6269
tp6270
I1043
s(S'Rangel'
p6271
S'Jeff'
p6272
tp6273
I1527
s.