(dp0
(S'Schaake'
p1
S'Carson'
p2
tp3
I1900
s(S'Oda'
p4
S'Koumei'
p5
tp6
I1459
s(S'Philo, Jr.'
p7
S'Ron'
p8
tp9
I206
s(S'Armstrong'
p10
S'Ty'
p11
tp12
I599
s(S'Arnaud'
p13
S'Michael'
p14
tp15
I1482
s(S'Turcott'
p16
S'Jon'
p17
tp18
I504
s(S'Stefani'
p19
S'Shawn'
p20
tp21
I1580
s(S'Hendry'
p22
S'Mike'
p23
tp24
I1645
s(S'Collins'
p25
S'Chad'
p26
tp27
I1203
s(S'Hatton'
p28
S'Tyrrell'
p29
tp30
I1830
s(S'Nicklaus'
p31
S'Gary'
p32
tp33
I233
s(S'Williams'
p34
S'Chris'
p35
tp36
I1672
s(S'Landreville'
p37
S'Eric'
p38
tp39
I1254
s(S'Smith'
p40
S'Jerry'
p41
tp42
I130
s(S'Simpson'
p43
S'Scott'
p44
tp45
I126
s(S'Bullington'
p46
S'Brian'
p47
tp48
I1970
s(S'Im'
p49
S'Daniel'
p50
tp51
I1238
s(S'Stinson'
p52
S'Kevin'
p53
tp54
I1741
s(S'Light'
p55
S'Tyler'
p56
tp57
I2082
s(S'May'
p58
S'Bob'
p59
tp60
I177
s(S'Pate'
p61
S'Steve'
p62
tp63
I105
s(S'Williams'
p64
S'Gene'
p65
tp66
I1422
s(S'Liang'
p67
S'Wen-Chong'
p68
tp69
I993
s(S'Hossler'
p70
S'Beau'
p71
tp72
I1594
s(S'McClintock'
p73
S'Ryan'
p74
tp75
I1989
s(S'Farren'
p76
S'Sean'
p77
tp78
I507
s(S'Adams'
p79
S'Adam'
p80
tp81
I926
s(S'Wadkins'
p82
S'Travis'
p83
tp84
I1590
s(S'Dinwiddie'
p85
S'Robert'
p86
tp87
I1145
s(S'Hagestad'
p88
S'Stewart'
p89
tp90
I2087
s(S"O'Meara"
p91
S'Mark'
p92
tp93
I100
s(S'King'
p94
S'Corbin'
p95
tp96
I1155
s(S'Jones'
p97
S'Steve'
p98
tp99
I74
s(S'Ajubita'
p100
S'Neal'
p101
tp102
I1772
s(S'Jones'
p103
S'Brendan'
p104
tp105
I848
s(S'Axley'
p106
S'Eric'
p107
tp108
I838
s(S'Karlberg'
p109
S'Rikard'
p110
tp111
I1910
s(S'Bradley'
p112
S'Michael'
p113
tp114
I14
s(S'McClellan'
p115
S'Robert'
p116
tp117
I1460
s(S'Itzen'
p118
S'Justin'
p119
tp120
I1567
s(S'Venezio'
p121
S'Daniel'
p122
tp123
I1903
s(S'Kodaira'
p124
S'Satoshi'
p125
tp126
I1658
s(S'Gilliam'
p127
S'Nick'
p128
tp129
I700
s(S'Muto'
p130
S'Toshinori'
p131
tp132
I1555
s(S'Ouellette'
p133
S'Ryan'
p134
tp135
I455
s(S'Wilson'
p136
S'Mike'
p137
tp138
I1182
s(S'Johnston'
p139
S'Mike'
p140
tp141
I1253
s(S'Spence'
p142
S'Nigel'
p143
tp144
I1801
s(S'Bradford'
p145
S'George'
p146
tp147
I696
s(S'Benedetti'
p148
S'Camilo'
p149
tp150
I515
s(S'Watts'
p151
S'Brian'
p152
tp153
I154
s(S'Rollins'
p154
S'John'
p155
tp156
I404
s(S'Yurkiewicz'
p157
S'Jeff'
p158
tp159
I513
s(S'Widener'
p160
S'Jason'
p161
tp162
I2073
s(S'Rask'
p163
S'Clayton'
p164
tp165
I1916
s(S'MacPherson'
p166
S'Bryden'
p167
tp168
I1583
s(S'Gay'
p169
S'Brian'
p170
tp171
I302
s(S'Watson'
p172
S'Denis'
p173
tp174
I153
s(S'Dvorak'
p175
S'Doug'
p176
tp177
I1241
s(S'Kealey'
p178
S'Craig'
p179
tp180
I795
s(S'Holmes'
p181
S'David'
p182
tp183
I1800
s(S'Browne'
p184
S'Olin'
p185
tp186
I17
s(S'McClain'
p187
S'Wesley'
p188
tp189
I2022
s(S'Gutgsell'
p190
S'Austin'
p191
tp192
I1614
s(S'Olsen'
p193
S'Dan'
p194
tp195
I600
s(S'Swafford'
p196
S'Hudson'
p197
tp198
I1737
s(S'Mackenzie'
p199
S'Brock'
p200
tp201
I744
s(S'Elliott'
p202
S'John'
p203
tp204
I789
s(S'Levesque'
p205
S'Dave'
p206
tp207
I1711
s(S'Osborne'
p208
S'William'
p209
tp210
I1610
s(S'Cabrera Bello'
p211
S'Rafa'
p212
tp213
I1552
s(S'Allem'
p214
S'Fulton'
p215
tp216
I1
s(S'Brooks'
p217
S'Mark'
p218
tp219
I16
s(S'Palmer'
p220
S'Ryan'
p221
tp222
I666
s(S'Takayama'
p223
S'Tadahiro'
p224
tp225
I1012
s(S'Fdez-Casta\xf1o'
p226
S'Gonzalo'
p227
tp228
I997
s(S'Dubuisson'
p229
S'Victor'
p230
tp231
I1721
s(S'Gruss'
p232
S'Andrew'
p233
tp234
I1245
s(S'Watney'
p235
S'Nick'
p236
tp237
I532
s(S'Hadley'
p238
S'Chesson'
p239
tp240
I1589
s(S'Cavanagh'
p241
S'Santiago'
p242
tp243
I1233
s(S'Jaeckel'
p244
S'Barry'
p245
tp246
I72
s(S'Sanchez'
p247
S'David'
p248
tp249
I1566
s(S'Yates'
p250
S'Greg'
p251
tp252
I1956
s(S'Smith'
p253
S'Nathan'
p254
tp255
I1715
s(S'Schulz'
p256
S'Ted'
p257
tp258
I1178
s(S'Ramey'
p259
S'Chad'
p260
tp261
I1895
s(S'Carrigan'
p262
S'Kevin'
p263
tp264
I1694
s(S'Polzin'
p265
S'Ryan'
p266
tp267
I1856
s(S'Cook'
p268
S'John'
p269
tp270
I31
s(S'Dennis'
p271
S'Clark'
p272
tp273
I767
s(S'McLardy'
p274
S'Andrew'
p275
tp276
I655
s(S'Senden'
p277
S'John'
p278
tp279
I349
s(S'Conway'
p280
S'Steve'
p281
tp282
I1149
s(S'Albertson'
p283
S'Anders'
p284
tp285
I2047
s(S'Sadlowski'
p286
S'Jamie'
p287
tp288
I2023
s(S'Kuehne'
p289
S'Hank'
p290
tp291
I426
s(S'Kruger'
p292
S"Jbe'"
p293
tp294
I1570
s(S'Vazquez'
p295
S'Sebastian'
p296
tp297
I1930
s(S'Willis'
p298
S'Garrett'
p299
tp300
I329
s(S'Dietsche'
p301
S'Paul'
p302
tp303
I256
s(S'Whitney'
p304
S'Tom'
p305
tp306
I2115
s(S'Heintz'
p307
S'Bob'
p308
tp309
I607
s(S'Bowden'
p310
S'Craig'
p311
tp312
I210
s(S'Pigman'
p313
S'Kenny'
p314
tp315
I2000
s(S'Wood'
p316
S'JJ'
p317
tp318
I2100
s(S'Narro'
p319
S'Jake'
p320
tp321
I415
s(S'Cline'
p322
S'Kelsey'
p323
tp324
I499
s(S'Huston'
p325
g269
tp326
I70
s(S'Kuwabara'
p327
S'Katsunori'
p328
tp329
I360
s(S'Sherfy'
p330
S'Brad'
p331
tp332
I181
s(S'Lavery'
p333
S'Mike'
p334
tp335
I730
s(S'Beckstrom'
p336
S'Colby'
p337
tp338
I904
s(S'Oda'
p339
S'Ryuichi'
p340
tp341
I1364
s(S'Johnson'
p342
S'Neil'
p343
tp344
I2061
s(S'Gangluff'
p345
S'Stephen'
p346
tp347
I852
s(S'Mahlberg'
p348
S'Scott'
p349
tp350
I1176
s(S'Osborn'
p351
S'Garrett'
p352
tp353
I1227
s(S'Cejka'
p354
S'Alex'
p355
tp356
I331
s(S'Duncan'
p357
S'Tyler'
p358
tp359
I2108
s(S'Dillow'
p360
S'Chris'
p361
tp362
I1172
s(S'Goich'
p363
S'George'
p364
tp365
I985
s(S'Brewbaker'
p366
S'Fielding'
p367
tp368
I1760
s(S'Edwards'
p369
S'David'
p370
tp371
I39
s(S'Duke'
p372
S'Ken'
p373
tp374
I624
s(S'Pate'
p375
S'Jerry'
p376
tp377
I104
s(S'Aguilar'
p378
S'Tony'
p379
tp380
I810
s(S'Brand'
p381
S'Christian'
p382
tp383
I1524
s(S'Tanaka'
p384
S'Hidemichi'
p385
tp386
I335
s(S'Lowe'
p387
S'Mitch'
p388
tp389
I946
s(S'Yun'
p390
S'Andrew'
p391
tp392
I2106
s(S'Bigley'
p393
S'Bryan'
p394
tp395
I1510
s(S'Faught'
p396
S'David'
p397
tp398
I660
s(S'Jones'
p399
S'Kent'
p400
tp401
I257
s(S'Baldwin'
p402
S'Chase'
p403
tp404
I1446
s(S'Pare'
p405
S'Troy'
p406
tp407
I922
s(S'Havret'
p408
S'Gregory'
p409
tp410
I1101
s(S'Hartwick'
p411
S'Jason'
p412
tp413
I742
s(S'Rank'
p414
S'Garrett'
p415
tp416
I1899
s(S'McLuen'
p417
S'Jay'
p418
tp419
I1641
s(S'Carter'
p420
S'Jim'
p421
tp422
I24
s(S'Imondi'
p423
S'Paul'
p424
tp425
I1584
s(S'Reeves'
p426
S'Zack'
p427
tp428
I1623
s(S'Price'
p429
S'Aron'
p430
tp431
I925
s(S'Mawjii'
p432
S'Abs'
p433
tp434
I1261
s(S'Yrene'
p435
S'Don'
p436
tp437
I658
s(S'Overton'
p438
S'Jeff'
p439
tp440
I917
s(S'Martin'
p441
S'Mike'
p442
tp443
I271
s(S'Shinaut'
p444
S'Tyson'
p445
tp446
I1420
s(S'Peters'
p447
S'Justin'
p448
tp449
I999
s(S'Jacobson'
p450
S'Freddie'
p451
tp452
I372
s(S'Howell'
p453
S'David'
p454
tp455
I343
s(S'Thomas'
p456
S'Craig'
p457
tp458
I608
s(S'Lehman'
p459
S'Tom'
p460
tp461
I78
s(S'Massey'
p462
S'Richard'
p463
tp464
I220
s(S'Bartoletti'
p465
S'Louis'
p466
tp467
I935
s(S'Scheffler'
p468
S'Scottie'
p469
tp470
I1778
s(S'Varner III'
p471
S'Harold'
p472
tp473
I1754
s(S'Vervaecke'
p474
S'Zack'
p475
tp476
I1897
s(S'Baker'
p477
S'Shawn'
p478
tp479
I886
s(S'Moore'
p480
S'Will'
p481
tp482
I430
s(S'Murphy'
p483
S'Sean'
p484
tp485
I171
s(S'Hill'
p486
S'Matt'
p487
tp488
I1340
s(S'Leibovich'
p489
S'Rick'
p490
tp491
I617
s(S'Pooley'
p492
S'Don'
p493
tp494
I579
s(S'Savage'
p495
S'Kevin'
p496
tp497
I630
s(S'Scott'
p498
S'Drew'
p499
tp500
I1234
s(S'Ames'
p501
S'Stephen'
p502
tp503
I160
s(S'Allan'
p504
g62
tp505
I370
s(S'Engler, Jr.'
p506
S'John'
p507
tp508
I1003
s(S'Sheehan'
p509
S'Paul'
p510
tp511
I837
s(S'Rogers'
p512
S'Chris'
p513
tp514
I1226
s(S'Deuel'
p515
S'Mike'
p516
tp517
I547
s(S'Finch'
p518
S'Richard'
p519
tp520
I1198
s(S'Olivo'
p521
S'Nate'
p522
tp523
I1511
s(S'Hickman'
p524
S'Joey'
p525
tp526
I1053
s(S'Smith'
p527
S'Michael*'
p528
tp529
I1818
s(S'Yates'
p530
S'Simon'
p531
tp532
I832
s(S'Mayfair'
p533
S'Billy'
p534
tp535
I91
s(S'Noh'
p536
S'Seung-Yul'
p537
tp538
I1374
s(S'Ping'
p539
S'David'
p540
tp541
I865
s(S'Koepka'
p542
S'Brooks'
p543
tp544
I1749
s(S'Beckman'
p545
S'Cameron'
p546
tp547
I280
s(S'Pope'
p548
S'Andy'
p549
tp550
I1661
s(S'Elder'
p551
S'Brad'
p552
tp553
I413
s(S'Kuchar'
p554
S'Matt'
p555
tp556
I411
s(S'Evanecz'
p557
S'Mitch'
p558
tp559
I1491
s(S'Sutherland'
p560
S'Kevin'
p561
tp562
I194
s(S'Malnati'
p563
S'Peter'
p564
tp565
I1738
s(S'Wadkins'
p566
S'Bobby'
p567
tp568
I1081
s(S'Byrd'
p569
S'Jonathan'
p570
tp571
I462
s(S'Corr'
p572
S'Jeff'
p573
tp574
I1814
s(S'Palmer'
p575
S'Arnold'
p576
tp577
I102
s(S'Russell'
p578
S'Terry'
p579
tp580
I807
s(S'Welch'
p581
S'Mike'
p582
tp583
I1070
s(S'Dodds'
p584
S'Trevor'
p585
tp586
I36
s(S'Vranesh'
p587
S'Brian'
p588
tp589
I1286
s(S'Yang'
p590
S'Gunn'
p591
tp592
I1868
s(S'Mulder'
p593
S'Brock'
p594
tp595
I1168
s(S'Blaum'
p596
S'Ryan'
p597
tp598
I1133
s(S'Chan'
p599
S'Lorens'
p600
tp601
I1326
s(S'Cook'
p602
S'Austin'
p603
tp604
I1784
s(S'Jacquelin'
p605
S'Raphael'
p606
tp607
I358
s(S'Gardner'
p608
S'Tom'
p609
tp610
I1604
s(S'Eichelberger'
p611
S'Dave'
p612
tp613
I565
s(S'Black'
p614
S'Chris'
p615
tp616
I1621
s(S'Ponchock'
p617
S'Del'
p618
tp619
I612
s(S'Atkins'
p620
S'Matt'
p621
tp622
I1949
s(S'Bohn'
p623
S'Douglas'
p624
tp625
I473
s(S'Connelly'
p626
S'Austin'
p627
tp628
I1892
s(S'Muehr'
p629
S'Michael'
p630
tp631
I297
s(S'Finau'
p632
S'Tony'
p633
tp634
I1143
s(S'Flores'
p635
S'Martin'
p636
tp637
I1030
s(S'Begay III'
p638
S'Notah'
p639
tp640
I308
s(S'Griff'
p641
S'Darren'
p642
tp643
I963
s(S'Grace'
p644
S'Branden'
p645
tp646
I1569
s(S'Wolcott'
p647
S'Ben'
p648
tp649
I2119
s(S'West'
p650
S'Heath'
p651
tp652
I903
s(S'Rokisky'
p653
S'Jody'
p654
tp655
I1056
s(S'van der Walt'
p656
S'Dawie'
p657
tp658
I1718
s(S'Parker'
p659
S'Chase'
p660
tp661
I1982
s(S'Lewis'
p662
S'J.L.'
p663
tp664
I80
s(S'Parry'
p665
S'Craig'
p666
tp667
I103
s(S'Bateman'
p668
S'Ahmad'
p669
tp670
I803
s(S'Freeman'
p671
S'Robin'
p672
tp673
I50
s(S'Ormsby'
p674
S'Wade'
p675
tp676
I2074
s(S'LaBelle II'
p677
S'Doug'
p678
tp679
I1100
s(S'Kesterson'
p680
S'Tanner'
p681
tp682
I1434
s(S'Singh'
p683
S'Jeev Milkha'
p684
tp685
I957
s(S'Danielson'
p686
S'Charlie'
p687
tp688
I1971
s(S'Corpening'
p689
S'Franklin'
p690
tp691
I1657
s(S'Bradshaw'
p692
S'David'
p693
tp694
I1454
s(S'Collins'
p695
S'Will'
p696
tp697
I1746
s(S'Schiene'
p698
S'Marty'
p699
tp700
I180
s(S'Armour'
p701
S'Ryan'
p702
tp703
I1093
s(S'Schutte'
p704
S'Warren'
p705
tp706
I1352
s(S'Duty'
p707
S'Patrick'
p708
tp709
I518
s(S'Lee'
p710
S'Sung Min'
p711
tp712
I2071
s(S'Meola'
p713
S'Charles'
p714
tp715
I551
s(S'Ricketts'
p716
S'Brian'
p717
tp718
I1611
s(S'Rominger'
p719
S'Martin'
p720
tp721
I996
s(S'Tiziani'
p722
S'Mario'
p723
tp724
I274
s(S'Canizares'
p725
S'Alejandro'
p726
tp727
I1123
s(S'Brehaut'
p728
S'Jeff'
p729
tp730
I228
s(S'Podas'
p731
S'David'
p732
tp733
I896
s(S'Bae'
p734
S'Sangmoon'
p735
tp736
I1302
s(S'van der Walt'
p737
S'Tjaart'
p738
tp739
I638
s(S'McCarron'
p740
S'Scott'
p741
tp742
I254
s(S'Molina'
p743
S'Mauricio'
p744
tp745
I1277
s(S'McGirt'
p746
S'William'
p747
tp748
I1170
s(S'McCarthy'
p749
S'Dan'
p750
tp751
I1912
s(S'Pacetti'
p752
S'Sean'
p753
tp754
I587
s(S'Yeckes'
p755
S'Jeffrey'
p756
tp757
I900
s(S'Baca'
p758
S'Ryan'
p759
tp760
I1375
s(S'Swan'
p761
S'Matthew'
p762
tp763
I1522
s(S'Power'
p764
S'Seamus'
p765
tp766
I1991
s(S'Leishman'
p767
S'Marc'
p768
tp769
I1290
s(S'Malm'
p770
S'Curtis'
p771
tp772
I1015
s(S'Scheer'
p773
S'Alan'
p774
tp775
I1771
s(S'Elliott'
p776
S'Jamie'
p777
tp778
I688
s(S'Olesen'
p779
S'Thorbj\xf8rn'
p780
tp781
I1663
s(S'Bushka'
p782
S'John'
p783
tp784
I1061
s(S'Haas, Jr.'
p785
S'Jay'
p786
tp787
I1052
s(S'Broadaway'
p788
S'Josh'
p789
tp790
I1458
s(S'Weintraub'
p791
S'Isaac'
p792
tp793
I1382
s(S'D\xedaz'
p794
S'Roberto'
p795
tp796
I2042
s(S'Piller'
p797
S'Martin'
p798
tp799
I1323
s(S'Vermeer'
p800
S'Ryan'
p801
tp802
I2094
s(S'Noll'
p803
S'David'
p804
tp805
I738
s(S'Sigg'
p806
S'Greyson'
p807
tp808
I2122
s(S'Goodwin'
p809
S'Shaun'
p810
tp811
I1049
s(S'Coetzee'
p812
S'George'
p813
tp814
I1644
s(S'Anderson'
p815
S'Chris'
p816
tp817
I408
s(S'Rau'
p818
S'Nathaniel'
p819
tp820
I1703
s(S'San Filippo'
p821
S'Mike'
p822
tp823
I932
s(S'Spengler'
p824
S'Dave'
p825
tp826
I779
s(S'Parry'
p827
S'Bryn'
p828
tp829
I1117
s(S'Mitchum'
p830
S'Kelly'
p831
tp832
I296
s(S'Sonnier'
p833
S'Greg'
p834
tp835
I1554
s(S'Young'
p836
S'Steven'
p837
tp838
I1802
s(S'Warren'
p839
S'Marc'
p840
tp841
I1713
s(S'Affrunti'
p842
S'Joe'
p843
tp844
I750
s(S'Wilcox'
p845
S'Will'
p846
tp847
I1427
s(S'Baker'
p848
S'Mark'
p849
tp850
I1649
s(S'Streelman'
p851
S'Kevin'
p852
tp853
I539
s(S'Barron'
p854
S'Doug'
p855
tp856
I315
s(S'Levet'
p857
S'Thomas'
p858
tp859
I283
s(S'Johnson'
p860
S'Vincent'
p861
tp862
I1331
s(S'Green'
p863
S'Nathan'
p864
tp865
I982
s(S'Maggert'
p866
S'Jeff'
p867
tp868
I87
s(S'Choi'
p869
S'Phillip'
p870
tp871
I1532
s(S'Pagunsan'
p872
S'Juvic'
p873
tp874
I1122
s(S'Dredge'
p875
S'Bradley'
p876
tp877
I836
s(S'Slattery'
p878
S'Kurt'
p879
tp880
I2054
s(S'Poncino'
p881
S'Vinnie'
p882
tp883
I1037
s(S'Rozo'
p884
S'Marcelo'
p885
tp886
I1847
s(S'Hatch'
p887
S'Terry'
p888
tp889
I830
s(S'Wise'
p890
S'Aaron'
p891
tp892
I1975
s(S'Kearney'
p893
S'Thomas'
p894
tp895
I1403
s(S'Andrade'
p896
S'Billy'
p897
tp898
I2
s(S'Murray'
p899
S'Tom'
p900
tp901
I1533
s(S'Tryon'
p902
S'Ty'
p903
tp904
I478
s(S'Peck'
p905
S'Brad'
p906
tp907
I1284
s(S'Meierdierks'
p908
S'Eric'
p909
tp910
I1347
s(S'Bourque'
p911
S'Casey'
p912
tp913
I1213
s(S'Heirakuji'
p914
S'Royden'
p915
tp916
I520
s(S'Hall'
p917
S'Kevin'
p918
tp919
I877
s(S'Hahn'
p920
S'James'
p921
tp922
I1655
s(S'Kaymer'
p923
S'Martin'
p924
tp925
I1208
s(S'Kim'
p926
S'Michael'
p927
tp928
I1698
s(S'Frazar'
p929
S'Harrison'
p930
tp931
I375
s(S'Mariano'
p932
S'Abe'
p933
tp934
I1146
s(S'Jacobsen'
p935
S'Peter'
p936
tp937
I71
s(S'Turnesa'
p938
S'Marc'
p939
tp940
I1205
s(S'Witherall'
p941
S'John'
p942
tp943
I521
s(S'Gibb'
p944
S'Judd'
p945
tp946
I1358
s(S'Silvers'
p947
S'Mark'
p948
tp949
I1665
s(S'Imano'
p950
S'Yasuharu'
p951
tp952
I382
s(S'Wilson'
p953
S'Brian'
p954
tp955
I601
s(S'Hoshino'
p956
S'Hidemasa'
p957
tp958
I1186
s(S'Evans'
p959
S'Barry'
p960
tp961
I506
s(S'Brown'
p962
S'Ted'
p963
tp964
I1371
s(S'Stegmaier'
p965
S'Brett'
p966
tp967
I1060
s(S'Griffith'
p968
S'Glen'
p969
tp970
I1684
s(S'Loar'
p971
S'Edward'
p972
tp973
I463
s(S'Wall'
p974
S'Anthony'
p975
tp976
I969
s(S'King'
p977
S'Danny'
p978
tp979
I1020
s(S'Merritt'
p980
S'Troy'
p981
tp982
I1392
s(S'Reid'
p983
S'Mike'
p984
tp985
I116
s(S'Mills'
p986
S'Corbin'
p987
tp988
I1606
s(S'Cole'
p989
S'Bobby'
p990
tp991
I30
s(S'Robinson'
p992
S'David'
p993
tp994
I1273
s(S'Foley'
p995
S'Kevin'
p996
tp997
I1745
s(S'Covello'
p998
S'Vince'
p999
tp1000
I1659
s(S'Vogel'
p1001
S'T.J.'
p1002
tp1003
I1690
s(S'Carranza'
p1004
S'Clodomiro'
p1005
tp1006
I483
s(S'Berganio, Jr.'
p1007
S'David'
p1008
tp1009
I202
s(S'Luck'
p1010
S'Curtis'
p1011
tp1012
I2013
s(S'Gibson'
p1013
S'Rhein'
p1014
tp1015
I1917
s(S'Long'
p1016
S'Michael'
p1017
tp1018
I821
s(S'Svensson'
p1019
S'Adam'
p1020
tp1021
I1704
s(S'Paratore'
p1022
S'Renato'
p1023
tp1024
I2103
s(S'Benjamin'
p1025
S'Brad'
p1026
tp1027
I1416
s(S'Hansen'
p1028
S'Jaysen'
p1029
tp1030
I2099
s(S'Leary'
p1031
S'John Ray'
p1032
tp1033
I393
s(S'Caldwell'
p1034
S'Rex'
p1035
tp1036
I23
s(S'Matsuyama'
p1037
S'Hideki'
p1038
tp1039
I1480
s(S'Fabel'
p1040
S'Brad'
p1041
tp1042
I43
s(S'Yelverton'
p1043
S'Tim'
p1044
tp1045
I1927
s(S'Soero'
p1046
S'Pierre-Henri'
p1047
tp1048
I1561
s(S'Delahoussaye'
p1049
S'Brent'
p1050
tp1051
I1051
s(S'Deason'
p1052
S'Chip'
p1053
tp1054
I1114
s(S'Morris'
p1055
S'Dustin'
p1056
tp1057
I1615
s(S'Harkins'
p1058
S'Brandon'
p1059
tp1060
I2105
s(S'Dobyns'
p1061
S'Matt'
p1062
tp1063
I1678
s(S'Meyer'
p1064
S'Greg'
p1065
tp1066
I610
s(S'Edfors'
p1067
S'Johan'
p1068
tp1069
I1014
s(S'Carbone'
p1070
S'Michael'
p1071
tp1072
I1071
s(S'Maginnes'
p1073
S'John'
p1074
tp1075
I236
s(S'Hronek'
p1076
S'David'
p1077
tp1078
I1740
s(S'Bowditch'
p1079
S'Steven'
p1080
tp1081
I862
s(S'Knaub'
p1082
S'Brandon'
p1083
tp1084
I747
s(S'Burgin'
p1085
S'Kelvin'
p1086
tp1087
I1162
s(S'Gleaton'
p1088
S'Todd'
p1089
tp1090
I618
s(S'Maness'
p1091
S'Mark'
p1092
tp1093
I88
s(S'Bourdy'
p1094
S'Gr\xe9gory'
p1095
tp1096
I1008
s(S'Curtis'
p1097
S'Ben'
p1098
tp1099
I399
s(S'Larrazabal'
p1100
S'Pablo'
p1101
tp1102
I1222
s(S'Worthington II'
p1103
S'Wyatt'
p1104
tp1105
I1976
s(S'Kurmel'
p1106
S'Chad'
p1107
tp1108
I1150
s(S'Stevens'
p1109
S'Craig'
p1110
tp1111
I135
s(S'Fdez-Castano'
p1112
S'Gonzalo'
p1113
tp1114
I997
s(S'Dou'
p1115
S'Zecheng'
p1116
tp1117
I2107
s(S'Elkington'
p1118
S'Steve'
p1119
tp1120
I41
s(S'Kim'
p1121
S'Anthony'
p1122
tp1123
I1072
s(S'Greenwell'
p1124
S'Robbie'
p1125
tp1126
I1732
s(S'Patten'
p1127
S'Zeb'
p1128
tp1129
I244
s(S'Harding'
p1130
S'Tom'
p1131
tp1132
I204
s(S'Niebrugge'
p1133
S'Jordan'
p1134
tp1135
I1779
s(S'Peterson'
p1136
S'John'
p1137
tp1138
I1597
s(S'Blackmar'
p1139
S'Phil'
p1140
tp1141
I11
s(S'Scott'
p1142
S'Adam'
p1143
tp1144
I452
s(S'Etulain'
p1145
S'Juli\xe1n'
p1146
tp1147
I1992
s(S'Church'
p1148
S'David'
p1149
tp1150
I611
s(S'Barber'
p1151
S'Blayne'
p1152
tp1153
I1673
s(S'Jack'
p1154
S'Billy'
p1155
tp1156
I818
s(S'Medlin'
p1157
S'Scott'
p1158
tp1159
I1353
s(S'Gleeton'
p1160
S'Tom'
p1161
tp1162
I569
s(S'Azinger'
p1163
S'Paul'
p1164
tp1165
I4
s(S'Fisher'
p1166
S'Darin'
p1167
tp1168
I2052
s(S'Gibson'
p1169
S'Kelly'
p1170
tp1171
I56
s(S'Dickerson'
p1172
S'Bubba'
p1173
tp1174
I496
s(S'Mathis'
p1175
g397
tp1176
I661
s(S'Wakefield'
p1177
S'Simon'
p1178
tp1179
I978
s(S'Hickson'
p1180
S'John'
p1181
tp1182
I801
s(S'Norman'
p1183
S'Greg'
p1184
tp1185
I98
s(S'Dougherty'
p1186
S'Sean'
p1187
tp1188
I1816
s(S'Kitayama'
p1189
S'Kurt'
p1190
tp1191
I2036
s(S'Hurley'
p1192
S'John'
p1193
tp1194
I1598
s(S'Kua'
p1195
S'T.J.'
p1196
tp1197
I1407
s(S'Carter'
p1198
S'Tom'
p1199
tp1200
I273
s(S'Woods'
p1201
S'Jim'
p1202
tp1203
I443
s(S'Welborn'
p1204
S'Ryan'
p1205
tp1206
I405
s(S'Teshima'
p1207
S'Taichi'
p1208
tp1209
I356
s(S'Claar'
p1210
g152
tp1211
I27
s(S'Streck'
p1212
S'Ron'
p1213
tp1214
I1349
s(S'McIlroy'
p1215
S'Rory'
p1216
tp1217
I1301
s(S'Hughes'
p1218
S'Bradley'
p1219
tp1220
I267
s(S'Sanchez'
p1221
S'Javier'
p1222
tp1223
I799
s(S'Miller'
p1224
S'Andy'
p1225
tp1226
I467
s(S'Skinner'
p1227
S'Sonny'
p1228
tp1229
I934
s(S'Kraft'
p1230
S'Greg'
p1231
tp1232
I162
s(S'Colsaerts'
p1233
S'Nicolas'
p1234
tp1235
I1546
s(S'Brown'
p1236
S'Mark'
p1237
tp1238
I966
s(S'Hart'
p1239
S'Jeff'
p1240
tp1241
I769
s(S'Nakamura'
p1242
S'Tatsuaki'
p1243
tp1244
I642
s(S'Winkel'
p1245
S'Chris'
p1246
tp1247
I436
s(S'Olson'
p1248
S'Leif'
p1249
tp1250
I1297
s(S'Owen'
p1251
S'Greg'
p1252
tp1253
I823
s(S'Polland'
p1254
S'Ben'
p1255
tp1256
I1887
s(S'Knost'
p1257
S'Colt'
p1258
tp1259
I1158
s(S'Halpen'
p1260
S'Todd'
p1261
tp1262
I1074
s(S'Morse'
p1263
S'John'
p1264
tp1265
I209
s(S'Bernard'
p1266
S'Hugo'
p1267
tp1268
I1988
s(S'White'
p1269
S'Dustin'
p1270
tp1271
I1024
s(S'Wolfes'
p1272
S'Scott'
p1273
tp1274
I1964
s(S'McRoy'
p1275
S'Spike'
p1276
tp1277
I230
s(S'Maruyama'
p1278
S'Shigeki'
p1279
tp1280
I286
s(S'Vomacka'
p1281
S'Dean'
p1282
tp1283
I1278
s(S'Downs'
p1284
S'Dennis'
p1285
tp1286
I1628
s(S'Sawada'
p1287
S'Jared'
p1288
tp1289
I1770
s(S'Cooper'
p1290
S'Cory'
p1291
tp1292
I1967
s(S'McMillan'
p1293
S'Robert'
p1294
tp1295
I1221
s(S'Rainaud'
p1296
S'Adam'
p1297
tp1298
I1786
s(S'Juszczyk'
p1299
S'Joseph'
p1300
tp1301
I1839
s(S'Sutton'
p1302
S'Hal'
p1303
tp1304
I139
s(S'Dully'
p1305
S'Frank'
p1306
tp1307
I973
s(S'Loupe'
p1308
S'Andrew'
p1309
tp1310
I1508
s(S'Stanger'
p1311
S'Jimmy'
p1312
tp1313
I2044
s(S'Sanday'
p1314
S'Jeff'
p1315
tp1316
I412
s(S'Regner'
p1317
S'Mike'
p1318
tp1319
I1153
s(S'Johnson'
p1320
S'Audie'
p1321
tp1322
I1544
s(S'Abery'
p1323
S'Warren'
p1324
tp1325
I824
s(S'Hall'
p1326
S'Tyler'
p1327
tp1328
I920
s(S'Thompson'
p1329
S'Michael'
p1330
tp1331
I1237
s(S'Biancalana'
p1332
S'Roy'
p1333
tp1334
I8
s(S'Harrington'
p1335
S'Scott'
p1336
tp1337
I722
s(S'Payne'
p1338
S'Brian'
p1339
tp1340
I875
s(S'Kalinowski'
p1341
S'Tom'
p1342
tp1343
I804
s(S'Smail'
p1344
S'David'
p1345
tp1346
I346
s(S'Miyazato'
p1347
S'Yusaku'
p1348
tp1349
I434
s(S'Lepp'
p1350
S'James'
p1351
tp1352
I509
s(S'Jeong'
p1353
S'Yeon Jin'
p1354
tp1355
I1481
s(S'Franco'
p1356
S'Carlos'
p1357
tp1358
I294
s(S'Glasson'
p1359
S'Bill'
p1360
tp1361
I57
s(S'Bilodeau'
p1362
S'Kyle'
p1363
tp1364
I1699
s(S'Tringale'
p1365
S'Cameron'
p1366
tp1367
I1401
s(S'Hughes'
p1368
S'Mackenzie'
p1369
tp1370
I1595
s(S'Hamilton'
p1371
S'Blair'
p1372
tp1373
I1902
s(S'Schnider'
p1374
S'David'
p1375
tp1376
I729
s(S'Murphy'
p1377
S'Trevor'
p1378
tp1379
I1240
s(S'Mullinax'
p1380
S'Trey'
p1381
tp1382
I1867
s(S'Armour III'
p1383
S'Tommy'
p1384
tp1385
I3
s(S'Sutcliffe'
p1386
S'Nevin'
p1387
tp1388
I401
s(S'Presnell'
p1389
S'Alistair'
p1390
tp1391
I1363
s(S'Watt'
p1392
S'Brady'
p1393
tp1394
I1756
s(S'Smith'
p1395
S'Jordan L'
p1396
tp1397
I2097
s(S'Blixt'
p1398
S'Jonas'
p1399
tp1400
I1557
s(S'Willmann'
p1401
S'Kyle'
p1402
tp1403
I902
s(S'Renner'
p1404
S'Jim'
p1405
tp1406
I1225
s(S'Stadler'
p1407
S'Kevin'
p1408
tp1409
I505
s(S'Barker'
p1410
S'Mickey'
p1411
tp1412
I905
s(S'Wonnell'
p1413
S'Clayton'
p1414
tp1415
I1685
s(S'Rahm'
p1416
S'Jon'
p1417
tp1418
I1869
s(S'Green'
p1419
S'Ken'
p1420
tp1421
I59
s(S'Davies'
p1422
S'Rhys'
p1423
tp1424
I1384
s(S'Swanson'
p1425
S'Tyler'
p1426
tp1427
I555
s(S'Berger'
p1428
S'Daniel'
p1429
tp1430
I1853
s(S'Behr'
p1431
S'Stephen'
p1432
tp1433
I968
s(S'Rody'
p1434
S'Tyler'
p1435
tp1436
I1627
s(S'Reynolds'
p1437
S'Greg'
p1438
tp1439
I514
s(S'Lowry'
p1440
S'Shane'
p1441
tp1442
I1334
s(S'Leon'
p1443
S'Hugo'
p1444
tp1445
I1324
s(S'Kai'
p1446
S'Shintaro'
p1447
tp1448
I1281
s(S'Hansen'
p1449
S'Soren'
p1450
tp1451
I1194
s(S'Molder'
p1452
S'Bryce'
p1453
tp1454
I433
s(S'Hazen'
p1455
S'James'
p1456
tp1457
I1619
s(S'Hoey'
p1458
S'Michael'
p1459
tp1460
I1545
s(S'Kim'
p1461
S'Whee'
p1462
tp1463
I1848
s(S'Woodland'
p1464
S'Gary'
p1465
tp1466
I1315
s(S'Stankowski'
p1467
S'Paul'
p1468
tp1469
I231
s(S'Clampett'
p1470
S'Bobby'
p1471
tp1472
I927
s(S"O'Mahony"
p1473
S'Greg'
p1474
tp1475
I1499
s(S'Lunde'
p1476
S'Bill'
p1477
tp1478
I1105
s(S'Fisher Jr'
p1479
S'Trevor'
p1480
tp1481
I1360
s(S'Zaback'
p1482
S'Zach'
p1483
tp1484
I2062
s(S'Marquez'
p1485
S'Braxton'
p1486
tp1487
I1414
s(S'Thompson'
p1488
S'Curtis'
p1489
tp1490
I1798
s(S'Beard'
p1491
S'Michael'
p1492
tp1493
I659
s(S'Hend'
p1494
S'Scott'
p1495
tp1496
I662
s(S'Cooper'
p1497
S'Carl'
p1498
tp1499
I1632
s(S'Bova'
p1500
S'Matt'
p1501
tp1502
I1686
s(S'India'
p1503
S'Vince'
p1504
tp1505
I1933
s(S'Montgomerie'
p1506
S'Colin'
p1507
tp1508
I238
s(S'Dugas'
p1509
S'Eric'
p1510
tp1511
I1577
s(S'Jertson'
p1512
S'Marty'
p1513
tp1514
I1368
s(S'Fichardt'
p1515
S'Darren'
p1516
tp1517
I636
s(S'Waite'
p1518
S'Grant'
p1519
tp1520
I151
s(S'Thelen'
p1521
S'Tim'
p1522
tp1523
I581
s(S'Graham'
p1524
S'Austin'
p1525
tp1526
I1605
s(S'Hicks'
p1527
S'Justin*'
p1528
tp1529
I1456
s(S'Johnston'
p1530
S'Andrew'
p1531
tp1532
I1921
s(S'McDowell'
p1533
S'Graeme'
p1534
tp1535
I485
s(S'Adcock'
p1536
S'Mitch'
p1537
tp1538
I1181
s(S'Lee'
p1539
S'Matt'
p1540
tp1541
I2049
s(S'Penner'
p1542
S'Kevin'
p1543
tp1544
I1767
s(S'Downes'
p1545
S'Chris'
p1546
tp1547
I448
s(S'Morin'
p1548
S'Alan'
p1549
tp1550
I410
s(S'Williamson'
p1551
S'Jay'
p1552
tp1553
I252
s(S'Phengsavath'
p1554
S'Joe'
p1555
tp1556
I517
s(S'Lebeck'
p1557
S'David'
p1558
tp1559
I623
s(S'Bennett'
p1560
S'Mike'
p1561
tp1562
I814
s(S'Staten'
p1563
S'B.J.'
p1564
tp1565
I1000
s(S'Wilson'
p1566
S'Oliver'
p1567
tp1568
I1209
s(S'Points'
p1569
S'D.A.'
p1570
tp1571
I692
s(S'de Jonge'
p1572
S'Brendon'
p1573
tp1574
I1106
s(S'Butcher'
p1575
S'Rodney'
p1576
tp1577
I1271
s(S'Bermel'
p1578
S'John'
p1579
tp1580
I189
s(S'Hjertstedt'
p1581
S'Gabriel'
p1582
tp1583
I363
s(S'Toms'
p1584
S'David'
p1585
tp1586
I142
s(S'Gregory'
p1587
S'Greg'
p1588
tp1589
I2093
s(S'Teater'
p1590
S'Josh'
p1591
tp1592
I878
s(S'Block'
p1593
S'Michael'
p1594
tp1595
I1634
s(S'Reed'
p1596
S'Stephen'
p1597
tp1598
I1025
s(S'Oosthuizen'
p1599
S'Louis'
p1600
tp1601
I1005
s(S'Liu'
p1602
S'Yan Wei'
p1603
tp1604
I1747
s(S'Johnson'
p1605
S'Dustin'
p1606
tp1607
I1163
s(S'Zhang'
p1608
S'Lian-Wei'
p1609
tp1610
I649
s(S'Fujikawa'
p1611
S'Tadd'
p1612
tp1613
I1140
s(S'Tian Liang'
p1614
S'Guan'
p1615
tp1616
I1675
s(S'Kokrak'
p1617
S'Jason'
p1618
tp1619
I1473
s(S'Hwang'
p1620
S'Jay'
p1621
tp1622
I1603
s(S'Renner'
p1623
S'Jack'
p1624
tp1625
I117
s(S'Giles'
p1626
S'Matthew'
p1627
tp1628
I1562
s(S'Weaver'
p1629
S'Drew'
p1630
tp1631
I1224
s(S'Karlsson'
p1632
S'Robert'
p1633
tp1634
I305
s(S'Sauers'
p1635
S'Gene'
p1636
tp1637
I125
s(S'Schmuhl'
p1638
S'Jason'
p1639
tp1640
I1328
s(S'Payne'
p1641
S'Jordan'
p1642
tp1643
I1445
s(S'Choi'
p1644
S'Albin'
p1645
tp1646
I1520
s(S'Flanagan'
p1647
S'Nick'
p1648
tp1649
I723
s(S'Strickler'
p1650
S'Will'
p1651
tp1652
I1495
s(S'Senior'
p1653
S'Peter'
p1654
tp1655
I580
s(S'Miller'
p1656
S'Scott'
p1657
tp1658
I1018
s(S'Okamura'
p1659
S'Garrett'
p1660
tp1661
I1876
s(S'Durant'
p1662
S'Joe'
p1663
tp1664
I196
s(S'Ruiz'
p1665
S'Mike'
p1666
tp1667
I690
s(S'Hadwin'
p1668
S'Adam'
p1669
tp1670
I1400
s(S'Wax'
p1671
S'Danny'
p1672
tp1673
I1402
s(S'Muttitt'
p1674
S'David'
p1675
tp1676
I1943
s(S'Green'
p1677
S'Garland'
p1678
tp1679
I1898
s(S'Daly'
p1680
S'John'
p1681
tp1682
I34
s(S'Ruddo'
p1683
S'Tim'
p1684
tp1685
I1055
s(S'Kamte'
p1686
S'James'
p1687
tp1688
I1296
s(S'Soli'
p1689
S'Mick'
p1690
tp1691
I933
s(S'Schouller, Jr.'
p1692
S'Jim'
p1693
tp1694
I711
s(S'Branham'
p1695
S'David'
p1696
tp1697
I752
s(S'Dodd'
p1698
S'Stephen'
p1699
tp1700
I806
s(S'Hensby'
p1701
S'Mark'
p1702
tp1703
I328
s(S'Peck'
p1704
S'Jeff'
p1705
tp1706
I1373
s(S'Pride'
p1707
S'Dicky'
p1708
tp1709
I249
s(S'North'
p1710
S'Andy'
p1711
tp1712
I931
s(S'Griffin'
p1713
S'Lanto'
p1714
tp1715
I1509
s(S'Simpson'
p1716
S'Webb'
p1717
tp1718
I1040
s(S'Kiyota'
p1719
S'Taichiro'
p1720
tp1721
I385
s(S'Homa'
p1722
S'Max'
p1723
tp1724
I1759
s(S'Bryant'
p1725
S'Brad'
p1726
tp1727
I19
s(S'Guetz'
p1728
S'Brian'
p1729
tp1730
I972
s(S'Schlottman'
p1731
S'Ben'
p1732
tp1733
I1901
s(S'Foster'
p1734
S'Mark'
p1735
tp1736
I391
s(S'Gates'
p1737
S'Bobby'
p1738
tp1739
I1321
s(S'Lile'
p1740
S'Craig'
p1741
tp1742
I1098
s(S'Goldberg'
p1743
S'Aaron'
p1744
tp1745
I1395
s(S'Miller'
p1746
S'Mike'
p1747
tp1748
I1777
s(S'Prince'
p1749
S'Patrick'
p1750
tp1751
I619
s(S'Thompson'
p1752
S'Nicholas'
p1753
tp1754
I1034
s(S'Sullivan'
p1755
S'Chip'
p1756
tp1757
I137
s(S'MacKenzie'
p1758
S'Will'
p1759
tp1760
I860
s(S'Harmon'
p1761
S'Mike'
p1762
tp1763
I571
s(S'Bensel'
p1764
S'Frank'
p1765
tp1766
I979
s(S'Sterne'
p1767
S'Richard'
p1768
tp1769
I1113
s(S'Arp'
p1770
S'Riley'
p1771
tp1772
I2021
s(S'Prowse'
p1773
S'Dean'
p1774
tp1775
I593
s(S'Kennedy'
p1776
S'Ryan'
p1777
tp1778
I1874
s(S'Tyler'
p1779
S'Nathan'
p1780
tp1781
I1389
s(S'Stricker'
p1782
S'Steve'
p1783
tp1784
I188
s(S'Jobe'
p1785
S'Brandt'
p1786
tp1787
I191
s(S'Miyase'
p1788
S'Hirofumi'
p1789
tp1790
I616
s(S'Ross'
p1791
S'Christopher'
p1792
tp1793
I1437
s(S'Floyd'
p1794
S'Robert'
p1795
tp1796
I1092
s(S'Fowler'
p1797
S'Rickie'
p1798
tp1799
I1236
s(S'Brigman'
p1800
S'D.J.'
p1801
tp1802
I679
s(S'Freeman'
p1803
S'Cody'
p1804
tp1805
I1010
s(S'Mize'
p1806
S'Larry'
p1807
tp1808
I95
s(S'Paolucci'
p1809
S'Anthony'
p1810
tp1811
I1503
s(S'Peterson'
p1812
S'Matt'
p1813
tp1814
I184
s(S'Grillo'
p1815
S'Emiliano'
p1816
tp1817
I1815
s(S'Summerhays'
p1818
S'Daniel'
p1819
tp1820
I1457
s(S'Bertsch'
p1821
S'Shane'
p1822
tp1823
I945
s(S'Cabrera'
p1824
S'\xc1ngel'
p1825
tp1826
I359
s(S'Doyle'
p1827
S'Matt'
p1828
tp1829
I828
s(S'Speight'
p1830
S'Josh'
p1831
tp1832
I1985
s(S'Schenk'
p1833
S'Adam'
p1834
tp1835
I2109
s(S'Moore'
p1836
S'Patrick'
p1837
tp1838
I352
s(S'Jaidee'
p1839
S'Thongchai'
p1840
tp1841
I454
s(S'Klein'
p1842
S'Jeff'
p1843
tp1844
I182
s(S'Hallberg'
p1845
S'Gary'
p1846
tp1847
I61
s(S'Tambellini'
p1848
S'Roger'
p1849
tp1850
I665
s(S'Haas'
p1851
S'Hunter'
p1852
tp1853
I858
s(S'Francis'
p1854
S'Philip'
p1855
tp1856
I1138
s(S'Stockton'
p1857
S'Brady'
p1858
tp1859
I1036
s(S'Heffernan'
p1860
S'Wesley'
p1861
tp1862
I988
s(S'Wolf'
p1863
S'Erik'
p1864
tp1865
I1204
s(S'Connell'
p1866
S'Michael'
p1867
tp1868
I981
s(S'Singh'
p1869
S'Vijay'
p1870
tp1871
I190
s(S'Fraser'
p1872
S'Marcus'
p1873
tp1874
I1359
s(S'Nelson'
p1875
S'Kirk'
p1876
tp1877
I222
s(S'Frost'
p1878
S'David'
p1879
tp1880
I52
s(S'Neil'
p1881
S'Bradley'
p1882
tp1883
I1866
s(S'Tataurangi'
p1884
S'Phil'
p1885
tp1886
I284
s(S'Langham'
p1887
S'Franklin'
p1888
tp1889
I242
s(S'Park'
p1890
S'Sung Joon'
p1891
tp1892
I1826
s(S'Pearson'
p1893
S'Michael'
p1894
tp1895
I450
s(S'Carpenter'
p1896
S'Alex'
p1897
tp1898
I1504
s(S'Giacomazzi'
p1899
S'Dino'
p1900
tp1901
I2110
s(S'Claxton'
p1902
S'Will'
p1903
tp1904
I1465
s(S'Faldo'
p1905
S'Nick'
p1906
tp1907
I44
s(S'Weekley'
p1908
S'Boo'
p1909
tp1910
I1120
s(S'Hall'
p1911
S'Gavin'
p1912
tp1913
I1440
s(S'Lederer'
p1914
S'Brett'
p1915
tp1916
I1394
s(S'Randolph'
p1917
S'Sam'
p1918
tp1919
I115
s(S'Flores'
p1920
S'Erik'
p1921
tp1922
I1531
s(S'Robbins'
p1923
S'Kyle'
p1924
tp1925
I1979
s(S'McKenzie'
p1926
S'David'
p1927
tp1928
I956
s(S'Nesbitt'
p1929
S'Drew'
p1930
tp1931
I2056
s(S'Stanley'
p1932
S'Kyle'
p1933
tp1934
I1152
s(S'Kohn'
p1935
S'Matthew'
p1936
tp1937
I1262
s(S'Morland IV'
p1938
S'David'
p1939
tp1940
I289
s(S'Capone'
p1941
S'Mike'
p1942
tp1943
I480
s(S'Adamonis'
p1944
S'Brad'
p1945
tp1946
I431
s(S'Sloan'
p1947
S'Roger'
p1948
tp1949
I1492
s(S'Otto'
p1950
S'Hennie'
p1951
tp1952
I395
s(S'Botes'
p1953
S'Desvonde'
p1954
tp1955
I637
s(S'Sabbatini'
p1956
S'Rory'
p1957
tp1958
I428
s(S'Lee'
p1959
S'D.H.'
p1960
tp1961
I1643
s(S'Lamely'
p1962
S'Derek'
p1963
tp1964
I751
s(S'Roach'
p1965
S'Wes'
p1966
tp1967
I1744
s(S'Williamson'
p1968
S'Peter'
p1969
tp1970
I1651
s(S'LaBarge'
p1971
S'Parker'
p1972
tp1973
I1493
s(S'Obremski'
p1974
S'Dan'
p1975
tp1976
I1701
s(S'Garza'
p1977
S'Dustin'
p1978
tp1979
I1428
s(S'Kamiyama'
p1980
S'Takashi'
p1981
tp1982
I839
s(S'McCallister'
p1983
S'Blaine'
p1984
tp1985
I92
s(S'Russell'
p1986
S'Jordan'
p1987
tp1988
I2027
s(S'Hutcherson'
p1989
S'Bobby'
p1990
tp1991
I1424
s(S'Kim'
p1992
S'K.T.'
p1993
tp1994
I1464
s(S'Dellostritto'
p1995
S'Ron'
p1996
tp1997
I805
s(S'Buckle'
p1998
S'Andrew'
p1999
tp2000
I1115
s(S'Bates'
p2001
S'Pat'
p2002
tp2003
I218
s(S'Frank'
p2004
S'Garrett'
p2005
tp2006
I1455
s(S'Parun'
p2007
S'Tim'
p2008
tp2009
I728
s(S'Martens'
p2010
S'Gibby'
p2011
tp2012
I511
s(S'Hull'
p2013
S'Brian'
p2014
tp2015
I344
s(S'Lee'
p2016
S'Lucas'
p2017
tp2018
I1325
s(S'Perez'
p2019
S'Pat'
p2020
tp2021
I446
s(S'Cantlay'
p2022
S'Patrick'
p2023
tp2024
I1517
s(S'Conley'
p2025
S'Tim'
p2026
tp2027
I247
s(S'Strange'
p2028
S'Curtis'
p2029
tp2030
I136
s(S'Benepe'
p2031
S'Jim'
p2032
tp2033
I7
s(S'Anderson'
p2034
S'Billy'
p2035
tp2036
I1279
s(S'Kim'
p2037
S'Kenny'
p2038
tp2039
I1229
s(S'Schneiter'
p2040
S'Steve'
p2041
tp2042
I939
s(S'Brown'
p2043
S'Scott'
p2044
tp2045
I1565
s(S'Morse'
p2046
S'Andy'
p2047
tp2048
I586
s(S'Peters'
p2049
S'Austin'
p2050
tp2051
I1905
s(S'Lashley'
p2052
S'Nate'
p2053
tp2054
I1033
s(S'Oh'
p2055
g1375
tp2056
I717
s(S'Rivera'
p2057
S'Miguel'
p2058
tp2059
I749
s(S'Taniguchi'
p2060
S'Toru'
p2061
tp2062
I825
s(S'Cannon'
p2063
S'Will'
p2064
tp2065
I2069
s(S'Guillaume'
p2066
S'Vaita'
p2067
tp2068
I1626
s(S'Crane'
p2069
S'Ben'
p2070
tp2071
I425
s(S'Theegala'
p2072
S'Sahith'
p2073
tp2074
I2011
s(S'Stiles'
p2075
S'Darron'
p2076
tp2077
I388
s(S'Panek'
p2078
S'John'
p2079
tp2080
I1063
s(S'Merrick'
p2081
S'John'
p2082
tp2083
I1132
s(S'Killeen'
p2084
S'J.J.'
p2085
tp2086
I1572
s(S'Todd'
p2087
S'Brendon'
p2088
tp2089
I1313
s(S'Walker'
p2090
S'Jimmy'
p2091
tp2092
I488
s(S'Amershadian'
p2093
S'Jeff'
p2094
tp2095
I960
s(S'Karmis'
p2096
S'Peter'
p2097
tp2098
I1210
s(S'Villarreal'
p2099
S'Armando'
p2100
tp2101
I1757
s(S'Bolli'
p2102
S'Justin'
p2103
tp2104
I854
s(S'Tate'
p2105
S'Steven'
p2106
tp2107
I725
s(S'Starkjohann'
p2108
S'Chris'
p2109
tp2110
I780
s(S'Burke'
p2111
S'James'
p2112
tp2113
I1069
s(S'Herman'
p2114
S'Jim'
p2115
tp2116
I1476
s(S'Pellegrine'
p2117
S'Steve'
p2118
tp2119
I1148
s(S'Flesch'
p2120
S'Steve'
p2121
tp2122
I213
s(S'Mathias'
p2123
S'Jonathan'
p2124
tp2125
I890
s(S'Donaldson'
p2126
S'Jamie'
p2127
tp2128
I1550
s(S'Dyson'
p2129
S'Simon'
p2130
tp2131
I991
s(S'Whitekiller'
p2132
S'Trent'
p2133
tp2134
I1669
s(S'Hull'
p2135
S'Jeff'
p2136
tp2137
I1188
s(S'Wright'
p2138
S'Zach'
p2139
tp2140
I1977
s(S'Sullivan'
p2141
g984
tp2142
I138
s(S'Fox'
p2143
S'Benjamin'
p2144
tp2145
I1246
s(S'Levy'
p2146
S'Alexander'
p2147
tp2148
I1739
s(S'Anderson'
p2149
S'Jeremy'
p2150
tp2151
I471
s(S'Gomez'
p2152
S'Fabian'
p2153
tp2154
I1466
s(S'Maguire'
p2155
S'Jack'
p2156
tp2157
I1960
s(S'Grant'
p2158
S'Brent'
p2159
tp2160
I2007
s(S'Gaffney'
p2161
S'Brian'
p2162
tp2163
I1804
s(S'Evans'
p2164
S'Chris'
p2165
tp2166
I1990
s(S'Lyle'
p2167
S'Jarrod'
p2168
tp2169
I1125
s(S'Horschel'
p2170
S'Billy'
p2171
tp2172
I1305
s(S'Fieger'
p2173
S'Gene'
p2174
tp2175
I791
s(S'Labritz'
p2176
S'Rob'
p2177
tp2178
I1909
s(S'Saka'
p2179
S'David'
p2180
tp2181
I1502
s(S'Avret'
p2182
S'Clint'
p2183
tp2184
I1044
s(S'Fischer'
p2185
S'Zack'
p2186
tp2187
I1689
s(S'McLean'
p2188
S'James'
p2189
tp2190
I468
s(S'Lee'
p2191
S'Richard'
p2192
tp2193
I1169
s(S'Hopper'
p2194
S'Michael'
p2195
tp2196
I1877
s(S'Frittelli'
p2197
S'Dylan'
p2198
tp2199
I2096
s(S'St. Pierre'
p2200
S'Jim'
p2201
tp2202
I918
s(S'Lindheim'
p2203
S'Nicholas'
p2204
tp2205
I1995
s(S'Scott'
p2206
S'Kasey'
p2207
tp2208
I552
s(S'Brigman'
p2209
S'Jaxon'
p2210
tp2211
I173
s(S'Couch'
p2212
S'Chris'
p2213
tp2214
I613
s(S'Bartlett'
p2215
S'Jonathan'
p2216
tp2217
I1439
s(S'Schniederjans'
p2218
S'Ollie'
p2219
tp2220
I1864
s(S'Gallagher, Jr.'
p2221
S'Jim'
p2222
tp2223
I54
s(S'McGovern'
p2224
S'Jim'
p2225
tp2226
I169
s(S'Willman'
p2227
S'Ben'
p2228
tp2229
I1806
s(S'DeLaet'
p2230
S'Graham'
p2231
tp2232
I1129
s(S'Drewitt'
p2233
S'Brett'
p2234
tp2235
I1994
s(S'Iwata'
p2236
S'Hiroshi'
p2237
tp2238
I1298
s(S'Homan'
p2239
S'Wes'
p2240
tp2241
I1827
s(S'Lopez'
p2242
S'Lance'
p2243
tp2244
I1888
s(S'Rubinson'
p2245
S'Adam'
p2246
tp2247
I560
s(S'Moss'
p2248
S'Perry'
p2249
tp2250
I1351
s(S'Snedeker'
p2251
S'Haymes'
p2252
tp2253
I1346
s(S'Stockton, Jr.'
p2254
S'Dave'
p2255
tp2256
I205
s(S'Crain'
p2257
S'Andy'
p2258
tp2259
I710
s(S'Brodell'
p2260
S'Brian'
p2261
tp2262
I1342
s(S'Ormand'
p2263
S'Robby'
p2264
tp2265
I1913
s(S'Dalke'
p2266
S'Brad'
p2267
tp2268
I1972
s(S'Tewell'
p2269
S'Doug'
p2270
tp2271
I781
s(S'Aber'
p2272
S'John'
p2273
tp2274
I626
s(S'Silverman'
p2275
S'Ben'
p2276
tp2277
I1758
s(S'Worley, Jr.'
p2278
S'Carl'
p2279
tp2280
I487
s(S'Curran'
p2281
S'Jon'
p2282
tp2283
I1666
s(S'Schachner'
p2284
S'Michael'
p2285
tp2286
I1065
s(S'Madigan'
p2287
S'Timothy'
p2288
tp2289
I1780
s(S'Garland'
p2290
S'Rob'
p2291
tp2292
I1335
s(S'Kalinowski'
p2293
S'Bobby'
p2294
tp2295
I651
s(S'Risdon'
p2296
S'Dustin'
p2297
tp2298
I1207
s(S'Donald'
p2299
S'Luke'
p2300
tp2301
I437
s(S'LeBrun'
p2302
S'Steve'
p2303
tp2304
I884
s(S'Thompson'
p2305
S'Robert'
p2306
tp2307
I140
s(S'Gormley'
p2308
S'Jim'
p2309
tp2310
I1007
s(S'Fly'
p2311
S'Jonathan'
p2312
tp2313
I1613
s(S'Grob'
p2314
S'Mike'
p2315
tp2316
I224
s(S'Stroud'
p2317
S'Chris'
p2318
tp2319
I762
s(S'LoCicero'
p2320
S'Paul'
p2321
tp2322
I541
s(S'Kennerly'
p2323
S'Billy'
p2324
tp2325
I1523
s(S'Wall'
p2326
S'JJ'
p2327
tp2328
I753
s(S'Murray'
p2329
S'Grayson'
p2330
tp2331
I1993
s(S'McKay'
p2332
S'Billy'
p2333
tp2334
I915
s(S'Broadhurst'
p2335
S'Paul'
p2336
tp2337
I938
s(S'Springer'
p2338
S'Mike'
p2339
tp2340
I131
s(S'Fischer'
p2341
S'Todd'
p2342
tp2343
I317
s(S'Morgan'
p2344
g155
tp2345
I516
s(S'Weir'
p2346
S'Ben'
p2347
tp2348
I798
s(S'Gielow'
p2349
S'Brendan'
p2350
tp2351
I1441
s(S'Sim'
p2352
S'Michael'
p2353
tp2354
I874
s(S'Pollack'
p2355
S'Joe'
p2356
tp2357
I911
s(S'Isenhour'
p2358
S'Tripp'
p2359
tp2360
I605
s(S'Short'
p2361
S'Adam'
p2362
tp2363
I856
s(S'McCarty'
p2364
S'Sean'
p2365
tp2366
I250
s(S'Hanson'
p2367
S'Peter'
p2368
tp2369
I1191
s(S'Forsyth'
p2370
S'Alastair'
p2371
tp2372
I441
s(S'Meth'
p2373
S'Byron'
p2374
tp2375
I1934
s(S'Lu'
p2376
S'Shawn'
p2377
tp2378
I1969
s(S'Catalioto'
p2379
S'Martin'
p2380
tp2381
I1336
s(S'Ogilvy'
p2382
S'Geoff'
p2383
tp2384
I383
s(S'Hoffhine'
p2385
S'Ben'
p2386
tp2387
I537
s(S'Jenkins'
p2388
S'Carter'
p2389
tp2390
I2045
s(S'Lahiri'
p2391
S'Anirban'
p2392
tp2393
I1728
s(S'Rende'
p2394
S'Derek'
p2395
tp2396
I2067
s(S'Cairns'
p2397
g2162
tp2398
I1803
s(S'Stuard'
p2399
S'Brian'
p2400
tp2401
I1386
s(S'Kim'
p2402
S'Jae Yong'
p2403
tp2404
I2057
s(S'Echavarria'
p2405
S'Andres'
p2406
tp2407
I1834
s(S'Trahan'
p2408
S'D.J.'
p2409
tp2410
I432
s(S'Janewattananond'
p2411
S'Jazz'
p2412
tp2413
I2024
s(S'Mahoney'
p2414
S'Korey'
p2415
tp2416
I1066
s(S'Schleicher'
p2417
S'Troy'
p2418
tp2419
I1009
s(S'Barber'
p2420
S'Aaron'
p2421
tp2422
I373
s(S'Hansen'
p2423
S'Matt'
p2424
tp2425
I1023
s(S'Parra'
p2426
S'Chris'
p2427
tp2428
I994
s(S'Deane'
p2429
S'Stuart'
p2430
tp2431
I992
s(S'Traub'
p2432
S'John'
p2433
tp2434
I143
s(S'Lee'
p2435
S'Steve'
p2436
tp2437
I1514
s(S'Sorenstam'
p2438
S'Annika'
p2439
tp2440
I528
s(S'Davidson'
p2441
S'Matt'
p2442
tp2443
I888
s(S'Ching'
p2444
S'Alex'
p2445
tp2446
I1228
s(S'Wheeldon'
p2447
S'Riley'
p2448
tp2449
I1671
s(S'Blair'
p2450
S'Zac'
p2451
tp2452
I1855
s(S'Schmitt'
p2453
S'Phil'
p2454
tp2455
I847
s(S'Every'
p2456
S'Matt'
p2457
tp2458
I1028
s(S'Henke'
p2459
S'Nolan'
p2460
tp2461
I67
s(S'Ogilvie'
p2462
S'Joe'
p2463
tp2464
I652
s(S'Fryatt'
p2465
S'Edward'
p2466
tp2467
I310
s(S'Lancaster'
p2468
S'Neal'
p2469
tp2470
I176
s(S'Damron'
p2471
S'Robert'
p2472
tp2473
I303
s(S'MacKellar'
p2474
S'Bryant'
p2475
tp2476
I668
s(S'Chopra'
p2477
S'Daniel'
p2478
tp2479
I639
s(S'Cleland'
p2480
S'Rocky'
p2481
tp2482
I1444
s(S'Olazabal'
p2483
S'Jose Maria'
p2484
tp2485
I179
s(S'Pepperell'
p2486
S'Eddie'
p2487
tp2488
I1831
s(S'Hietala'
p2489
S'Ryan'
p2490
tp2491
I980
s(S'Piercy'
p2492
S'Scott'
p2493
tp2494
I491
s(S'Huber'
p2495
S'Keith'
p2496
tp2497
I855
s(S'Johnson'
p2498
S'Kevin'
p2499
tp2500
I786
s(S'Garrido'
p2501
S'Ignacio'
p2502
tp2503
I332
s(S'Skinns'
p2504
S'David'
p2505
tp2506
I1640
s(S'Castillo, Jr.'
p2507
S'Ron'
p2508
tp2509
I663
s(S'Suppa'
p2510
S'Kyle'
p2511
tp2512
I1875
s(S'Haas'
p2513
S'Jerry'
p2514
tp2515
I570
s(S'Hendrix'
p2516
S'Matt'
p2517
tp2518
I741
s(S'Ten Broeck'
p2519
S'Lance'
p2520
tp2521
I1179
s(S'Takeya'
p2522
S'Yoshitaka'
p2523
tp2524
I1726
s(S'Marshall'
p2525
S'Matt'
p2526
tp2527
I1490
s(S'G\xf3mez'
p2528
S'Fabi\xe1n'
p2529
tp2530
I1466
s(S'DeFrancesco'
p2531
S'Wayne'
p2532
tp2533
I800
s(S'Hattori'
p2534
S'Richard'
p2535
tp2536
I1683
s(S'Kestner'
p2537
S'Darrell'
p2538
tp2539
I574
s(S'Putnam'
p2540
S'Andrew'
p2541
tp2542
I1736
s(S'Lamontagne'
p2543
S'Steve'
p2544
tp2545
I1267
s(S'Rai'
p2546
S'Aaron'
p2547
tp2548
I2081
s(S'Caron'
p2549
S'Jason'
p2550
tp2551
I429
s(S'Kirk'
p2552
g361
tp2553
I1164
s(S'Ferrell'
p2554
S'Jess'
p2555
tp2556
I1620
s(S'Portie'
p2557
S'Ben'
p2558
tp2559
I872
s(S'Kelly'
p2560
S'Shawn'
p2561
tp2562
I232
s(S'Volk'
p2563
S'Dustin'
p2564
tp2565
I1751
s(S'Bates'
p2566
S'Ben'
p2567
tp2568
I1348
s(S'Dougherty'
p2569
S'Ed'
p2570
tp2571
I38
s(S'Lee'
p2572
S'Walker'
p2573
tp2574
I2092
s(S'Glover'
p2575
S'Lucas'
p2576
tp2577
I705
s(S'Kang'
p2578
S'Alex'
p2579
tp2580
I2113
s(S'Golding'
p2581
S'Kevin'
p2582
tp2583
I1885
s(S'Cooke'
p2584
S'Alan'
p2585
tp2586
I2064
s(S'Flynn'
p2587
S'Michael'
p2588
tp2589
I377
s(S'Janneck'
p2590
S'Frederick'
p2591
tp2592
I1945
s(S'Tomasulo'
p2593
S'Peter'
p2594
tp2595
I894
s(S'Wise'
p2596
S'Paul'
p2597
tp2598
I1180
s(S'Baldwin'
p2599
S'Mark'
p2600
tp2601
I1813
s(S'DeForest'
p2602
S'Christopher'
p2603
tp2604
I1516
s(S'Turner'
p2605
S'Jerod'
p2606
tp2607
I1391
s(S'Nicklaus'
p2608
S'Jack'
p2609
tp2610
I97
s(S'Burns'
p2611
S'Bob'
p2612
tp2613
I200
s(S'Imahira'
p2614
S'Shugo'
p2615
tp2616
I2075
s(S'Hart'
p2617
S'Adam'
p2618
tp2619
I1915
s(S'Mickelson'
p2620
S'Phil'
p2621
tp2622
I94
s(S'Bauman'
p2623
S'Doug'
p2624
tp2625
I785
s(S'Olson'
p2626
S'Eddie'
p2627
tp2628
I1448
s(S'Tanner'
p2629
S'Todd'
p2630
tp2631
I846
s(S'DeChambeau'
p2632
S'Bryson'
p2633
tp2634
I1894
s(S'Molinari'
p2635
S'Edoardo'
p2636
tp2637
I983
s(S'Mattiace'
p2638
S'Len'
p2639
tp2640
I90
s(S'Smith'
p2641
S'Scott'
p2642
tp2643
I1526
s(S'Greyserman'
p2644
S'Max'
p2645
tp2646
I2088
s(S'Struver'
p2647
S'Sven'
p2648
tp2649
I632
s(S'Persons'
p2650
S'Josh'
p2651
tp2652
I1670
s(S'Barrett'
p2653
S'Andy'
p2654
tp2655
I755
s(S'van Tonder'
p2656
S'Daniel'
p2657
tp2658
I1833
s(S'Arendell'
p2659
S'Connor'
p2660
tp2661
I1676
s(S'Zackheim'
p2662
S'Eli'
p2663
tp2664
I743
s(S'Byrne'
p2665
S'David'
p2666
tp2667
I1599
s(S'Touma'
p2668
S'Ricky'
p2669
tp2670
I695
s(S'Love IV'
p2671
S'Davis'
p2672
tp2673
I1937
s(S'Baker'
p2674
S'Chris'
p2675
tp2676
I1919
s(S'Main'
p2677
S'Gregor'
p2678
tp2679
I1330
s(S'Gilchrest'
p2680
S'Matt'
p2681
tp2682
I1984
s(S'Schwamkrug'
p2683
S'Victor'
p2684
tp2685
I653
s(S'Yano'
p2686
S'Azuma'
p2687
tp2688
I975
s(S'Fukabori'
p2689
S'Keiichiro'
p2690
tp2691
I640
s(S'Van Aswegen'
p2692
S'Tyrone'
p2693
tp2694
I1719
s(S'Heintz'
p2695
S'Chris'
p2696
tp2697
I727
s(S'Meesawat'
p2698
S'Prom'
p2699
tp2700
I1109
s(S'Pinckney'
p2701
S'Scott'
p2702
tp2703
I1838
s(S'Sonoda'
p2704
S'Shunsuke'
p2705
tp2706
I1472
s(S'McDonald'
p2707
S'Bill'
p2708
tp2709
I1086
s(S'Sluman'
p2710
S'Jeff'
p2711
tp2712
I128
s(S'Wilson'
p2713
S'Dean*'
p2714
tp2715
I726
s(S'Pernice Jr.'
p2716
g460
tp2717
I109
s(S'Lee'
p2718
S'Ki Taek'
p2719
tp2720
I1773
s(S'Williams'
p2721
S'Ryan'
p2722
tp2723
I2055
s(S'Kohles'
p2724
S'Ben'
p2725
tp2726
I1624
s(S'Smith'
p2727
S'Cameron'
p2728
tp2729
I1840
s(S'Moore'
p2730
S'Ryan'
p2731
tp2732
I712
s(S'Blakefield'
p2733
S'Mark'
p2734
tp2735
I1730
s(S'Bjornstad'
p2736
S'Henrik'
p2737
tp2738
I974
s(S'Henry'
p2739
S'J.J.'
p2740
tp2741
I421
s(S'Cantwell, Jr.'
p2742
S'Tim'
p2743
tp2744
I986
s(S'Johnson'
p2745
S'Zach'
p2746
tp2747
I438
s(S'Dawson'
p2748
S'Marco'
p2749
tp2750
I164
s(S'Boisvert'
p2751
S'Robert'
p2752
tp2753
I967
s(S'Smith'
p2754
S'Brian'
p2755
tp2756
I285
s(S'Ellis'
p2757
S'Danny'
p2758
tp2759
I291
s(S'Schwarzrock'
p2760
S'Brent'
p2761
tp2762
I407
s(S'Haas'
p2763
S'Jay'
p2764
tp2765
I60
s(S'Steele'
p2766
S'Brendan'
p2767
tp2768
I1469
s(S'Weaver'
p2769
S'Michael'
p2770
tp2771
I1842
s(S'Russell'
p2772
S'Casey'
p2773
tp2774
I2033
s(S'Rose'
p2775
S'Todd'
p2776
tp2777
I469
s(S'Scott'
p2778
S'Richard'
p2779
tp2780
I556
s(S'Rinker'
p2781
S'Larry'
p2782
tp2783
I119
s(S'Crouch'
p2784
S'Timothy'
p2785
tp2786
I1873
s(S'Saxton'
p2787
S'Reinier'
p2788
tp2789
I1295
s(S'Pastore'
p2790
S'David'
p2791
tp2792
I1871
s(S'Putnam'
p2793
S'Michael'
p2794
tp2795
I921
s(S'Mallinger'
p2796
S'John'
p2797
tp2798
I1013
s(S'Curiel'
p2799
S'Scott'
p2800
tp2801
I766
s(S'Green'
p2802
S'Hunter'
p2803
tp2804
I1781
s(S'Rummings'
p2805
S'Mark'
p2806
tp2807
I1151
s(S'Smith'
p2808
S'Byron'
p2809
tp2810
I1807
s(S'Loftsson'
p2811
S'Olafur'
p2812
tp2813
I1528
s(S'Lenahan'
p2814
S'Ryan'
p2815
tp2816
I1793
s(S'Renfrew'
p2817
S'Cory'
p2818
tp2819
I1571
s(S'Deruntz'
p2820
S'Robert'
p2821
tp2822
I627
s(S'Miller'
p2823
S'Brian'
p2824
tp2825
I1134
s(S'Wilson'
p2826
S'Dean'
p2827
tp2828
I277
s(S'Hampshire'
p2829
S'Travis'
p2830
tp2831
I1478
s(S'Snedeker'
p2832
S'Brandt'
p2833
tp2834
I736
s(S'Sjoholm'
p2835
S'Joel'
p2836
tp2837
I1314
s(S'Kaufman'
p2838
S'Smylie'
p2839
tp2840
I1860
s(S'Wadkins'
p2841
S'Lanny'
p2842
tp2843
I782
s(S'Naegel'
p2844
S'Chris'
p2845
tp2846
I1693
s(S'Duval'
p2847
S'David'
p2848
tp2849
I243
s(S'Lickliter II'
p2850
S'Frank'
p2851
tp2852
I269
s(S'Davis'
p2853
S'Brian'
p2854
tp2855
I374
s(S'Ishikawa'
p2856
S'Ryo'
p2857
tp2858
I1312
s(S'Faidley'
p2859
S'John'
p2860
tp2861
I1799
s(S'Cobb'
p2862
S'Brandon'
p2863
tp2864
I489
s(S'Reilly'
p2865
S'Steven'
p2866
tp2867
I1062
s(S'Jordan'
p2868
S'Pete'
p2869
tp2870
I175
s(S'Newman'
p2871
S'Jack'
p2872
tp2873
I1332
s(S'Chappell'
p2874
S'Kevin'
p2875
tp2876
I1244
s(S'Ilonen'
p2877
S'Mikko'
p2878
tp2879
I1638
s(S'Gray'
p2880
S'Chris'
p2881
tp2882
I1047
s(S'Campbell'
p2883
S'Peter'
p2884
tp2885
I1232
s(S'Floyd'
p2886
S'Raymond'
p2887
tp2888
I1077
s(S'Summerhays'
p2889
S'Joseph'
p2890
tp2891
I1908
s(S'Oda'
p2892
S'John'
p2893
tp2894
I1602
s(S'Cochran'
p2895
S'Russ'
p2896
tp2897
I29
s(S"La'Cassie"
p2898
S'Bronson'
p2899
tp2900
I1127
s(S'Gouveia'
p2901
S'Ricardo'
p2902
tp2903
I1948
s(S'Kelly'
p2904
S'Troy'
p2905
tp2906
I1303
s(S'Wadsworth'
p2907
S'Fred'
p2908
tp2909
I150
s(S'Zanotti'
p2910
S'Fabrizio'
p2911
tp2912
I1724
s(S'Hemmerich'
p2913
S'Chris'
p2914
tp2915
I1782
s(S'Myers II'
p2916
S'Clay'
p2917
tp2918
I1886
s(S'Black'
p2919
S'Ronnie'
p2920
tp2921
I9
s(S'Levin'
p2922
S'Spencer'
p2923
tp2924
I882
s(S'Sutherland'
p2925
S'David'
p2926
tp2927
I193
s(S'Wilkinson'
p2928
S'Tim'
p2929
tp2930
I475
s(S'Moody'
p2931
S'Chris'
p2932
tp2933
I2101
s(S'Fraustro'
p2934
S'Oscar'
p2935
tp2936
I1812
s(S'Hiratsuka'
p2937
S'Tetsuji'
p2938
tp2939
I673
s(S'Chin'
p2940
S'David'
p2941
tp2942
I1091
s(S'Bland'
p2943
S'Adam'
p2944
tp2945
I1121
s(S'Miyamoto'
p2946
S'Katsumasa'
p2947
tp2948
I1354
s(S'Schoolcraft'
p2949
S'Michael'
p2950
tp2951
I1955
s(S'Colligan'
p2952
S'Dennis'
p2953
tp2954
I702
s(S'Bj\xf8rn'
p2955
S'Thomas'
p2956
tp2957
I266
s(S'Nelson'
p2958
S'John*'
p2959
tp2960
I835
s(S'Taylor'
p2961
S'Vaughn'
p2962
tp2963
I667
s(S'Molinari'
p2964
S'Francesco'
p2965
tp2966
I1283
s(S'Wooding'
p2967
S'Joshua'
p2968
tp2969
I1410
s(S'Crowder'
p2970
S'Rett'
p2971
tp2972
I264
s(S'Riegger'
p2973
S'John'
p2974
tp2975
I118
s(S'Laws'
p2976
S'Peter'
p2977
tp2978
I557
s(S'Hardy'
p2979
S'Nick'
p2980
tp2981
I2048
s(S'Heyn'
p2982
S'Scott'
p2983
tp2984
I706
s(S'Campbell'
p2985
S'Matthew'
p2986
tp2987
I2090
s(S'Kawamura'
p2988
S'Masahiro'
p2989
tp2990
I1731
s(S'Schwab'
p2991
S'Matthias'
p2992
tp2993
I2012
s(S'Ulrich'
p2994
S'Gus'
p2995
tp2996
I1538
s(S'Alexander'
p2997
S'Carl'
p2998
tp2999
I643
s(S'Nirat'
p3000
S'Chapchai'
p3001
tp3002
I1218
s(S'Habig'
p3003
S'Josh'
p3004
tp3005
I995
s(S'Gossett'
p3006
S'David'
p3007
tp3008
I419
s(S'Solomon'
p3009
S'David'
p3010
tp3011
I1965
s(S'Mitchell'
p3012
S'Keith'
p3013
tp3014
I2043
s(S'Newcomb'
p3015
S'Patrick'
p3016
tp3017
I1844
s(S'Ryder'
p3018
S'Sam'
p3019
tp3020
I2079
s(S'Goosen'
p3021
S'Retief'
p3022
tp3023
I321
s(S'McDougall'
p3024
S'Matt'
p3025
tp3026
I464
s(S'Couture'
p3027
S'Rob'
p3028
tp3029
I1625
s(S'Hudson'
p3030
S'Bobby'
p3031
tp3032
I1513
s(S'McLister'
p3033
S'Joey'
p3034
tp3035
I1588
s(S'Kullberg'
p3036
S'Mike'
p3037
tp3038
I486
s(S'Champ'
p3039
S'Cameron'
p3040
tp3041
I2091
s(S'Kribel'
p3042
S'Joel'
p3043
tp3044
I400
s(S"O'Neal"
p3045
S'Michael'
p3046
tp3047
I1399
s(S'Lonard'
p3048
S'Peter'
p3049
tp3050
I348
s(S'Kelly'
p3051
S'Dave'
p3052
tp3053
I1039
s(S'Lynch'
p3054
S'John'
p3055
tp3056
I527
s(S'Burgoon'
p3057
S'Bronson'
p3058
tp3059
I1048
s(S'Janzen'
p3060
S'Lee'
p3061
tp3062
I73
s(S'Lewallen'
p3063
S'Rick'
p3064
tp3065
I1536
s(S'Thompson'
p3066
S'Matt'
p3067
tp3068
I1846
s(S'Healey'
p3069
S'James'
p3070
tp3071
I482
s(S'Van Sickle'
p3072
S'Mike'
p3073
tp3074
I1339
s(S'Ramsay'
p3075
S'Richie'
p3076
tp3077
I1142
s(S'Larrazabal'
p3078
S'Alejandro'
p3079
tp3080
I417
s(S'Forsman'
p3081
S'Dan'
p3082
tp3083
I49
s(S'Saavedra'
p3084
S'Sebastian'
p3085
tp3086
I1725
s(S'Whittaker'
p3087
S'Ron'
p3088
tp3089
I949
s(S'Roesch'
p3090
S'David'
p3091
tp3092
I669
s(S'Grunewald'
p3093
S'Kelly'
p3094
tp3095
I797
s(S'Schnell'
p3096
S'Brady'
p3097
tp3098
I1160
s(S'Woltman'
p3099
S'Dan'
p3100
tp3101
I1251
s(S'Wilson'
p3102
S'Cameron'
p3103
tp3104
I1748
s(S'Hayes'
p3105
g218
tp3106
I66
s(S'Bateman'
p3107
S'Brian'
p3108
tp3109
I207
s(S'Williams'
p3110
S'Lee'
p3111
tp3112
I1135
s(S'Boner'
p3113
S'Brett'
p3114
tp3115
I857
s(S'Werenski'
p3116
S'Richy'
p3117
tp3118
I1872
s(S'Poston'
p3119
S'J.T.'
p3120
tp3121
I1999
s(S'Hurley III'
p3122
S'Billy'
p3123
tp3124
I1041
s(S'Shelton'
p3125
S'Robby'
p3126
tp3127
I1861
s(S"O'Hair"
p3128
S'Sean'
p3129
tp3130
I853
s(S'Synkelma'
p3131
S'Jay'
p3132
tp3133
I1084
s(S'Gribble'
p3134
S'Cody'
p3135
tp3136
I1696
s(S'Bryan'
p3137
S'Wesley'
p3138
tp3139
I1962
s(S'Oberholser'
p3140
S'Arron'
p3141
tp3142
I347
s(S'Lepak'
p3143
S'John'
p3144
tp3145
I1308
s(S'Rose'
p3146
S'Justin'
p3147
tp3148
I396
s(S'Marchand'
p3149
S'David'
p3150
tp3151
I203
s(S'Ayers'
p3152
S'Dirk'
p3153
tp3154
I647
s(S'Schauffele'
p3155
S'Xander'
p3156
tp3157
I1961
s(S'Morrison'
p3158
S'James'
p3159
tp3160
I1810
s(S'Jewell'
p3161
S'Vince'
p3162
tp3163
I962
s(S'Cable'
p3164
S'GW'
p3165
tp3166
I685
s(S'Carballo'
p3167
S'Miguel Angel'
p3168
tp3169
I1558
s(S'Dunlap'
p3170
S'Scott'
p3171
tp3172
I165
s(S'Schneider'
p3173
S'Cory'
p3174
tp3175
I1311
s(S'Mast'
p3176
S'Dick'
p3177
tp3178
I89
s(S'Gallo'
p3179
S'Kyle'
p3180
tp3181
I544
s(S'Garrity'
p3182
S'Ryan'
p3183
tp3184
I1175
s(S'Rummells'
p3185
S'Dave'
p3186
tp3187
I123
s(S'Bettencourt'
p3188
S'Matt'
p3189
tp3190
I1272
s(S'McNerney'
p3191
S'Mike'
p3192
tp3193
I538
s(S'Bryan'
p3194
S'George'
p3195
tp3196
I595
s(S'Kjeldsen'
p3197
S'S\xf8ren'
p3198
tp3199
I406
s(S'Markle'
p3200
S'David'
p3201
tp3202
I1582
s(S'Maguire'
p3203
S'MJ'
p3204
tp3205
I1881
s(S'Leonard'
p3206
S'Justin'
p3207
tp3208
I262
s(S'Sheehan'
p3209
S'Patrick'
p3210
tp3211
I397
s(S'Sainz Jr'
p3212
S'Carlos'
p3213
tp3214
I1824
s(S'McCumber'
p3215
S'Mark'
p3216
tp3217
I773
s(S'McInerney'
p3218
S'A.J.'
p3219
tp3220
I2116
s(S'Randolph'
p3221
S'Jonathan'
p3222
tp3223
I1432
s(S'Horgan III'
p3224
S'P.H.'
p3225
tp3226
I770
s(S'Bungert'
p3227
S'John'
p3228
tp3229
I733
s(S'Fleetwood'
p3230
S'Tommy'
p3231
tp3232
I1727
s(S'Inman'
p3233
S'John'
p3234
tp3235
I1535
s(S'Furyk'
p3236
S'Jim'
p3237
tp3238
I258
s(S'Beljan'
p3239
S'Charlie'
p3240
tp3241
I1575
s(S'Mucha'
p3242
S'Bob'
p3243
tp3244
I597
s(S'Price'
p3245
S'Rick'
p3246
tp3247
I1269
s(S'Sutton'
p3248
S'Fred'
p3249
tp3250
I422
s(S'Lemke'
p3251
S'Niklas'
p3252
tp3253
I1118
s(S'Broberg'
p3254
S'Kristoffer'
p3255
tp3256
I1931
s(S'Schultz'
p3257
S'Jason'
p3258
tp3259
I961
s(S'Romero'
p3260
S'Eduardo'
p3261
tp3262
I122
s(S'Martin'
p3263
S'Jeff'
p3264
tp3265
I757
s(S'Hakes'
p3266
S'Steven'
p3267
tp3268
I891
s(S'Frost'
p3269
S'Charles'
p3270
tp3271
I1660
s(S'Noren'
p3272
S'Alexander'
p3273
tp3274
I1372
s(S'Beyer'
p3275
S'Cody'
p3276
tp3277
I524
s(S'Haas'
p3278
S'Bill'
p3279
tp3280
I461
s(S'Hebert'
p3281
S'Michael'
p3282
tp3283
I1769
s(S'Hnatiuk'
p3284
S'Glen'
p3285
tp3286
I235
s(S'Hutchins'
p3287
S'Jesse'
p3288
tp3289
I1723
s(S'Haley II'
p3290
S'Paul'
p3291
tp3292
I1601
s(S'Nazareth'
p3293
S'Savio'
p3294
tp3295
I1220
s(S'Peacock'
p3296
S'Oliver'
p3297
tp3298
I2030
s(S'Barron'
p3299
S'Derek'
p3300
tp3301
I2078
s(S'Westwood'
p3302
S'Lee'
p3303
tp3304
I326
s(S'Harvey'
p3305
S'Scott'
p3306
tp3307
I2084
s(S'Overton'
p3308
S'Jay'
p3309
tp3310
I578
s(S'Honeck'
p3311
S'Creighton'
p3312
tp3313
I1496
s(S'Goss'
p3314
S'Oliver'
p3315
tp3316
I1755
s(S'Norris'
p3317
S'Shaun'
p3318
tp3319
I2102
s(S'Scaletta'
p3320
S'Paul'
p3321
tp3322
I1636
s(S'Vargas'
p3323
S'James'
p3324
tp3325
I1712
s(S'Burns'
p3326
S'Sam'
p3327
tp3328
I1883
s(S'Banks'
p3329
S'Eric'
p3330
tp3331
I1705
s(S'Hoffman'
p3332
S'Charley'
p3333
tp3334
I288
s(S'Crim'
p3335
S'Rich'
p3336
tp3337
I545
s(S'Grisette'
p3338
S'Uly'
p3339
tp3340
I596
s(S'Rodriguez'
p3341
S'Jose de Jesus'
p3342
tp3343
I1477
s(S'Olson'
p3344
S'Blake'
p3345
tp3346
I1953
s(S'Thomson'
p3347
S'Oliver'
p3348
tp3349
I984
s(S'Matthews'
p3350
S'Andrew'
p3351
tp3352
I1110
s(S'Thompson'
p3353
S'Chris'
p3354
tp3355
I1708
s(S'Baryla'
p3356
S'Chris'
p3357
tp3358
I535
s(S'Boyd'
p3359
S'Bob'
p3360
tp3361
I765
s(S'Aiken'
p3362
S'Thomas'
p3363
tp3364
I1282
s(S'Taylor'
p3365
S'Ben'
p3366
tp3367
I1963
s(S'Driscoll'
p3368
S'James'
p3369
tp3370
I842
s(S'Coceres'
p3371
S'Jose'
p3372
tp3373
I306
s(S'Stanley'
p3374
S'Jon'
p3375
tp3376
I1540
s(S'Fox'
p3377
S'Steven'
p3378
tp3379
I1682
s(S'Kelly'
p3380
S'Sean'
p3381
tp3382
I2019
s(S'Baker'
p3383
S'Mike'
p3384
tp3385
I598
s(S'Godwin'
p3386
S'John'
p3387
tp3388
I260
s(S'Corcoran'
p3389
S'Rob'
p3390
tp3391
I1709
s(S'Obremski'
p3392
S'Daniel'
p3393
tp3394
I1701
s(S'Webb'
p3395
S'Brennan'
p3396
tp3397
I1377
s(S'Smith'
p3398
S'Stuart'
p3399
tp3400
I892
s(S'Sposa'
p3401
S'Mike'
p3402
tp3403
I268
s(S'Lowery'
p3404
g98
tp3405
I83
s(S'Cazaubon'
p3406
S'Rodolfo'
p3407
tp3408
I1946
s(S'Estes'
p3409
g2612
tp3410
I42
s(S'Rohlik'
p3411
S'Tony'
p3412
tp3413
I512
s(S'Duncan'
p3414
S'Brian'
p3415
tp3416
I1396
s(S'Johnson'
p3417
S'Michael'
p3418
tp3419
I1924
s(S'Marshall'
p3420
S'Ian'
p3421
tp3422
I1618
s(S'Reader'
p3423
S'Jeff'
p3424
tp3425
I1192
s(S'Knutzon'
p3426
S'Jason'
p3427
tp3428
I861
s(S'Ogrin'
p3429
S'David'
p3430
tp3431
I101
s(S'Campbell'
p3432
S'Chad'
p3433
tp3434
I276
s(S'Karlsson'
p3435
S'Jeff'
p3436
tp3437
I1922
s(S'Lee'
p3438
S'Richard*'
p3439
tp3440
I1592
s(S'Park'
p3441
S'Jae-bum'
p3442
tp3443
I1467
s(S'Flint'
p3444
S'Gavin'
p3445
tp3446
I885
s(S'Moore'
p3447
S'Taylor'
p3448
tp3449
I1974
s(S'Toulson'
p3450
S'Chris'
p3451
tp3452
I211
s(S'Stenson'
p3453
S'Henrik'
p3454
tp3455
I829
s(S'Wie'
p3456
S'Michelle'
p3457
tp3458
I718
s(S'Green'
p3459
S'Gavin Kyle'
p3460
tp3461
I2039
s(S'Thomas'
p3462
S'Justin'
p3463
tp3464
I1337
s(S'Stadler'
p3465
S'Craig'
p3466
tp3467
I132
s(S'Koepka'
p3468
S'Chase'
p3469
tp3470
I2016
s(S'Friend'
p3471
S'Bob'
p3472
tp3473
I51
s(S'McCorkle'
p3474
S'Todd'
p3475
tp3476
I1797
s(S'Jensen'
p3477
S'Clint'
p3478
tp3479
I672
s(S'Friesen'
p3480
S'Steve'
p3481
tp3482
I701
s(S'Muthiya'
p3483
S'Madalitso'
p3484
tp3485
I1031
s(S'Skayhan'
p3486
S'Ron'
p3487
tp3488
I270
s(S'Aldridge'
p3489
S'Tyler'
p3490
tp3491
I1307
s(S'Joyner'
p3492
S'Randy'
p3493
tp3494
I871
s(S'Mueller'
p3495
S'Jesse'
p3496
tp3497
I2112
s(S'Bunker'
p3498
S'Dave'
p3499
tp3500
I1436
s(S'Lankford'
p3501
S'Jeffrey'
p3502
tp3503
I77
s(S'Hogarth'
p3504
S'Tim'
p3505
tp3506
I1083
s(S'Nutt'
p3507
S'Bret'
p3508
tp3509
I1635
s(S'Khan'
p3510
S'Simon'
p3511
tp3512
I1362
s(S'Castillo'
p3513
S'Ron'
p3514
tp3515
I170
s(S'Holtby'
p3516
S'Paul'
p3517
tp3518
I614
s(S'Justesen'
p3519
S'Erick'
p3520
tp3521
I1397
s(S'Fiori'
p3522
S'Ed'
p3523
tp3524
I566
s(S'Smith'
p3525
S'Robin'
p3526
tp3527
I1259
s(S'Jones'
p3528
S'Brett'
p3529
tp3530
I1808
s(S'Burns'
p3531
S'George'
p3532
tp3533
I564
s(S'Fitzpatrick'
p3534
S'Matthew'
p3535
tp3536
I1762
s(S'Dartnall'
p3537
S'Steve'
p3538
tp3539
I1309
s(S'Villegas'
p3540
S'Manuel'
p3541
tp3542
I1390
s(S'Reifers'
p3543
S'Kyle'
p3544
tp3545
I1058
s(S'Yarnes'
p3546
S'David'
p3547
tp3548
I899
s(S'Dell'
p3549
S'David'
p3550
tp3551
I216
s(S'Lam'
p3552
S'Chih-Bing'
p3553
tp3554
I1285
s(S'Lee'
p3555
S'Regan'
p3556
tp3557
I519
s(S'Chin'
p3558
S'John'
p3559
tp3560
I1431
s(S'Sanders'
p3561
S'Andy'
p3562
tp3563
I498
s(S'Borchert'
p3564
S'Matthew'
p3565
tp3566
I1318
s(S'Sellers'
p3567
S'Kelly'
p3568
tp3569
I1197
s(S'Johnson'
p3570
S'Richard'
p3571
tp3572
I497
s(S'Peck'
p3573
S'Cameron'
p3574
tp3575
I1258
s(S'Woodard'
p3576
S'Stephen'
p3577
tp3578
I494
s(S'Seiffert'
p3579
S'Chase'
p3580
tp3581
I1695
s(S'Neher'
p3582
S'Jamie'
p3583
tp3584
I664
s(S'Uresti'
p3585
S'Omar'
p3586
tp3587
I602
s(S'Bramlett'
p3588
S'Joseph'
p3589
tp3590
I1426
s(S'Cabra'
p3591
S'Zach'
p3592
tp3593
I2034
s(S'Sessler'
p3594
S'Chris'
p3595
tp3596
I522
s(S'Faxon'
p3597
S'Brad'
p3598
tp3599
I45
s(S'Pan'
p3600
S'Cheng Tsung'
p3601
tp3602
I1811
s(S'Campbell'
p3603
S'Brian'
p3604
tp3605
I1863
s(S'Otte'
p3606
S'Preston'
p3607
tp3608
I1530
s(S'Lovemark'
p3609
S'Jamie'
p3610
tp3611
I1057
s(S'Wright'
p3612
S'Chase'
p3613
tp3614
I1630
s(S'Le\xf3n'
p3615
S'Hugo'
p3616
tp3617
I1324
s(S'Ruiz'
p3618
S'Johnny'
p3619
tp3620
I2059
s(S'Miller'
p3621
S'Brad'
p3622
tp3623
I1851
s(S'Personett'
p3624
S'Loren'
p3625
tp3626
I606
s(S'Martin'
p3627
S'Ben'
p3628
tp3629
I1488
s(S'Holland'
p3630
S'Charlie'
p3631
tp3632
I1688
s(S'Vincent'
p3633
S'Scott'
p3634
tp3635
I1825
s(S'Garrick'
p3636
S'Jonathan'
p3637
tp3638
I2010
s(S'Campos'
p3639
S'Rafael'
p3640
tp3641
I1914
s(S'Quinney'
p3642
S'Jeff'
p3643
tp3644
I472
s(S'Olson'
p3645
S'Jeff'
p3646
tp3647
I1829
s(S'Perks'
p3648
g666
tp3649
I265
s(S'Alexander'
p3650
S'Lonny'
p3651
tp3652
I739
s(S'Taylor'
p3653
g361
tp3654
I1171
s(S'Hamilton'
p3655
S'Todd'
p3656
tp3657
I63
s(S'Gilchrist'
p3658
S'Nate'
p3659
tp3660
I1068
s(S'Lamb'
p3661
S'Rick'
p3662
tp3663
I1997
s(S'Anderson'
p3664
S'Josh'
p3665
tp3666
I1327
s(S'Hoag'
p3667
S'Bo'
p3668
tp3669
I1581
s(S'Fasth'
p3670
S'Niclas'
p3671
tp3672
I341
s(S'Little II'
p3673
S'John'
p3674
tp3675
I1418
s(S'Zylstra'
p3676
S'Ryan'
p3677
tp3678
I1702
s(S'Maltbie'
p3679
S'Roger'
p3680
tp3681
I576
s(S'Love'
p3682
S'Dru'
p3683
tp3684
I1937
s(S'Snyder III'
p3685
S'Joey'
p3686
tp3687
I831
s(S'Lee'
p3688
S'Jun Hak'
p3689
tp3690
I1837
s(S'Broce'
p3691
S'Jamie'
p3692
tp3693
I1710
s(S'Quiros'
p3694
S'Alvaro'
p3695
tp3696
I1291
s(S'Alvarado'
p3697
S'Benjamin'
p3698
tp3699
I1475
s(S'Ackerman'
p3700
S'Bob'
p3701
tp3702
I562
s(S'Mu\xf1oz'
p3703
S'Sebasti\xe1n'
p3704
tp3705
I1998
s(S'Walewski'
p3706
S'Trey'
p3707
tp3708
I546
s(S'McCarthy'
p3709
S'Denny'
p3710
tp3711
I1959
s(S'Lemon'
p3712
S'Jim'
p3713
tp3714
I278
s(S'Fathauer'
p3715
S'Derek'
p3716
tp3717
I1173
s(S'Barcelo'
p3718
S'Rich'
p3719
tp3720
I674
s(S'McNealy'
p3721
S'Maverick'
p3722
tp3723
I1862
s(S'Norman'
p3724
S'Brian'
p3725
tp3726
I1794
s(S'Laird'
p3727
S'Martin'
p3728
tp3729
I1215
s(S'Boros'
p3730
S'Guy'
p3731
tp3732
I172
s(S'Johnson'
p3733
S'Mark'
p3734
tp3735
I357
s(S'Cauley'
p3736
S'Bud'
p3737
tp3738
I1415
s(S'Aragon'
p3739
S'Alex'
p3740
tp3741
I1004
s(S'Dougherty'
p3742
S'Nick'
p3743
tp3744
I442
s(S'Purtzer'
p3745
S'Tom'
p3746
tp3747
I776
s(S'Anderson'
p3748
S'Mark'
p3749
tp3750
I1333
s(S'Sill'
p3751
S'Brad'
p3752
tp3753
I2072
s(S'Potter, Jr.'
p3754
S'Ted'
p3755
tp3756
I1556
s(S'Tateyama'
p3757
S'Mitsuhiro'
p3758
tp3759
I1196
s(S'Greenwood'
p3760
S'Chris'
p3761
tp3762
I295
s(S'Arvold'
p3763
S'Tony'
p3764
tp3765
I542
s(S'Demattia'
p3766
S'Constant'
p3767
tp3768
I802
s(S'Wassem'
p3769
S'Heath'
p3770
tp3771
I625
s(S'Wiebe'
p3772
S'Gunner'
p3773
tp3774
I1408
s(S'Ciesielski'
p3775
S'Victor'
p3776
tp3777
I1076
s(S'Laudien'
p3778
S'Mike'
p3779
tp3780
I944
s(S'Kim'
p3781
S'Chan'
p3782
tp3783
I2077
s(S'Chawrasia'
p3784
S'SSP'
p3785
tp3786
I1200
s(S'Pullen'
p3787
S'Craig'
p3788
tp3789
I1156
s(S'McDonald'
p3790
S'Bruce'
p3791
tp3792
I947
s(S'Spallone'
p3793
S'Sal'
p3794
tp3795
I526
s(S'Paquet'
p3796
S'Brett'
p3797
tp3798
I694
s(S'Reed'
p3799
S'Curtis'
p3800
tp3801
I1954
s(S'Strange'
p3802
S'Scott'
p3803
tp3804
I1195
s(S'Love'
p3805
S'James'
p3806
tp3807
I1017
s(S'Templeton'
p3808
S'Jeff'
p3809
tp3810
I1413
s(S'Lowry'
p3811
S'Randy'
p3812
tp3813
I1647
s(S'Larsen'
p3814
S'Kevin'
p3815
tp3816
I1319
s(S'Micheel'
p3817
S'Shaun'
p3818
tp3819
I186
s(S'Garnett'
p3820
S'Brice'
p3821
tp3822
I1722
s(S'Mahan'
p3823
S'Hunter'
p3824
tp3825
I457
s(S'Mauchaza'
p3826
S'Nyasha'
p3827
tp3828
I1529
s(S'Durkin'
p3829
S'Kevin'
p3830
tp3831
I703
s(S'Warren'
p3832
S'Charles'
p3833
tp3834
I420
s(S'Sneve'
p3835
S'J.B.'
p3836
tp3837
I591
s(S'Pohl'
p3838
S'Dan'
p3839
tp3840
I113
s(S'Tway'
p3841
S'Kevin'
p3842
tp3843
I1479
s(S'Marksaeng'
p3844
S'Prayad'
p3845
tp3846
I1189
s(S'Laing'
p3847
S'Jason'
p3848
tp3849
I740
s(S'Poulter'
p3850
S'Ian'
p3851
tp3852
I439
s(S'Johnson'
p3853
S'Andrew'
p3854
tp3855
I1102
s(S'Day'
p3856
S'Jason'
p3857
tp3858
I1027
s(S'Moe'
p3859
S'Kris'
p3860
tp3861
I96
s(S'Reavie'
p3862
S'Chez'
p3863
tp3864
I709
s(S'Barranger'
p3865
S'Todd'
p3866
tp3867
I282
s(S'Zunic'
p3868
S'Jordan'
p3869
tp3870
I1925
s(S'Sturgeon'
p3871
S'Grant'
p3872
tp3873
I1820
s(S'Stone'
p3874
S'Brandon'
p3875
tp3876
I1926
s(S'Cayeux'
p3877
S'Marc'
p3878
tp3879
I834
s(S'Lipsky'
p3880
S'David'
p3881
tp3882
I1841
s(S'Bernakevitch'
p3883
S'Lindsay'
p3884
tp3885
I559
s(S'Veazey'
p3886
S'Vance'
p3887
tp3888
I290
s(S'Boudreau'
p3889
S'Ben'
p3890
tp3891
I1393
s(S'Leaney'
p3892
S'Stephen'
p3893
tp3894
I325
s(S'Thompson'
p3895
S'Kyle'
p3896
tp3897
I398
s(S'Knox'
p3898
S'Kenny'
p3899
tp3900
I575
s(S"O'Hern"
p3901
S'Nick'
p3902
tp3903
I657
s(S'Blean'
p3904
S'Bob'
p3905
tp3906
I201
s(S'Sutter'
p3907
S'Tom'
p3908
tp3909
I815
s(S'Robledo'
p3910
S'Roman'
p3911
tp3912
I2083
s(S'Kingston'
p3913
S'James'
p3914
tp3915
I1185
s(S'Nash'
p3916
S'Simon'
p3917
tp3918
I543
s(S'Hayes'
p3919
S'J.P.'
p3920
tp3921
I234
s(S'Peoples'
p3922
S'David'
p3923
tp3924
I108
s(S'Popovic'
p3925
S'Daniel'
p3926
tp3927
I1674
s(S'Kite'
p3928
S'Tom'
p3929
tp3930
I772
s(S'Goff'
p3931
S'Drew'
p3932
tp3933
I2038
s(S'Shindler'
p3934
S'Conrad'
p3935
tp3936
I1687
s(S'Schultz'
p3937
S'Dave'
p3938
tp3939
I1306
s(S'Siem'
p3940
S'Marcel'
p3941
tp3942
I670
s(S'Buha'
p3943
S'Jason'
p3944
tp3945
I444
s(S'Spaun'
p3946
S'J.J.'
p3947
tp3948
I1850
s(S'Walker'
p3949
S'Andy'
p3950
tp3951
I1551
s(S'Alker'
p3952
S'Steven'
p3953
tp3954
I355
s(S'Wilson'
p3955
S'Mark'
p3956
tp3957
I378
s(S'Cappelen'
p3958
S'Sebastian'
p3959
tp3960
I1828
s(S'Fisher'
p3961
S'Ross'
p3962
tp3963
I1214
s(S'Nosler'
p3964
S'Brian'
p3965
tp3966
I873
s(S'Rumford'
p3967
S'Brett'
p3968
tp3969
I677
s(S'Briggs'
p3970
S'Danny'
p3971
tp3972
I15
s(S'Atwal'
p3973
S'Arjun'
p3974
tp3975
I367
s(S'Brown'
p3976
S'Charlie'
p3977
tp3978
I629
s(S'Boyd'
p3979
S'Michael'
p3980
tp3981
I1107
s(S'Ramey'
p3982
S'Kyle'
p3983
tp3984
I2017
s(S'Littrell'
p3985
S'Don'
p3986
tp3987
I1768
s(S'Baillargeon'
p3988
S'Graham'
p3989
tp3990
I1320
s(S'Hoffmann'
p3991
S'Morgan'
p3992
tp3993
I1489
s(S'DeCorso'
p3994
S'Bryan'
p3995
tp3996
I1183
s(S'Hayashi'
p3997
S'Kevin'
p3998
tp3999
I633
s(S'Johnson'
p4000
S'Richard*'
p4001
tp4002
I977
s(S'Bourdy'
p4003
S'Gregory'
p4004
tp4005
I1008
s(S'Lewis'
p4006
S'Tom'
p4007
tp4008
I1591
s(S'Klauk'
p4009
g1843
tp4010
I453
s(S'Quinn'
p4011
S'Fran'
p4012
tp4013
I1177
s(S'Hahn'
p4014
S'John'
p4015
tp4016
I1941
s(S'Wayment'
p4017
S'Brett'
p4018
tp4019
I964
s(S'Andersen'
p4020
S'Mason'
p4021
tp4022
I2089
s(S'Bierkan'
p4023
S'John'
p4024
tp4025
I1429
s(S'Fehr'
p4026
S'Rick'
p4027
tp4028
I46
s(S'Kittleson'
p4029
S'Drew'
p4030
tp4031
I1483
s(S'Ferrier'
p4032
S'Branson'
p4033
tp4034
I1973
s(S'Ota'
p4035
S'Jonathan'
p4036
tp4037
I708
s(S'Fox'
p4038
S'Ryan'
p4039
tp4040
I2095
s(S'Bjorn'
p4041
S'Thomas'
p4042
tp4043
I266
s(S'McCabe'
p4044
S'Michael'
p4045
tp4046
I1656
s(S'Fields'
p4047
S'Jack'
p4048
tp4049
I1677
s(S'Wallace'
p4050
S'Matt'
p4051
tp4052
I2085
s(S'Carroll'
p4053
S'Brian'
p4054
tp4055
I1249
s(S'Tentis'
p4056
S'David'
p4057
tp4058
I1706
s(S'Hinkle'
p4059
S'Lon'
p4060
tp4061
I929
s(S'Martin'
p4062
S'Casey'
p4063
tp4064
I631
s(S'Geyer'
p4065
S'Ben'
p4066
tp4067
I1951
s(S'Lynn'
p4068
S'David'
p4069
tp4070
I1633
s(S'Henley'
p4071
S'Kip'
p4072
tp4073
I787
s(S'Quigley'
p4074
S'Brett'
p4075
tp4076
I219
s(S'Nitties'
p4077
S'James'
p4078
tp4079
I1287
s(S'Hammond'
p4080
S'Donnie'
p4081
tp4082
I64
s(S'Zalatoris'
p4083
S'Will'
p4084
tp4085
I1882
s(S'Langer'
p4086
S'Bernhard'
p4087
tp4088
I76
s(S'Imada'
p4089
S'Ryuji'
p4090
tp4091
I366
s(S'Kuboya'
p4092
S'Kenichi'
p4093
tp4094
I361
s(S'Hui'
p4095
S'Phillip'
p4096
tp4097
I1609
s(S'Austin'
p4098
S'Woody'
p4099
tp4100
I223
s(S'Burt'
p4101
S'Keith'
p4102
tp4103
I1038
s(S'Leggatt'
p4104
S'Ian'
p4105
tp4106
I253
s(S'McCann'
p4107
S'Brian'
p4108
tp4109
I1006
s(S'Fritz'
p4110
S'Nathan'
p4111
tp4112
I713
s(S'Blackburn'
p4113
S'Woody'
p4114
tp4115
I10
s(S'Williamson'
p4116
S'Eric'
p4117
tp4118
I1795
s(S'Summerhays'
p4119
S'Boyd'
p4120
tp4121
I628
s(S'Bailey'
p4122
S'Cliff'
p4123
tp4124
I941
s(S'Jonzon'
p4125
S'Michael'
p4126
tp4127
I1355
s(S'Tidland'
p4128
S'Chris'
p4129
tp4130
I811
s(S'Fulke'
p4131
S'Pierre'
p4132
tp4133
I353
s(S'Walker'
p4134
S'Mark'
p4135
tp4136
I465
s(S'Tsukada'
p4137
S'Yosuke'
p4138
tp4139
I1920
s(S"O'Neal"
p4140
S'Timothy'
p4141
tp4142
I840
s(S'McLachlin'
p4143
S'Parker'
p4144
tp4145
I990
s(S'Williamson'
p4146
S'Lee'
p4147
tp4148
I1011
s(S'Brown'
p4149
S'Hunter'
p4150
tp4151
I1765
s(S'Bescansa'
p4152
S'Ramon'
p4153
tp4154
I735
s(S'Kendall'
p4155
S'Skip'
p4156
tp4157
I75
s(S'Gligic'
p4158
S'Michael'
p4159
tp4160
I1578
s(S'Beach'
p4161
S'Alexander'
p4162
tp4163
I2098
s(S'Tanihara'
p4164
S'Hideto'
p4165
tp4166
I646
s(S'Smith'
p4167
S'Chris'
p4168
tp4169
I129
s(S'Hicks'
p4170
S'Justin'
p4171
tp4172
I1230
s(S'Graziosa'
p4173
S'Frank'
p4174
tp4175
I756
s(S'Hutchison'
p4176
S'Randall'
p4177
tp4178
I1344
s(S'Oh'
p4179
g4078
tp4180
I1288
s(S'McQuillan'
p4181
S'Matt'
p4182
tp4183
I1461
s(S'Huh'
p4184
g2893
tp4185
I1586
s(S'Kapur'
p4186
S'Shiv'
p4187
tp4188
I1021
s(S'Vecellio'
p4189
S'Steve'
p4190
tp4191
I754
s(S'Gomez'
p4192
S'Jaime'
p4193
tp4194
I788
s(S'Mechereffe'
p4195
S'Fernando'
p4196
tp4197
I1310
s(S'Pappas'
p4198
S'Deane'
p4199
tp4200
I246
s(S'Castro'
p4201
S'Roberto'
p4202
tp4203
I1239
s(S'Small'
p4204
S'Mike'
p4205
tp4206
I217
s(S'Rodriguez'
p4207
S'Anthony'
p4208
tp4209
I1452
s(S'List'
p4210
S'Luke'
p4211
tp4212
I1128
s(S'Knight'
p4213
S'Michael'
p4214
tp4215
I1247
s(S'Standly'
p4216
S'Mike'
p4217
tp4218
I133
s(S'Mason'
p4219
S'John'
p4220
tp4221
I319
s(S'Allard'
p4222
S'Ken'
p4223
tp4224
I185
s(S'Rock'
p4225
S'Robert'
p4226
tp4227
I1553
s(S'Walter'
p4228
S'Ben'
p4229
tp4230
I950
s(S'Tabuena'
p4231
S'Miguel'
p4232
tp4233
I1593
s(S'Clark'
p4234
S'Wyndham'
p4235
tp4236
I2050
s(S'Johansson'
p4237
S'Per-Ulrik'
p4238
tp4239
I237
s(S'Dahmen'
p4240
S'Joel'
p4241
tp4242
I1735
s(S'Maness'
p4243
S'Michael'
p4244
tp4245
I1543
s(S'Parr'
p4246
S'Andrew'
p4247
tp4248
I1166
s(S'Hutton'
p4249
S'Brian'
p4250
tp4251
I1449
s(S'Parnevik'
p4252
S'Jesper'
p4253
tp4254
I281
s(S'Cole'
p4255
S'Eli'
p4256
tp4257
I1796
s(S'Keymont'
p4258
S'Mike'
p4259
tp4260
I1350
s(S'Park'
p4261
S'Myung Jun'
p4262
tp4263
I724
s(S'Villegas'
p4264
S'Camilo'
p4265
tp4266
I745
s(S'Weir'
p4267
S'Mike'
p4268
tp4269
I251
s(S'Ishii'
p4270
S'David'
p4271
tp4272
I572
s(S'Remesy'
p4273
S'Jean-Francois'
p4274
tp4275
I680
s(S'Stewart'
p4276
S'Hunter'
p4277
tp4278
I1776
s(S'Hebert'
p4279
S'Scott'
p4280
tp4281
I1103
s(S'Garrison'
p4282
S'Jim'
p4283
tp4284
I924
s(S'Jarosch'
p4285
S'Barrett'
p4286
tp4287
I1380
s(S'Dodson'
p4288
S'Will'
p4289
tp4290
I897
s(S'Baker-Finch'
p4291
S'Ian'
p4292
tp4293
I1263
s(S'Bean'
p4294
S'Andy'
p4295
tp4296
I5
s(S'Howell III'
p4297
S'Charles'
p4298
tp4299
I380
s(S'Brun'
p4300
S'Julien'
p4301
tp4302
I1752
s(S'Gallacher'
p4303
S'Stephen'
p4304
tp4305
I819
s(S'Oppenheim'
p4306
S'Rob'
p4307
tp4308
I1022
s(S'Kim'
p4309
S'Sunny'
p4310
tp4311
I1406
s(S'Whitsett'
p4312
S'Cory'
p4313
tp4314
I1845
s(S'March'
p4315
S'Gary'
p4316
tp4317
I227
s(S'Guerrero'
p4318
S'Estanislao'
p4319
tp4320
I1412
s(S'Norris'
p4321
S'Paul'
p4322
tp4323
I1539
s(S'Mediate'
p4324
S'Rocco'
p4325
tp4326
I93
s(S'Gordon'
p4327
S'Scott'
p4328
tp4329
I1463
s(S'Sullivan'
p4330
S'Andy'
p4331
tp4332
I1836
s(S'Gogel'
p4333
g555
tp4334
I248
s(S'Isley'
p4335
S'Steve'
p4336
tp4337
I1087
s(S'Bray'
p4338
S'Dustin'
p4339
tp4340
I1720
s(S'Randhawa'
p4341
S'Jyoti'
p4342
tp4343
I384
s(S'Gregory'
p4344
S'Scott'
p4345
tp4346
I2026
s(S'Heath'
p4347
S'Rick'
p4348
tp4349
I368
s(S'James'
p4350
S'Austin'
p4351
tp4352
I2058
s(S'Halldorson'
p4353
S'Dan'
p4354
tp4355
I62
s(S'Gatto'
p4356
S'CJ'
p4357
tp4358
I1822
s(S'Gardiner'
p4359
S'Scott'
p4360
tp4361
I1637
s(S'Olesen'
p4362
S'Thorbjorn'
p4363
tp4364
I1663
s(S'Romero'
p4365
S'Andres'
p4366
tp4367
I1116
s(S'Jones'
p4368
S'Matt'
p4369
tp4370
I869
s(S'Sanders'
p4371
S'Derek'
p4372
tp4373
I603
s(S'Staton'
p4374
S'Kenneth'
p4375
tp4376
I416
s(S'Gortana'
p4377
S'Marco'
p4378
tp4379
I816
s(S'Beck'
p4380
S'Chip'
p4381
tp4382
I6
s(S'Brauer'
p4383
S'Scott'
p4384
tp4385
I503
s(S'Patton'
p4386
S'Chris'
p4387
tp4388
I183
s(S'Schwartzel'
p4389
S'Charl'
p4390
tp4391
I870
s(S'Mulroy'
p4392
S'Garth'
p4393
tp4394
I1293
s(S'Miller'
p4395
S'Lindy'
p4396
tp4397
I774
s(S'Hughes'
p4398
S'Mac'
p4399
tp4400
I1595
s(S'Wittenberg'
p4401
S'Casey'
p4402
tp4403
I501
s(S'Proehl'
p4404
S'Chad'
p4405
tp4406
I1250
s(S'Mabrey'
p4407
S'Matt'
p4408
tp4409
I1958
s(S'Cassini'
p4410
S'Nick'
p4411
tp4412
I707
s(S'Barlow'
p4413
S'Craig'
p4414
tp4415
I300
s(S'Stieren'
p4416
S'Tim'
p4417
tp4418
I1045
s(S'Garmendia'
p4419
S'Alejandro'
p4420
tp4421
I1607
s(S'Leaver'
p4422
S'Grant'
p4423
tp4424
I1405
s(S'Izawa'
p4425
S'Toshi'
p4426
tp4427
I259
s(S'Botsford'
p4428
S'Chris'
p4429
tp4430
I746
s(S'Burns'
p4431
S'Steve'
p4432
tp4433
I704
s(S'Christian'
p4434
S'Gary'
p4435
tp4436
I1542
s(S'Crawford'
p4437
S'Christopher'
p4438
tp4439
I2086
s(S'Levi'
p4440
S'Wayne'
p4441
tp4442
I79
s(S'Ernst'
p4443
S'Derek'
p4444
tp4445
I1629
s(S'Wood'
p4446
g3643
tp4447
I523
s(S'Adams'
p4448
S'Blake'
p4449
tp4450
I1378
s(S'Bell'
p4451
S'Ross'
p4452
tp4453
I2120
s(S'Watson'
p4454
S'Tom'
p4455
tp4456
I584
s(S'Scriven'
p4457
S'Jacob'
p4458
tp4459
I1256
s(S'Harris'
p4460
S'Ty'
p4461
tp4462
I1165
s(S'Beale'
p4463
S'James'
p4464
tp4465
I1884
s(S'Huxman'
p4466
S'Greg'
p4467
tp4468
I1521
s(S'Matsumura'
p4469
S'Michio'
p4470
tp4471
I1474
s(S'Miyazato'
p4472
S'Kiyoshi'
p4473
tp4474
I481
s(S'Toledo'
p4475
S'Esteban'
p4476
tp4477
I168
s(S'Haefner'
p4478
S'Kevin'
p4479
tp4480
I714
s(S'Aphibarnrat'
p4481
S'Kiradech'
p4482
tp4483
I1648
s(S'Hamilton'
p4484
S'Robert'
p4485
tp4486
I466
s(S'Willett'
p4487
S'Danny'
p4488
tp4489
I1574
s(S'Black'
p4490
S'Mark'
p4491
tp4492
I764
s(S'Taylor'
p4493
S'Nick'
p4494
tp4495
I1201
s(S'Kok'
p4496
S'Johan'
p4497
tp4498
I1714
s(S'Garrigus'
p4499
S'Robert'
p4500
tp4501
I989
s(S'Takayama'
p4502
S'Junpei'
p4503
tp4504
I1292
s(S'Cabrera'
p4505
S'Angel'
p4506
tp4507
I359
s(S'Maurer'
p4508
S'Brian'
p4509
tp4510
I1518
s(S'Saraceno'
p4511
S'Tony'
p4512
tp4513
I1265
s(S'Carnevale'
p4514
S'Mark'
p4515
tp4516
I215
s(S'Letzig'
p4517
S'Michael'
p4518
tp4519
I1206
s(S'Taniguchi'
p4520
S'Takuya'
p4521
tp4522
I864
s(S'Henderson'
p4523
S'Scott'
p4524
tp4525
I364
s(S'Doherty'
p4526
S'Greg'
p4527
tp4528
I1579
s(S'Velasquez'
p4529
S'Diego'
p4530
tp4531
I1587
s(S'Rottluff'
p4532
S'Max'
p4533
tp4534
I2004
s(S"O'Grady"
p4535
S'Mac'
p4536
tp4537
I577
s(S'Collins'
p4538
S'Steve'
p4539
tp4540
I879
s(S'Price'
p4541
S'Nick'
p4542
tp4543
I114
s(S'Sutterfield'
p4544
S'Brad'
p4545
tp4546
I622
s(S'Goggin'
p4547
S'Mathew'
p4548
tp4549
I340
s(S'Roos'
p4550
S'Jake'
p4551
tp4552
I1217
s(S'Dunne'
p4553
S'Paul'
p4554
tp4555
I1947
s(S'Baek'
p4556
S'Todd'
p4557
tp4558
I1652
s(S'Lin'
p4559
S'Wen-Tang'
p4560
tp4561
I1299
s(S'Wilson'
p4562
S'Chris'
p4563
tp4564
I1289
s(S'Sucher'
p4565
S'Zack'
p4566
tp4567
I1338
s(S'Danielson'
p4568
S'Paul'
p4569
tp4570
I883
s(S'Walsh'
p4571
S'Billy'
p4572
tp4573
I1743
s(S'Meloan'
p4574
S'Marcus'
p4575
tp4576
I320
s(S'Peddicord'
p4577
S'Chris'
p4578
tp4579
I775
s(S'Doan'
p4580
S'Cameron'
p4581
tp4582
I671
s(S'Price'
p4583
S'Andrew'
p4584
tp4585
I910
s(S'DeMoss'
p4586
S'Mookie'
p4587
tp4588
I2068
s(S'Olsen'
p4589
S'Zachary'
p4590
tp4591
I1775
s(S'Chipokas'
p4592
S'Scott'
p4593
tp4594
I796
s(S'Kelly'
p4595
S'Jerry'
p4596
tp4597
I226
s(S'Huber'
p4598
S'Tim'
p4599
tp4600
I893
s(S'Goydos'
p4601
S'Paul'
p4602
tp4603
I197
s(S'Seppanen'
p4604
S'Matt'
p4605
tp4606
I715
s(S'Carll'
p4607
S'Kevin'
p4608
tp4609
I889
s(S'Percy'
p4610
S'Cameron'
p4611
tp4612
I1357
s(S'Burke'
p4613
S'Cameron'
p4614
tp4615
I1322
s(S'Edwards'
p4616
S'Joel'
p4617
tp4618
I40
s(S'Collins'
p4619
S'Wil'
p4620
tp4621
I880
s(S'Graham'
p4622
S'Wesley'
p4623
tp4624
I1257
s(S'Baines'
p4625
S'Scott'
p4626
tp4627
I1064
s(S'Gallagher'
p4628
S'Jeff'
p4629
tp4630
I166
s(S'Otis'
p4631
S'Ray'
p4632
tp4633
I2006
s(S'Delsing'
p4634
S'Jay'
p4635
tp4636
I35
s(S'Kim'
p4637
S'Si Woo'
p4638
tp4639
I1680
s(S'Wi'
p4640
S'Charlie'
p4641
tp4642
I817
s(S'Novak'
p4643
S'Andrew'
p4644
tp4645
I2123
s(S'Ruffels'
p4646
S'Ryan'
p4647
tp4648
I1849
s(S'Trainer'
p4649
S'Martin'
p4650
tp4651
I1525
s(S'Kataoka'
p4652
S'Daisuke'
p4653
tp4654
I1911
s(S'George'
p4655
S'Larry'
p4656
tp4657
I1046
s(S'Han'
p4658
S'Seung-su'
p4659
tp4660
I550
s(S'Brown'
p4661
S'Mark*'
p4662
tp4663
I1242
s(S'Kang'
p4664
S'Sung'
p4665
tp4666
I1462
s(S'Fritsch'
p4667
S'Brad'
p4668
tp4669
I1075
s(S'Choi'
p4670
S'Jinho'
p4671
tp4672
I2008
s(S'Slover'
p4673
S'Cody'
p4674
tp4675
I1576
s(S'Wallace'
p4676
S'Darren'
p4677
tp4678
I759
s(S'Lutterus'
p4679
S'David'
p4680
tp4681
I1211
s(S'Trittler'
p4682
S'Paul'
p4683
tp4684
I1080
s(S'Sindelar'
p4685
S'Joey'
p4686
tp4687
I127
s(S'Maruyama'
p4688
S'Daisuke'
p4689
tp4690
I645
s(S'Kuhlman'
p4691
S'Erich'
p4692
tp4693
I553
s(S'Pappas'
p4694
S'Brenden'
p4695
tp4696
I351
s(S'Storm'
p4697
S'Graeme'
p4698
tp4699
I1108
s(S'Wagner'
p4700
S'Johnson'
p4701
tp4702
I1126
s(S'Weibring'
p4703
S'Matt'
p4704
tp4705
I502
s(S'Steffen'
p4706
S'Zach'
p4707
tp4708
I1889
s(S'Rocha'
p4709
S'Alexandre'
p4710
tp4711
I479
s(S'Giancola'
p4712
S'Kevin'
p4713
tp4714
I568
s(S'Kondo'
p4715
S'Tomohiro'
p4716
tp4717
I381
s(S'Li'
p4718
S'Hao Tong'
p4719
tp4720
I1928
s(S'Brock'
p4721
S'Josh'
p4722
tp4723
I2032
s(S'Jin'
p4724
S'Cheng'
p4725
tp4726
I2014
s(S'Landry'
p4727
S'Andrew'
p4728
tp4729
I1819
s(S'Marino'
p4730
S'Steve'
p4731
tp4732
I561
s(S'Lovelady'
p4733
g305
tp4734
I2111
s(S'Wald'
p4735
S'Lucas'
p4736
tp4737
I1219
s(S'Portz'
p4738
S'Clayton'
p4739
tp4740
I2065
s(S'Cox'
p4741
S'Kris'
p4742
tp4743
I604
s(S'Ward'
p4744
S'Dalton'
p4745
tp4746
I1906
s(S'Fujita'
p4747
S'Hiroyuki'
p4748
tp4749
I641
s(S'An'
p4750
S'Byeong Hun'
p4751
tp4752
I1411
s(S'Weston'
p4753
S'Rich'
p4754
tp4755
I952
s(S'Walters'
p4756
S'Euan'
p4757
tp4758
I833
s(S'Snyder'
p4759
S'Brent'
p4760
tp4761
I1904
s(S'Schuman'
p4762
S'Jim'
p4763
tp4764
I167
s(S'Crowe'
p4765
S'Trace'
p4766
tp4767
I2070
s(S'Anania'
p4768
S'Brian'
p4769
tp4770
I1788
s(S'Girouard'
p4771
S'Marc'
p4772
tp4773
I594
s(S'Richardson, Jr.'
p4774
S'Jerry'
p4775
tp4776
I1442
s(S'Berberian, Jr.'
p4777
S'Rich'
p4778
tp4779
I1957
s(S'Bryant'
p4780
S'Bart'
p4781
tp4782
I18
s(S'Douma'
p4783
S'John'
p4784
tp4785
I681
s(S'Kizzire'
p4786
S'Patton'
p4787
tp4788
I1260
s(S'Parel'
p4789
S'Scott'
p4790
tp4791
I976
s(S'Doig'
p4792
S'Ian'
p4793
tp4794
I768
s(S'Spieth'
p4795
S'Jordan'
p4796
tp4797
I1417
s(S'Guthrie'
p4798
S'Luke'
p4799
tp4800
I1596
s(S'Tims'
p4801
S'Tim'
p4802
tp4803
I686
s(S'Loving'
p4804
S'Matthew'
p4805
tp4806
I721
s(S'Zhang'
p4807
S'Xinjun'
p4808
tp4809
I2104
s(S'Concha'
p4810
S'Carlos'
p4811
tp4812
I1433
s(S'Dodt'
p4813
S'Andrew'
p4814
tp4815
I1809
s(S'Tryba'
p4816
S'Ted'
p4817
tp4818
I582
s(S'Verplank'
p4819
S'Scott'
p4820
tp4821
I149
s(S'Ikeda'
p4822
S'Yuta'
p4823
tp4824
I1370
s(S'Shields'
p4825
S'Kevin'
p4826
tp4827
I458
s(S'Saathoff'
p4828
S'Curt'
p4829
tp4830
I525
s(S'Hamrick'
p4831
S'Hunter'
p4832
tp4833
I1616
s(S'Gove'
p4834
g1843
tp4835
I316
s(S'Beisser'
p4836
S'Benoit'
p4837
tp4838
I732
s(S'Roberts'
p4839
S'Loren'
p4840
tp4841
I121
s(S'Kresge'
p4842
S'Cliff'
p4843
tp4844
I287
s(S'Barbaree'
p4845
S'Philip'
p4846
tp4847
I1978
s(S'Heaven'
p4848
S'Bradley'
p4849
tp4850
I656
s(S'Bourgeois'
p4851
S'Marc'
p4852
tp4853
I760
s(S'Riley'
p4854
g4168
tp4855
I318
s(S'Cornelson'
p4856
S'Adam'
p4857
tp4858
I1929
s(S'Britton'
p4859
S'Bill'
p4860
tp4861
I563
s(S'Arthur'
p4862
S'Perry'
p4863
tp4864
I763
s(S'Muncrief'
p4865
S'Kevin'
p4866
tp4867
I691
s(S'Guetz'
p4868
S'Bret'
p4869
tp4870
I1369
s(S'Clearwater'
p4871
S'Keith'
p4872
tp4873
I28
s(S'Luiten'
p4874
S'Joost'
p4875
tp4876
I1560
s(S'Smith'
p4877
S'Anthony'
p4878
tp4879
I1270
s(S'Lardon'
p4880
S'Brad'
p4881
tp4882
I163
s(S'Blanks'
p4883
S'Kris'
p4884
tp4885
I1300
s(S'Meyer'
p4886
S'Adam'
p4887
tp4888
I716
s(S'Jeffress'
p4889
S'Steven'
p4890
tp4891
I1805
s(S'Kinkopf'
p4892
S'Michael'
p4893
tp4894
I1859
s(S'Krueger'
p4895
S'Aaron'
p4896
tp4897
I1341
s(S'Ruthkoski'
p4898
S'Andrew'
p4899
tp4900
I1029
s(S'Hummel'
p4901
S'Steve'
p4902
tp4903
I822
s(S'Kim'
p4904
S'Sihwan'
p4905
tp4906
I2035
s(S'Wilcox'
p4907
S'Willy'
p4908
tp4909
I1427
s(S'Kortan'
p4910
S'Brian'
p4911
tp4912
I650
s(S'Looper'
p4913
S'Ken'
p4914
tp4915
I1692
s(S'Els'
p4916
S'Ernie'
p4917
tp4918
I187
s(S'Schembechler II'
p4919
S'Richie'
p4920
tp4921
I2029
s(S'Hulbert'
p4922
S'Mike'
p4923
tp4924
I69
s(S'Brame Jr.'
p4925
S'Grady'
p4926
tp4927
I2117
s(S'Earnest'
p4928
S'Paul'
p4929
tp4930
I2018
s(S'Wang'
p4931
S'Jeunghun'
p4932
tp4933
I1940
s(S'Rossetti'
p4934
S'Todd'
p4935
tp4936
I987
s(S'Curl'
p4937
S'Rod'
p4938
tp4939
I33
s(S'Ford'
p4940
S'Bob'
p4941
tp4942
I567
s(S'Wetterich'
p4943
S'Brett'
p4944
tp4945
I418
s(S'Smith'
p4946
S'Sam'
p4947
tp4948
I1512
s(S'Bingham'
p4949
S'Brett'
p4950
tp4951
I998
s(S'Garber'
p4952
S'Joey'
p4953
tp4954
I1789
s(S'Reed'
p4955
S'Patrick'
p4956
tp4957
I1498
s(S'Agee'
p4958
S'Brian'
p4959
tp4960
I1791
s(S'Kodama'
p4961
S'Mathew'
p4962
tp4963
I1231
s(S'Fergus'
p4964
S'Keith'
p4965
tp4966
I47
s(S'Perry'
p4967
S'Kenny'
p4968
tp4969
I111
s(S'Wyatt'
p4970
S'Bobby'
p4971
tp4972
I1787
s(S'Nelson'
p4973
S'Larry'
p4974
tp4975
I1079
s(S'Yokoo'
p4976
S'Kaname'
p4977
tp4978
I336
s(S'Ho'
p4979
S'S.K.'
p4980
tp4981
I699
s(S'Paulson'
p4982
S'Dennis'
p4983
tp4984
I106
s(S'Kraft'
p4985
S'Kelly'
p4986
tp4987
I1600
s(S'Hearn'
p4988
S'David'
p4989
tp4990
I508
s(S'Gamez'
p4991
S'Robert'
p4992
tp4993
I55
s(S'Wallace'
p4994
S'Harold'
p4995
tp4996
I1085
s(S'Green'
p4997
S'Richard'
p4998
tp4999
I634
s(S'Couples'
p5000
S'Fred'
p5001
tp5002
I32
s(S'Prugh'
p5003
S'Alex'
p5004
tp5005
I1385
s(S'Kim'
p5006
S'Shi'
p5007
tp5008
I2003
s(S'Hickok'
p5009
S'Kramer'
p5010
tp5011
I1968
s(S'Mitchell'
p5012
S'Stiles'
p5013
tp5014
I951
s(S'Zyroll'
p5015
S'Tate'
p5016
tp5017
I530
s(S'Kjeldsen'
p5018
S'Soren'
p5019
tp5020
I406
s(S'Blake'
p5021
S'Jay Don'
p5022
tp5023
I12
s(S'Kennedy'
p5024
S'Blake'
p5025
tp5026
I2046
s(S'Nisbet'
p5027
S'Daniel'
p5028
tp5029
I1653
s(S'Allenby'
p5030
S'Robert'
p5031
tp5032
I263
s(S'Gonzalez'
p5033
S'Ernie'
p5034
tp5035
I58
s(S'Clarke'
p5036
S'Darren'
p5037
tp5038
I301
s(S'Woodson'
p5039
S'Rick'
p5040
tp5041
I1451
s(S'Perez'
p5042
S'Mike'
p5043
tp5044
I1365
s(S'Crenshaw'
p5045
S'Ben'
p5046
tp5047
I928
s(S'Redfield'
p5048
S'Alex'
p5049
tp5050
I1939
s(S'Waldorf'
p5051
S'Duffy'
p5052
tp5053
I152
s(S'Gutschewski'
p5054
S'Scott'
p5055
tp5056
I687
s(S'Price'
p5057
S'Phillip'
p5058
tp5059
I333
s(S'Morales'
p5060
S'Wilfredo'
p5061
tp5062
I386
s(S'Genovese'
p5063
S'Mike'
p5064
tp5065
I2066
s(S'Dougherty'
p5066
S'Kevin'
p5067
tp5068
I2009
s(S'Gonzalez'
p5069
S'Ricardo'
p5070
tp5071
I654
s(S'Sierak'
p5072
S'Mark'
p5073
tp5074
I548
s(S'Claxton'
p5075
S'Paul'
p5076
tp5077
I813
s(S'Baird'
p5078
S'Briny'
p5079
tp5080
I334
s(S'Kaye'
p5081
S'Jonathan'
p5082
tp5083
I312
s(S'Igarashi'
p5084
S'Yuji'
p5085
tp5086
I1276
s(S'Dillon'
p5087
S'Ryan'
p5088
tp5089
I849
s(S'Rashell'
p5090
S'Rob'
p5091
tp5092
I867
s(S'Ferrie'
p5093
S'Kenneth'
p5094
tp5095
I827
s(S'Epperson'
p5096
S'Chris'
p5097
tp5098
I1500
s(S'Moore'
p5099
S'Jonathan'
p5100
tp5101
I1141
s(S'Vucinich'
p5102
S'Roy'
p5103
tp5104
I792
s(S'Acosta, Jr.'
p5105
S'Joe'
p5106
tp5107
I311
s(S'Twiggs'
p5108
S'Greg'
p5109
tp5110
I146
s(S'Uihlein'
p5111
S'Peter'
p5112
tp5113
I1059
s(S'Hogue'
p5114
S'Ryan'
p5115
tp5116
I440
s(S'Woo'
p5117
S'Charlie'
p5118
tp5119
I1255
s(S'Gilley'
p5120
S'Chris'
p5121
tp5122
I1878
s(S'Dixon'
p5123
S'Brian'
p5124
tp5125
I737
s(S'Kim'
p5126
S'Bio'
p5127
tp5128
I1501
s(S'Moyers'
p5129
S'Mikey'
p5130
tp5131
I1790
s(S'Helminen'
p5132
S'Ryan'
p5133
tp5134
I913
s(S'Ziska'
p5135
S'Ian'
p5136
tp5137
I1067
s(S'Coughlan'
p5138
S'Richie'
p5139
tp5140
I369
s(S'Hallberg'
p5141
S'Eric'
p5142
tp5143
I1966
s(S'Bradley'
p5144
S'Keegan'
p5145
tp5146
I1485
s(S'Hauer'
p5147
S'Brad'
p5148
tp5149
I682
s(S'Noren'
p5150
S'Alex'
p5151
tp5152
I1372
s(S'Smalley'
p5153
S'Alex'
p5154
tp5155
I2080
s(S'Triplett'
p5156
S'Kirk'
p5157
tp5158
I144
s(S'Wong'
p5159
S'Eugene'
p5160
tp5161
I1435
s(S'Shawver'
p5162
S'John'
p5163
tp5164
I609
s(S'Pampling'
p5165
S'Rod'
p5166
tp5167
I338
s(S'Iaciofano'
p5168
S'Joey'
p5169
tp5170
I919
s(S'Katayama'
p5171
S'Shingo'
p5172
tp5173
I322
s(S'Lim'
p5174
S'Thomas'
p5175
tp5176
I1891
s(S'Bozzelli'
p5177
S'Dominic'
p5178
tp5179
I1996
s(S'Vana'
p5180
S'Frank'
p5181
tp5182
I758
s(S'Hagy'
p5183
S'Brandon'
p5184
tp5185
I1865
s(S"O'Dell"
p5186
S'Sam'
p5187
tp5188
I1893
s(S'Ring'
p5189
S'Willis'
p5190
tp5191
I1421
s(S'Fast'
p5192
S'Matt'
p5193
tp5194
I1419
s(S'Lawrence'
p5195
S'Mike'
p5196
tp5197
I1078
s(S'Millard'
p5198
S'Jason'
p5199
tp5200
I1761
s(S'Heinen'
p5201
S'Mike'
p5202
tp5203
I229
s(S'Weibring'
p5204
S'D.A.'
p5205
tp5206
I155
s(S'Pavin'
p5207
S'Corey'
p5208
tp5209
I107
s(S'Stalter'
p5210
S'Joel'
p5211
tp5212
I1942
s(S'Younan'
p5213
S'Jake'
p5214
tp5215
I1317
s(S'Gibson'
p5216
S'John'
p5217
tp5218
I225
s(S'Kohut'
p5219
S'J.T.'
p5220
tp5221
I1193
s(S"O'Malley"
p5222
S'Peter'
p5223
tp5224
I99
s(S'Hack'
p5225
S'Jhared'
p5226
tp5227
I1823
s(S'Abel'
p5228
S'Derek'
p5229
tp5230
I1157
s(S'Hubbard'
p5231
S'Mark'
p5232
tp5233
I1750
s(S'Laycock'
p5234
S'Scott'
p5235
tp5236
I339
s(S'Gore'
p5237
g3944
tp5238
I403
s(S'Birdsey'
p5239
S'Thomas'
p5240
tp5241
I1857
s(S'Perry'
p5242
S'Rod'
p5243
tp5244
I493
s(S'Lara'
p5245
S'Jose Manuel'
p5246
tp5247
I1096
s(S'Perkins'
p5248
S'Travis'
p5249
tp5250
I1202
s(S'Wiebe'
p5251
S'Mark'
p5252
tp5253
I156
s(S'Smotherman'
p5254
S'Austin'
p5255
tp5256
I2020
s(g4009
g4220
tp5257
I510
s(S'Barnes'
p5258
S'Ricky'
p5259
tp5260
I459
s(S'Chartrand'
p5261
S'Dan'
p5262
tp5263
I908
s(S'Nagy'
p5264
S'Corey'
p5265
tp5266
I1923
s(S'Cuzzort'
p5267
S'Jeff'
p5268
tp5269
I1216
s(S'Slocum'
p5270
S'Heath'
p5271
tp5272
I387
s(S'Wiesberger'
p5273
S'Bernd'
p5274
tp5275
I1564
s(S'DiMarco'
p5276
g4168
tp5277
I174
s(S'Kisner'
p5278
S'Kevin'
p5279
tp5280
I1468
s(S'Hessing'
p5281
S'Rob'
p5282
tp5283
I906
s(S'Marcano'
p5284
S'Ross'
p5285
tp5286
I1144
s(S'Gooch'
p5287
S'Talor'
p5288
tp5289
I1783
s(S'Nelson'
p5290
S'John'
p5291
tp5292
I261
s(S'Thatcher'
p5293
S'Roland'
p5294
tp5295
I495
s(S'Lohr'
p5296
S'Bob'
p5297
tp5298
I81
s(S'Miernicki'
p5299
S'Daniel'
p5300
tp5301
I1430
s(S'McCoy'
p5302
S'Lee'
p5303
tp5304
I1896
s(S'Price'
p5305
S'Anthony'
p5306
tp5307
I1537
s(S'Cochran'
p5308
S'Nicholas'
p5309
tp5310
I1774
s(S'Rowell'
p5311
S'Brian'
p5312
tp5313
I971
s(S'Grube'
p5314
S'Rob'
p5315
tp5316
I1248
s(S'Herron'
p5317
S'Tim'
p5318
tp5319
I292
s(S'Brazel'
p5320
S'Sam'
p5321
tp5322
I2041
s(S'Kang'
p5323
S'Anthony'
p5324
tp5325
I1280
s(S'Pieters'
p5326
S'Thomas'
p5327
tp5328
I1918
s(S'Campbell'
p5329
S'Michael'
p5330
tp5331
I327
s(S'Esposito'
p5332
S'Frank'
p5333
tp5334
I1707
s(S'Sowards'
p5335
S'Bob'
p5336
tp5337
I808
s(S'Ancer'
p5338
S'Abraham'
p5339
tp5340
I1944
s(S'Day'
p5341
S'Glen'
p5342
tp5343
I241
s(S'Hart'
p5344
S'Dudley'
p5345
tp5346
I192
s(S'du Toit'
p5347
S'Jared'
p5348
tp5349
I1983
s(S'Schuller'
p5350
S'Rick'
p5351
tp5352
I778
s(S'Madison'
p5353
S'Brian'
p5354
tp5355
I866
s(S'Boyle'
p5356
S'Bob'
p5357
tp5358
I208
s(S'Kokott'
p5359
S'Bill'
p5360
tp5361
I937
s(S'Rosinia'
p5362
S'Billy'
p5363
tp5364
I943
s(S'Ruda'
p5365
S'J.R.'
p5366
tp5367
I895
s(S'Hosokawa'
p5368
S'Kazuhiko'
p5369
tp5370
I826
s(S'Henley'
p5371
S'Russell'
p5372
tp5373
I1664
s(S'Slattery'
p5374
S'Lee'
p5375
tp5376
I1549
s(S'Howe'
p5377
S'T.J.'
p5378
tp5379
I1890
s(S'Proveaux'
p5380
S'Cody'
p5381
tp5382
I1612
s(S'Lawrie'
p5383
S'Paul'
p5384
tp5385
I304
s(S'Mulhearn'
p5386
S'Danny'
p5387
tp5388
I678
s(S'Burns'
p5389
S'Jeff'
p5390
tp5391
I1361
s(S'Miles'
p5392
S'Michael'
p5393
tp5394
I1264
s(S'Moon'
p5395
S'Alex'
p5396
tp5397
I1938
s(S'Holmes'
p5398
S'J.B.'
p5399
tp5400
I876
s(S'Lawrence'
p5401
S'David'
p5402
tp5403
I2053
s(S'Georgiou'
p5404
S'Andrew'
p5405
tp5406
I1662
s(S'Pendrith'
p5407
S'Taylor'
p5408
tp5409
I1766
s(S'Ellis'
p5410
S'John'
p5411
tp5412
I720
s(S'Yokomoto'
p5413
S'Beau'
p5414
tp5415
I948
s(S'Watson'
p5416
S'Bubba'
p5417
tp5418
I1001
s(S'Tolan'
p5419
S'Derek'
p5420
tp5421
I1367
s(S'Jones'
p5422
S'Nickolas'
p5423
tp5424
I1294
s(S'Lower'
p5425
S'Justin'
p5426
tp5427
I1763
s(S'Hale'
p5428
S'Damian'
p5429
tp5430
I484
s(S'Mazza'
p5431
S'John'
p5432
tp5433
I930
s(S'PomArleau'
p5434
S'Kevin'
p5435
tp5436
I844
s(S'Funk'
p5437
S'Fred'
p5438
tp5439
I53
s(S'Wurtz'
p5440
S'Mark'
p5441
tp5442
I199
s(S'Leon'
p5443
S'Tyler'
p5444
tp5445
I1471
s(S'Ortiz'
p5446
S'Carlos'
p5447
tp5448
I1733
s(S'Meyer'
p5449
S'Dylan'
p5450
tp5451
I2051
s(S'Gomez'
p5452
S'Rafael'
p5453
tp5454
I859
s(S'Kim'
p5455
S'Hyung-Sung'
p5456
tp5457
I1753
s(S'Lee'
p5458
S'Soomin'
p5459
tp5460
I1987
s(S'Massa'
p5461
S'Bobby'
p5462
tp5463
I1691
s(S'McConnell'
p5464
S'Paul'
p5465
tp5466
I1950
s(S'Short, Jr.'
p5467
S'Wes'
p5468
tp5469
I592
s(S'Baddeley'
p5470
S'Aaron'
p5471
tp5472
I389
s(S'Brandt'
p5473
S'Jimmy'
p5474
tp5475
I1832
s(S'Marin'
p5476
S'Chris'
p5477
tp5478
I1447
s(S'Panzeri'
p5479
S'Joe'
p5480
tp5481
I1506
s(S'Anderson'
p5482
S'Stuart'
p5483
tp5484
I881
s(S'Fauchier'
p5485
S'Ryan'
p5486
tp5487
I402
s(S'Gow'
p5488
S'Paul'
p5489
tp5490
I376
s(S'Jung'
p5491
S'Richard'
p5492
tp5493
I1852
s(S'Backel'
p5494
S'Camden'
p5495
tp5496
I1870
s(S'Ridings'
p5497
S'Tag'
p5498
tp5499
I423
s(S'Byrum'
p5500
g460
tp5501
I21
s(S'Perry'
p5502
S'Chris'
p5503
tp5504
I110
s(S'Bard'
p5505
S'Derek'
p5506
tp5507
I2118
s(S'Schultz'
p5508
S'Dirk'
p5509
tp5510
I212
s(S'Knox'
p5511
S'Russell'
p5512
tp5513
I1484
s(S'Wooding'
p5514
S'Jeremiah'
p5515
tp5516
I1681
s(S'Song'
p5517
S'Young-han'
p5518
tp5519
I1936
s(S'Bickerton'
p5520
S'John'
p5521
tp5522
I954
s(S'Sanchez'
p5523
S'Isaac'
p5524
tp5525
I1734
s(S'Wightman'
p5526
S'Paul'
p5527
tp5528
I1002
s(S'Wolcott'
p5529
S'Bob'
p5530
tp5531
I157
s(S'Allred'
p5532
S'Jason'
p5533
tp5534
I424
s(S'Kelley'
p5535
S'Tony'
p5536
tp5537
I1268
s(S'Whaley'
p5538
S'Suzy'
p5539
tp5540
I549
s(S'English'
p5541
S'Harris'
p5542
tp5543
I1585
s(S'Cink'
p5544
S'Stewart'
p5545
tp5546
I323
s(S'Biershenk'
p5547
S'Tommy'
p5548
tp5549
I1547
s(S'Alexander'
p5550
S'Tyson'
p5551
tp5552
I2076
s(S'Knous'
p5553
S'Jim'
p5554
tp5555
I2002
s(S'Haig'
p5556
S'Anton'
p5557
tp5558
I1130
s(S'Upper'
p5559
S'Brett'
p5560
tp5561
I583
s(S'Casagranda'
p5562
S'Greg'
p5563
tp5564
I790
s(S'Melton'
p5565
S'Brett'
p5566
tp5567
I748
s(S'Hughes'
p5568
S'Reed'
p5569
tp5570
I771
s(S'NeSmith'
p5571
S'Matthew'
p5572
tp5573
I1622
s(S'Clark II'
p5574
S'Michael'
p5575
tp5576
I272
s(S'Link IV'
p5577
S'William'
p5578
tp5579
I698
s(S'Takahashi'
p5580
S'Tatsuhiko'
p5581
tp5582
I959
s(S'Olive'
p5583
S'Patrick'
p5584
tp5585
I1235
s(S'Nannen'
p5586
S'Derek'
p5587
tp5588
I887
s(S'Bolling'
p5589
S'Charles'
p5590
tp5591
I13
s(S'Byman'
p5592
S'Bob'
p5593
tp5594
I20
s(S'Robertson'
p5595
S'John'
p5596
tp5597
I409
s(S'Sorensen'
p5598
S'Chad'
p5599
tp5600
I1880
s(S'Stolz'
p5601
S'Andre'
p5602
tp5603
I635
s(S'Sciorra'
p5604
S'Cary'
p5605
tp5606
I1016
s(S'Martin Benavides'
p5607
S'Pablo'
p5608
tp5609
I1119
s(S'Lee'
p5610
S'Han'
p5611
tp5612
I1111
s(S'Choe'
p5613
S'Jay'
p5614
tp5615
I1035
s(S'Wilson'
p5616
S'TJ'
p5617
tp5618
I901
s(S'Allen'
p5619
S'Michael'
p5620
tp5621
I588
s(S'Thornberry'
p5622
S'Braden'
p5623
tp5624
I2031
s(S'Ferguson'
p5625
S'Ben'
p5626
tp5627
I1097
s(S'Anderson'
p5628
S'JC'
p5629
tp5630
I161
s(S'Diaz'
p5631
S'David'
p5632
tp5633
I1099
s(S'Utley'
p5634
S'Stan'
p5635
tp5636
I148
s(S'Harrington'
p5637
S'Padraig'
p5638
tp5639
I354
s(S'Jaeger'
p5640
S'Stephan'
p5641
tp5642
I2037
s(S'Na'
p5643
S'Kevin'
p5644
tp5645
I477
s(S'Casey'
p5646
S'Paul'
p5647
tp5648
I476
s(S'Haverland'
p5649
S'Butch'
p5650
tp5651
I970
s(S'Harmon'
p5652
S'Matt'
p5653
tp5654
I1167
s(S'Tracy'
p5655
S'Ethan'
p5656
tp5657
I1952
s(S'Cutler'
p5658
S'Steve'
p5659
tp5660
I1980
s(S'Schultze'
p5661
S'Bobby'
p5662
tp5663
I1147
s(S'Tucker'
p5664
S'Jeremy'
p5665
tp5666
I1019
s(S'Dufner'
p5667
S'Jason'
p5668
tp5669
I697
s(S'Bare'
p5670
S'Andy'
p5671
tp5672
I1139
s(S'Zokol'
p5673
S'Richard'
p5674
tp5675
I159
s(S'Holman'
p5676
S'Nathan'
p5677
tp5678
I1935
s(S'Webber'
p5679
S'Kane'
p5680
tp5681
I1054
s(S'Adams III'
p5682
S'Frank'
p5683
tp5684
I1559
s(S'Calcavecchia'
p5685
S'Mark'
p5686
tp5687
I22
s(S'Chamblee'
p5688
S'Brandel'
p5689
tp5690
I25
s(S'Svoboda'
p5691
S'Andrew'
p5692
tp5693
I1376
s(S'Gonzales'
p5694
S'Andres'
p5695
tp5696
I1073
s(S'Horsfield'
p5697
S'Sam'
p5698
tp5699
I2028
s(S'Damesworth'
p5700
S'David'
p5701
tp5702
I1608
s(S'Smith'
p5703
S'Bruce'
p5704
tp5705
I456
s(S'Sanders'
p5706
S'Curt'
p5707
tp5708
I1199
s(S'German'
p5709
S'Kyle'
p5710
tp5711
I1343
s(S'Gillis'
p5712
S'Tom'
p5713
tp5714
I239
s(S'Lyle'
p5715
S'Sandy'
p5716
tp5717
I85
s(S'Fergin'
p5718
S'Michael'
p5719
tp5720
I394
s(S'Magee'
p5721
S'Andrew'
p5722
tp5723
I86
s(S'Jimenez'
p5724
S'Miguel Angel'
p5725
tp5726
I621
s(S'Nallen'
p5727
S'Chris'
p5728
tp5729
I731
s(S'Love III'
p5730
S'Davis'
p5731
tp5732
I82
s(S'Purdy'
p5733
S'Ted'
p5734
tp5735
I379
s(S'Cheetham'
p5736
S'Neil'
p5737
tp5738
I851
s(S'Holmes'
p5739
S'Steve'
p5740
tp5741
I1366
s(S'Tucker'
p5742
S'Mark'
p5743
tp5744
I809
s(S'Drummond'
p5745
S'Scott'
p5746
tp5747
I676
s(S'Snyder'
p5748
S'Jay'
p5749
tp5750
I923
s(S'Meade'
p5751
S'Charlie'
p5752
tp5753
I178
s(S'Lane'
p5754
S'Barry'
p5755
tp5756
I615
s(S'Edstrom'
p5757
S'Reid'
p5758
tp5759
I1187
s(S'Park'
p5760
S'S.J.'
p5761
tp5762
I1826
s(S'Cullen'
p5763
S'Nick'
p5764
tp5765
I1821
s(S'Tolles'
p5766
S'Tommy'
p5767
tp5768
I589
s(S'Mitchell'
p5769
S'Jordan'
p5770
tp5771
I1631
s(S'Smith'
p5772
S'Nate'
p5773
tp5774
I1494
s(S'Henninger'
p5775
g152
tp5776
I195
s(S'Knoll'
p5777
S'Raymond'
p5778
tp5779
I1792
s(S'Fiedler'
p5780
S'Jon'
p5781
tp5782
I48
s(S'Ott'
p5783
S'Brad'
p5784
tp5785
I1907
s(S'Kop'
p5786
S'Brandan'
p5787
tp5788
I940
s(S'Johnson'
p5789
S'Tom'
p5790
tp5791
I1089
s(S'Appleby'
p5792
S'Stuart'
p5793
tp5794
I314
s(S'Yancey'
p5795
S'Cameron'
p5796
tp5797
I500
s(S'Park'
p5798
S'Jin'
p5799
tp5800
I330
s(S'Hansen'
p5801
S'Anders'
p5802
tp5803
I1095
s(S'Shriver'
p5804
S'Eric'
p5805
tp5806
I1443
s(S'Schultz'
p5807
S'David'
p5808
tp5809
I1425
s(S'Sokol'
p5810
S'Steve'
p5811
tp5812
I1124
s(S'Adams'
p5813
S'John'
p5814
tp5815
I0
s(S'Harman'
p5816
S'Brian'
p5817
tp5818
I734
s(S'Wiratchant'
p5819
S'Thaworn'
p5820
tp5821
I965
s(S'Donald'
p5822
S'Mike'
p5823
tp5824
I37
s(S'Wheatcroft'
p5825
S'Steve'
p5826
tp5827
I868
s(S'Smock'
p5828
S'Brian'
p5829
tp5830
I1453
s(S'Harris'
p5831
S'Michael'
p5832
tp5833
I460
s(S'Sharp'
p5834
S'Tommy'
p5835
tp5836
I1986
s(S'Blackburn'
p5837
S'Brooks'
p5838
tp5839
I2015
s(S'Bekker'
p5840
S'Oliver'
p5841
tp5842
I1573
s(S'Hocknull'
p5843
S'Craig'
p5844
tp5845
I2001
s(S'McGowan'
p5846
S'Ross'
p5847
tp5848
I1379
s(S'Lingmerth'
p5849
S'David'
p5850
tp5851
I1667
s(S'von Hoffmann'
p5852
S'David'
p5853
tp5854
I1717
s(S'Curl'
p5855
S'Jeff'
p5856
tp5857
I1563
s(S'Sadakata'
p5858
S'Akio'
p5859
tp5860
I490
s(S'Pratt'
p5861
S'Andrew'
p5862
tp5863
I907
s(S'Choi'
p5864
S'Andy'
p5865
tp5866
I1161
s(S'Johnson'
p5867
S'Rob'
p5868
tp5869
I447
s(S'Rodgers'
p5870
S'Patrick'
p5871
tp5872
I1617
s(S'Poole'
p5873
S'Stephen'
p5874
tp5875
I1243
s(S'Hadley'
p5876
S'Brian'
p5877
tp5878
I1136
s(S'Dottley'
p5879
S'Will'
p5880
tp5881
I1032
s(S'Pettersson'
p5882
S'Carl'
p5883
tp5884
I474
s(S'Kelley'
p5885
S'Ken'
p5886
tp5887
I573
s(S'Weinhart'
p5888
S'Tim'
p5889
tp5890
I293
s(S'Horsey'
p5891
S'David'
p5892
tp5893
I1383
s(S'Constable'
p5894
S'Donald'
p5895
tp5896
I1679
s(S'Streb'
p5897
S'Robert'
p5898
tp5899
I1668
s(S'Immelman'
p5900
S'Trevor'
p5901
tp5902
I390
s(S'Richardson'
p5903
S'Clark'
p5904
tp5905
I1515
s(S'Brehm'
p5906
S'Ryan'
p5907
tp5908
I916
s(S'Reilly'
p5909
S'Mike'
p5910
tp5911
I536
s(S'Iredell'
p5912
S'Tom'
p5913
tp5914
I850
s(S'King'
p5915
S'Kevin'
p5916
tp5917
I1082
s(S'Griffin'
p5918
S'Matthew'
p5919
tp5920
I2025
s(S'Webster'
p5921
S'Steve'
p5922
tp5923
I1184
s(S'Chalmers'
p5924
S'Greg'
p5925
tp5926
I342
s(S'Johnson'
p5927
S'Jamie'
p5928
tp5929
I1050
s(S'Gump'
p5930
S'Scott'
p5931
tp5932
I783
s(S'Trimble'
p5933
S'Blake'
p5934
tp5935
I1404
s(S'Wood'
p5936
S'Chris'
p5937
tp5938
I1356
s(S'Potter'
p5939
S'Zechariah'
p5940
tp5941
I1843
s(S'Watkins'
p5942
S'Aaron'
p5943
tp5944
I898
s(S'Haeggman'
p5945
S'Joakim'
p5946
tp5947
I620
s(S'Morikawa'
p5948
S'Collin'
p5949
tp5950
I2040
s(S'Camplin'
p5951
S'Todd'
p5952
tp5953
I1507
s(S'Strohmeyer'
p5954
S'Scott'
p5955
tp5956
I2114
s(S'Mills'
p5957
S'Jon'
p5958
tp5959
I492
s(S'Senecal'
p5960
S'Kevin'
p5961
tp5962
I1104
s(S'Rose'
p5963
S'Clarence'
p5964
tp5965
I777
s(S'McNabb'
p5966
S'David'
p5967
tp5968
I1764
s(S'Osborn'
p5969
S'Payton'
p5970
tp5971
I1131
s(S'Moran'
p5972
S'Scott'
p5973
tp5974
I1388
s(S'Carter'
p5975
S'Pat'
p5976
tp5977
I1642
s(S'Hatalsky'
p5978
S'Morris'
p5979
tp5980
I1534
s(g3715
S'Daryl'
p5981
tp5982
I1174
s(S'Bohn'
p5983
S'Jason'
p5984
tp5985
I683
s(S'Del Vecchio'
p5986
S'Paul'
p5987
tp5988
I909
s(S'Matteson'
p5989
S'Troy'
p5990
tp5991
I534
s(S'Kase'
p5992
S'Hideki'
p5993
tp5994
I794
s(S'Twitty'
p5995
S'Howard'
p5996
tp5997
I147
s(S'Zarlengo'
p5998
S'Rick'
p5999
tp6000
I533
s(S'Miller'
p6001
S'Zack'
p6002
tp6003
I1316
s(S'Kamin'
p6004
S'Chris'
p6005
tp6006
I841
s(S'Wood'
p6007
S'Willie'
p6008
tp6009
I158
s(S'Marrello'
p6010
S'Fran'
p6011
tp6012
I936
s(S'DeVoll'
p6013
S'Casey'
p6014
tp6015
I1541
s(S'Henderson'
p6016
S'Mike'
p6017
tp6018
I689
s(S'Gillespie'
p6019
S'Derek'
p6020
tp6021
I470
s(S'Tway'
p6022
S'Bob'
p6023
tp6024
I145
s(S'Mitchell'
p6025
S'Daniel'
p6026
tp6027
I1387
s(S'Mason'
p6028
S'Nick'
p6029
tp6030
I1409
s(S'Wilson'
p6031
S'Steve'
p6032
tp6033
I1190
s(S'Smith'
p6034
S'Brandon'
p6035
tp6036
I1505
s(S'Weston'
p6037
S'Wes'
p6038
tp6039
I1266
s(S'Ming'
p6040
S'Chris'
p6041
tp6042
I845
s(S'Roth'
p6043
S'Jeff'
p6044
tp6045
I198
s(S'Rogers'
p6046
S'Jamie'
p6047
tp6048
I693
s(S'Gronberg'
p6049
S'Mathias'
p6050
tp6051
I324
s(S'Henderson'
p6052
S'Michael'
p6053
tp6054
I953
s(S'Larsson'
p6055
S'Dean'
p6056
tp6057
I812
s(S'Branshaw'
p6058
S'David'
p6059
tp6060
I648
s(S'Daley'
p6061
S'Joe'
p6062
tp6063
I1094
s(S'Elliott'
p6064
S'Bobby'
p6065
tp6066
I955
s(S'McGinley'
p6067
S'Paul'
p6068
tp6069
I275
s(S'Esler'
p6070
S'Josh'
p6071
tp6072
I1252
s(S'Van Horn'
p6073
S'Craig'
p6074
tp6075
I820
s(S'Woodson'
p6076
S'Jay'
p6077
tp6078
I1212
s(S'Hultman'
p6079
S'Anders'
p6080
tp6081
I843
s(S'Killpack'
p6082
S'Nick'
p6083
tp6084
I1932
s(S'Carr'
p6085
S'David'
p6086
tp6087
I1716
s(S'Paulson'
p6088
S'Carl'
p6089
tp6090
I313
s(S'Fujimoto'
p6091
S'Yoshinori'
p6092
tp6093
I1568
s(S'Demsey'
p6094
S'Todd'
p6095
tp6096
I1088
s(S'Springer'
p6097
S'Hayden'
p6098
tp6099
I1981
s(S'Lee'
p6100
S'Beon Yeong'
p6101
tp6102
I1438
s(S'Sisk'
p6103
S'Geoffrey'
p6104
tp6105
I590
s(S'Coceres'
p6106
S'Roberto'
p6107
tp6108
I863
s(S'Bisbee'
p6109
S'Jeff'
p6110
tp6111
I912
s(S'Cheesman'
p6112
S'Barry'
p6113
tp6114
I26
s(S'Manning'
p6115
S'Eric'
p6116
tp6117
I784
s(S'Smith'
p6118
S'Michael'
p6119
tp6120
I1154
s(S'Puska'
p6121
S'Jeff'
p6122
tp6123
I1381
s(S'Lowe'
p6124
S'Cortland'
p6125
tp6126
I1329
s(S'Owen'
p6127
S'Kyle'
p6128
tp6129
I2121
s(S'Cochran'
p6130
S'Bobby'
p6131
tp6132
I298
s(S'Rinker'
p6133
S'Lee'
p6134
tp6135
I120
s(S'Rutledge'
p6136
S'Jim'
p6137
tp6138
I124
s(S'Lundstrom'
p6139
S'David'
p6140
tp6141
I84
s(S'Compton'
p6142
S'Erik'
p6143
tp6144
I451
s(S'McLean'
p6145
S'Alan'
p6146
tp6147
I958
s(S'Beem'
p6148
S'Rich'
p6149
tp6150
I427
s(g5258
S'Andrew'
p6151
tp6152
I435
s(S'Miller'
p6153
S'Mark'
p6154
tp6155
I307
s(S'Stal'
p6156
S'Gary'
p6157
tp6158
I1817
s(S'Garcia'
p6159
S'Sergio'
p6160
tp6161
I365
s(S'Langley'
p6162
S'Scott'
p6163
tp6164
I1497
s(S'Bogle'
p6165
S'Scott'
p6166
tp6167
I558
s(S'Painter'
p6168
S'Anthony'
p6169
tp6170
I337
s(S'Hamilton'
p6171
S'Alex'
p6172
tp6173
I1398
s(S'Coletta'
p6174
S'Brett'
p6175
tp6176
I2005
s(S'Hoge'
p6177
S'Tom'
p6178
tp6179
I1519
s(S'Manassero'
p6180
S'Matteo'
p6181
tp6182
I1486
s(S'McMillan'
p6183
S'Rob'
p6184
tp6185
I309
s(S'McGreal'
p6186
S'Simon'
p6187
tp6188
I1304
s(S'Simonsen'
p6189
S'Henrik'
p6190
tp6191
I793
s(S'Van Pelt'
p6192
S'Bo'
p6193
tp6194
I675
s(S'Coles'
p6195
S'Gavin'
p6196
tp6197
I345
s(S'Stallings'
p6198
S'Scott'
p6199
tp6200
I1470
s(S'Lee'
p6201
S'Danny'
p6202
tp6203
I1223
s(S'Scherrer'
p6204
S'Tom'
p6205
tp6206
I255
s(S'Day'
p6207
S'Kelvin'
p6208
tp6209
I1835
s(S'Cotner'
p6210
S'Keoke'
p6211
tp6212
I1275
s(S'Dean'
p6213
S'Geoffrey'
p6214
tp6215
I719
s(S'Van Zyl'
p6216
S'Jaco'
p6217
tp6218
I1112
s(S'Gainey'
p6219
S'Tommy'
p6220
tp6221
I1159
s(S'Watson'
p6222
S'Derek'
p6223
tp6224
I1026
s(S'Howison'
p6225
S'Ryan'
p6226
tp6227
I1090
s(S'Stamey'
p6228
S'Nathan'
p6229
tp6230
I1487
s(S'Norlander'
p6231
S'Henrik'
p6232
tp6233
I1646
s(S'Damron'
p6234
S'Patrick'
p6235
tp6236
I540
s(S'Kanada'
p6237
S'Craig'
p6238
tp6239
I214
s(S'Shin'
p6240
S'Justin'
p6241
tp6242
I1854
s(S'Smith'
p6243
S'Jesse'
p6244
tp6245
I1654
s(S'Downes'
p6246
S'Billy'
p6247
tp6248
I2060
s(S'Clark'
p6249
S'Tim'
p6250
tp6251
I414
s(S'Scott'
p6252
S'Steve'
p6253
tp6254
I644
s(S'Cashell'
p6255
S'Scott'
p6256
tp6257
I1345
s(S'Sterling'
p6258
S'Scott'
p6259
tp6260
I942
s(S'Hoch'
p6261
S'Scott'
p6262
tp6263
I68
s(S'Conners'
p6264
S'Corey'
p6265
tp6266
I1700
s(S'Ihm'
p6267
S'Steven'
p6268
tp6269
I1697
s(S'Howser'
p6270
S'David'
p6271
tp6272
I299
s(S'Choi'
p6273
S'K.J.'
p6274
tp6275
I445
s(S'Niemann'
p6276
S'Joaquin'
p6277
tp6278
I2063
s(S'Vegas'
p6279
S'Jhonattan'
p6280
tp6281
I529
s(S'Chestnut'
p6282
S'Jimmy'
p6283
tp6284
I914
s(S'Love'
p6285
S'Sam'
p6286
tp6287
I1785
s(S'Woods'
p6288
S'Tiger'
p6289
tp6290
I240
s(S'Knapp'
p6291
S'Jake'
p6292
tp6293
I1879
s(S'Jamieson'
p6294
S'Scott'
p6295
tp6296
I1650
s(S'Cevaer'
p6297
S'Christian'
p6298
tp6299
I1274
s(S'Geiberger'
p6300
S'Brent'
p6301
tp6302
I279
s(S'Saunders'
p6303
S'Sam'
p6304
tp6305
I1042
s(S'Abbott'
p6306
S'Scott'
p6307
tp6308
I1137
s(S'Cornellier'
p6309
S'Jean-Philip'
p6310
tp6311
I1858
s(S'McNeill'
p6312
S'George'
p6313
tp6314
I449
s(S'Kimbell'
p6315
S'John'
p6316
tp6317
I1639
s(S'Yang'
p6318
S'Y.E.'
p6319
tp6320
I684
s(S'Brown'
p6321
S'Christopher'
p6322
tp6323
I1423
s(S'Doell'
p6324
S'Craig'
p6325
tp6326
I761
s(S'Goya'
p6327
S'Tano'
p6328
tp6329
I1729
s(S'Austin'
p6330
S'Mike'
p6331
tp6332
I585
s(S'Pesta'
p6333
S'Matt'
p6334
tp6335
I1742
s(S'Hutsell'
p6336
S'David'
p6337
tp6338
I1548
s(S'Freeman'
p6339
S'Jeff'
p6340
tp6341
I1450
s(S'Petrovic'
p6342
S'Tim'
p6343
tp6344
I112
s(S'Jacobs'
p6345
S'Hal'
p6346
tp6347
I1043
s(S'Rangel'
p6348
S'Jeff'
p6349
tp6350
I1527
s.