(dp0
(S'Schaake'
p1
S'Carson'
p2
tp3
I1900
s(S'Oda'
p4
S'Koumei'
p5
tp6
I1459
s(S'Philo, Jr.'
p7
S'Ron'
p8
tp9
I206
s(S'Armstrong'
p10
S'Ty'
p11
tp12
I599
s(S'Arnaud'
p13
S'Michael'
p14
tp15
I1482
s(S'Turcott'
p16
S'Jon'
p17
tp18
I504
s(S'Stefani'
p19
S'Shawn'
p20
tp21
I1580
s(S'Hendry'
p22
S'Mike'
p23
tp24
I1645
s(S'Collins'
p25
S'Chad'
p26
tp27
I1203
s(S'Hatton'
p28
S'Tyrrell'
p29
tp30
I1830
s(S'Nicklaus'
p31
S'Gary'
p32
tp33
I233
s(S'Williams'
p34
S'Chris'
p35
tp36
I1672
s(S'Landreville'
p37
S'Eric'
p38
tp39
I1254
s(S'Smith'
p40
S'Jerry'
p41
tp42
I130
s(S'Simpson'
p43
S'Scott'
p44
tp45
I126
s(S'Bullington'
p46
S'Brian'
p47
tp48
I1970
s(S'Im'
p49
S'Daniel'
p50
tp51
I1238
s(S'Stinson'
p52
S'Kevin'
p53
tp54
I1741
s(S'Light'
p55
S'Tyler'
p56
tp57
I2082
s(S'May'
p58
S'Bob'
p59
tp60
I177
s(S'Pate'
p61
S'Steve'
p62
tp63
I105
s(S'Williams'
p64
S'Gene'
p65
tp66
I1422
s(S'Liang'
p67
S'Wen-Chong'
p68
tp69
I993
s(S'Hossler'
p70
S'Beau'
p71
tp72
I1594
s(S'McClintock'
p73
S'Ryan'
p74
tp75
I1989
s(S'Farren'
p76
S'Sean'
p77
tp78
I507
s(S'Adams'
p79
S'Adam'
p80
tp81
I926
s(S'Wadkins'
p82
S'Travis'
p83
tp84
I1590
s(S'Dinwiddie'
p85
S'Robert'
p86
tp87
I1145
s(S'Hagestad'
p88
S'Stewart'
p89
tp90
I2087
s(S"O'Meara"
p91
S'Mark'
p92
tp93
I100
s(S'King'
p94
S'Corbin'
p95
tp96
I1155
s(S'Jones'
p97
S'Steve'
p98
tp99
I74
s(S'Ajubita'
p100
S'Neal'
p101
tp102
I1772
s(S'Jones'
p103
S'Brendan'
p104
tp105
I848
s(S'Axley'
p106
S'Eric'
p107
tp108
I838
s(S'Karlberg'
p109
S'Rikard'
p110
tp111
I1910
s(S'Bradley'
p112
S'Michael'
p113
tp114
I14
s(S'McClellan'
p115
S'Robert'
p116
tp117
I1460
s(S'Itzen'
p118
S'Justin'
p119
tp120
I1567
s(S'Venezio'
p121
S'Daniel'
p122
tp123
I1903
s(S'Kodaira'
p124
S'Satoshi'
p125
tp126
I1658
s(S'Gilliam'
p127
S'Nick'
p128
tp129
I700
s(S'Muto'
p130
S'Toshinori'
p131
tp132
I1555
s(S'Ouellette'
p133
S'Ryan'
p134
tp135
I455
s(S'Wilson'
p136
S'Mike'
p137
tp138
I1182
s(S'Johnston'
p139
S'Mike'
p140
tp141
I1253
s(S'Spence'
p142
S'Nigel'
p143
tp144
I1801
s(S'Bradford'
p145
S'George'
p146
tp147
I696
s(S'Benedetti'
p148
S'Camilo'
p149
tp150
I515
s(S'Watts'
p151
S'Brian'
p152
tp153
I154
s(S'Rollins'
p154
S'John'
p155
tp156
I404
s(S'Yurkiewicz'
p157
S'Jeff'
p158
tp159
I513
s(S'Widener'
p160
S'Jason'
p161
tp162
I2073
s(S'Rask'
p163
S'Clayton'
p164
tp165
I1916
s(S'MacPherson'
p166
S'Bryden'
p167
tp168
I1583
s(S'Gay'
p169
S'Brian'
p170
tp171
I302
s(S'Watson'
p172
S'Denis'
p173
tp174
I153
s(S'Dvorak'
p175
S'Doug'
p176
tp177
I1241
s(S'Kealey'
p178
S'Craig'
p179
tp180
I795
s(S'Holmes'
p181
S'David'
p182
tp183
I1800
s(S'Browne'
p184
S'Olin'
p185
tp186
I17
s(S'McClain'
p187
S'Wesley'
p188
tp189
I2022
s(S'Gutgsell'
p190
S'Austin'
p191
tp192
I1614
s(S'Olsen'
p193
S'Dan'
p194
tp195
I600
s(S'Swafford'
p196
S'Hudson'
p197
tp198
I1737
s(S'Mackenzie'
p199
S'Brock'
p200
tp201
I744
s(S'Elliott'
p202
S'John'
p203
tp204
I789
s(S'Levesque'
p205
S'Dave'
p206
tp207
I1711
s(S'Osborne'
p208
S'William'
p209
tp210
I1610
s(S'Cabrera Bello'
p211
S'Rafa'
p212
tp213
I1552
s(S'Allem'
p214
S'Fulton'
p215
tp216
I1
s(S'Brooks'
p217
S'Mark'
p218
tp219
I16
s(S'Palmer'
p220
S'Ryan'
p221
tp222
I666
s(S'Takayama'
p223
S'Tadahiro'
p224
tp225
I1012
s(S'Fdez-Casta\xf1o'
p226
S'Gonzalo'
p227
tp228
I997
s(S'Dubuisson'
p229
S'Victor'
p230
tp231
I1721
s(S'Gruss'
p232
S'Andrew'
p233
tp234
I1245
s(S'Watney'
p235
S'Nick'
p236
tp237
I532
s(S'Hadley'
p238
S'Chesson'
p239
tp240
I1589
s(S'Cavanagh'
p241
S'Santiago'
p242
tp243
I1233
s(S'Jaeckel'
p244
S'Barry'
p245
tp246
I72
s(S'Sanchez'
p247
S'David'
p248
tp249
I1566
s(S'Yates'
p250
S'Greg'
p251
tp252
I1956
s(S'Smith'
p253
S'Nathan'
p254
tp255
I1715
s(S'Schulz'
p256
S'Ted'
p257
tp258
I1178
s(S'Ramey'
p259
S'Chad'
p260
tp261
I1895
s(S'Carrigan'
p262
S'Kevin'
p263
tp264
I1694
s(S'Polzin'
p265
S'Ryan'
p266
tp267
I1856
s(S'Cook'
p268
S'John'
p269
tp270
I31
s(S'Dennis'
p271
S'Clark'
p272
tp273
I767
s(S'McLardy'
p274
S'Andrew'
p275
tp276
I655
s(S'Senden'
p277
S'John'
p278
tp279
I349
s(S'Conway'
p280
S'Steve'
p281
tp282
I1149
s(S'Albertson'
p283
S'Anders'
p284
tp285
I2047
s(S'Sadlowski'
p286
S'Jamie'
p287
tp288
I2023
s(S'Kuehne'
p289
S'Hank'
p290
tp291
I426
s(S'Kruger'
p292
S"Jbe'"
p293
tp294
I1570
s(S'Vazquez'
p295
S'Sebastian'
p296
tp297
I1930
s(S'Willis'
p298
S'Garrett'
p299
tp300
I329
s(S'Dietsche'
p301
S'Paul'
p302
tp303
I256
s(S'Heintz'
p304
S'Bob'
p305
tp306
I607
s(S'Bowden'
p307
S'Craig'
p308
tp309
I210
s(S'Pigman'
p310
S'Kenny'
p311
tp312
I2000
s(S'Wood'
p313
S'JJ'
p314
tp315
I2100
s(S'Narro'
p316
S'Jake'
p317
tp318
I415
s(S'Cline'
p319
S'Kelsey'
p320
tp321
I499
s(S'Huston'
p322
g269
tp323
I70
s(S'Kuwabara'
p324
S'Katsunori'
p325
tp326
I360
s(S'Sherfy'
p327
S'Brad'
p328
tp329
I181
s(S'Lavery'
p330
S'Mike'
p331
tp332
I730
s(S'Beckstrom'
p333
S'Colby'
p334
tp335
I904
s(S'Oda'
p336
S'Ryuichi'
p337
tp338
I1364
s(S'Johnson'
p339
S'Neil'
p340
tp341
I2061
s(S'Gangluff'
p342
S'Stephen'
p343
tp344
I852
s(S'Mahlberg'
p345
S'Scott'
p346
tp347
I1176
s(S'Osborn'
p348
S'Garrett'
p349
tp350
I1227
s(S'Cejka'
p351
S'Alex'
p352
tp353
I331
s(S'Duncan'
p354
S'Tyler'
p355
tp356
I2108
s(S'Dillow'
p357
S'Chris'
p358
tp359
I1172
s(S'Goich'
p360
S'George'
p361
tp362
I985
s(S'Brewbaker'
p363
S'Fielding'
p364
tp365
I1760
s(S'Edwards'
p366
S'David'
p367
tp368
I39
s(S'Duke'
p369
S'Ken'
p370
tp371
I624
s(S'Pate'
p372
S'Jerry'
p373
tp374
I104
s(S'Aguilar'
p375
S'Tony'
p376
tp377
I810
s(S'Brand'
p378
S'Christian'
p379
tp380
I1524
s(S'Tanaka'
p381
S'Hidemichi'
p382
tp383
I335
s(S'Lowe'
p384
S'Mitch'
p385
tp386
I946
s(S'Yun'
p387
S'Andrew'
p388
tp389
I2106
s(S'Bigley'
p390
S'Bryan'
p391
tp392
I1510
s(S'Faught'
p393
S'David'
p394
tp395
I660
s(S'Jones'
p396
S'Kent'
p397
tp398
I257
s(S'Baldwin'
p399
S'Chase'
p400
tp401
I1446
s(S'Pare'
p402
S'Troy'
p403
tp404
I922
s(S'Havret'
p405
S'Gregory'
p406
tp407
I1101
s(S'Hartwick'
p408
S'Jason'
p409
tp410
I742
s(S'Rank'
p411
S'Garrett'
p412
tp413
I1899
s(S'McLuen'
p414
S'Jay'
p415
tp416
I1641
s(S'Carter'
p417
S'Jim'
p418
tp419
I24
s(S'Imondi'
p420
S'Paul'
p421
tp422
I1584
s(S'Reeves'
p423
S'Zack'
p424
tp425
I1623
s(S'Price'
p426
S'Aron'
p427
tp428
I925
s(S'Mawjii'
p429
S'Abs'
p430
tp431
I1261
s(S'Yrene'
p432
S'Don'
p433
tp434
I658
s(S'Overton'
p435
S'Jeff'
p436
tp437
I917
s(S'Martin'
p438
S'Mike'
p439
tp440
I271
s(S'Shinaut'
p441
S'Tyson'
p442
tp443
I1420
s(S'Peters'
p444
S'Justin'
p445
tp446
I999
s(S'Jacobson'
p447
S'Freddie'
p448
tp449
I372
s(S'Howell'
p450
S'David'
p451
tp452
I343
s(S'Thomas'
p453
S'Craig'
p454
tp455
I608
s(S'Lehman'
p456
S'Tom'
p457
tp458
I78
s(S'Massey'
p459
S'Richard'
p460
tp461
I220
s(S'Bartoletti'
p462
S'Louis'
p463
tp464
I935
s(S'Scheffler'
p465
S'Scottie'
p466
tp467
I1778
s(S'Varner III'
p468
S'Harold'
p469
tp470
I1754
s(S'Vervaecke'
p471
S'Zack'
p472
tp473
I1897
s(S'Baker'
p474
S'Shawn'
p475
tp476
I886
s(S'Moore'
p477
S'Will'
p478
tp479
I430
s(S'Murphy'
p480
S'Sean'
p481
tp482
I171
s(S'Hill'
p483
S'Matt'
p484
tp485
I1340
s(S'Leibovich'
p486
S'Rick'
p487
tp488
I617
s(S'Pooley'
p489
S'Don'
p490
tp491
I579
s(S'Savage'
p492
S'Kevin'
p493
tp494
I630
s(S'Scott'
p495
S'Drew'
p496
tp497
I1234
s(S'Ames'
p498
S'Stephen'
p499
tp500
I160
s(S'Allan'
p501
g62
tp502
I370
s(S'Engler, Jr.'
p503
S'John'
p504
tp505
I1003
s(S'Sheehan'
p506
S'Paul'
p507
tp508
I837
s(S'Rogers'
p509
S'Chris'
p510
tp511
I1226
s(S'Deuel'
p512
S'Mike'
p513
tp514
I547
s(S'Finch'
p515
S'Richard'
p516
tp517
I1198
s(S'Olivo'
p518
S'Nate'
p519
tp520
I1511
s(S'Hickman'
p521
S'Joey'
p522
tp523
I1053
s(S'Smith'
p524
S'Michael*'
p525
tp526
I1818
s(S'Yates'
p527
S'Simon'
p528
tp529
I832
s(S'Mayfair'
p530
S'Billy'
p531
tp532
I91
s(S'Noh'
p533
S'Seung-Yul'
p534
tp535
I1374
s(S'Ping'
p536
S'David'
p537
tp538
I865
s(S'Koepka'
p539
S'Brooks'
p540
tp541
I1749
s(S'Beckman'
p542
S'Cameron'
p543
tp544
I280
s(S'Pope'
p545
S'Andy'
p546
tp547
I1661
s(S'Elder'
p548
S'Brad'
p549
tp550
I413
s(S'Kuchar'
p551
S'Matt'
p552
tp553
I411
s(S'Evanecz'
p554
S'Mitch'
p555
tp556
I1491
s(S'Sutherland'
p557
S'Kevin'
p558
tp559
I194
s(S'Malnati'
p560
S'Peter'
p561
tp562
I1738
s(S'Wadkins'
p563
S'Bobby'
p564
tp565
I1081
s(S'Byrd'
p566
S'Jonathan'
p567
tp568
I462
s(S'Corr'
p569
S'Jeff'
p570
tp571
I1814
s(S'Palmer'
p572
S'Arnold'
p573
tp574
I102
s(S'Russell'
p575
S'Terry'
p576
tp577
I807
s(S'Welch'
p578
S'Mike'
p579
tp580
I1070
s(S'Dodds'
p581
S'Trevor'
p582
tp583
I36
s(S'Vranesh'
p584
S'Brian'
p585
tp586
I1286
s(S'Yang'
p587
S'Gunn'
p588
tp589
I1868
s(S'Mulder'
p590
S'Brock'
p591
tp592
I1168
s(S'Blaum'
p593
S'Ryan'
p594
tp595
I1133
s(S'Chan'
p596
S'Lorens'
p597
tp598
I1326
s(S'Cook'
p599
S'Austin'
p600
tp601
I1784
s(S'Jacquelin'
p602
S'Raphael'
p603
tp604
I358
s(S'Gardner'
p605
S'Tom'
p606
tp607
I1604
s(S'Eichelberger'
p608
S'Dave'
p609
tp610
I565
s(S'Black'
p611
S'Chris'
p612
tp613
I1621
s(S'Ponchock'
p614
S'Del'
p615
tp616
I612
s(S'Atkins'
p617
S'Matt'
p618
tp619
I1949
s(S'Bohn'
p620
S'Douglas'
p621
tp622
I473
s(S'Connelly'
p623
S'Austin'
p624
tp625
I1892
s(S'Muehr'
p626
S'Michael'
p627
tp628
I297
s(S'Finau'
p629
S'Tony'
p630
tp631
I1143
s(S'Flores'
p632
S'Martin'
p633
tp634
I1030
s(S'Begay III'
p635
S'Notah'
p636
tp637
I308
s(S'Griff'
p638
S'Darren'
p639
tp640
I963
s(S'Grace'
p641
S'Branden'
p642
tp643
I1569
s(S'West'
p644
S'Heath'
p645
tp646
I903
s(S'Rokisky'
p647
S'Jody'
p648
tp649
I1056
s(S'van der Walt'
p650
S'Dawie'
p651
tp652
I1718
s(S'Parker'
p653
S'Chase'
p654
tp655
I1982
s(S'Lewis'
p656
S'J.L.'
p657
tp658
I80
s(S'Parry'
p659
S'Craig'
p660
tp661
I103
s(S'Bateman'
p662
S'Ahmad'
p663
tp664
I803
s(S'Freeman'
p665
S'Robin'
p666
tp667
I50
s(S'Ormsby'
p668
S'Wade'
p669
tp670
I2074
s(S'LaBelle II'
p671
S'Doug'
p672
tp673
I1100
s(S'Kesterson'
p674
S'Tanner'
p675
tp676
I1434
s(S'Singh'
p677
S'Jeev Milkha'
p678
tp679
I957
s(S'Danielson'
p680
S'Charlie'
p681
tp682
I1971
s(S'Corpening'
p683
S'Franklin'
p684
tp685
I1657
s(S'Bradshaw'
p686
S'David'
p687
tp688
I1454
s(S'Collins'
p689
S'Will'
p690
tp691
I1746
s(S'Schiene'
p692
S'Marty'
p693
tp694
I180
s(S'Armour'
p695
S'Ryan'
p696
tp697
I1093
s(S'Schutte'
p698
S'Warren'
p699
tp700
I1352
s(S'Duty'
p701
S'Patrick'
p702
tp703
I518
s(S'Lee'
p704
S'Sung Min'
p705
tp706
I2071
s(S'Meola'
p707
S'Charles'
p708
tp709
I551
s(S'Ricketts'
p710
S'Brian'
p711
tp712
I1611
s(S'Rominger'
p713
S'Martin'
p714
tp715
I996
s(S'Tiziani'
p716
S'Mario'
p717
tp718
I274
s(S'Canizares'
p719
S'Alejandro'
p720
tp721
I1123
s(S'Brehaut'
p722
S'Jeff'
p723
tp724
I228
s(S'Podas'
p725
S'David'
p726
tp727
I896
s(S'Bae'
p728
S'Sangmoon'
p729
tp730
I1302
s(S'van der Walt'
p731
S'Tjaart'
p732
tp733
I638
s(S'McCarron'
p734
S'Scott'
p735
tp736
I254
s(S'Molina'
p737
S'Mauricio'
p738
tp739
I1277
s(S'McGirt'
p740
S'William'
p741
tp742
I1170
s(S'McCarthy'
p743
S'Dan'
p744
tp745
I1912
s(S'Pacetti'
p746
S'Sean'
p747
tp748
I587
s(S'Yeckes'
p749
S'Jeffrey'
p750
tp751
I900
s(S'Baca'
p752
S'Ryan'
p753
tp754
I1375
s(S'Swan'
p755
S'Matthew'
p756
tp757
I1522
s(S'Power'
p758
S'Seamus'
p759
tp760
I1991
s(S'Leishman'
p761
S'Marc'
p762
tp763
I1290
s(S'Malm'
p764
S'Curtis'
p765
tp766
I1015
s(S'Scheer'
p767
S'Alan'
p768
tp769
I1771
s(S'Elliott'
p770
S'Jamie'
p771
tp772
I688
s(S'Olesen'
p773
S'Thorbj\xf8rn'
p774
tp775
I1663
s(S'Bushka'
p776
S'John'
p777
tp778
I1061
s(S'Haas, Jr.'
p779
S'Jay'
p780
tp781
I1052
s(S'Broadaway'
p782
S'Josh'
p783
tp784
I1458
s(S'Weintraub'
p785
S'Isaac'
p786
tp787
I1382
s(S'D\xedaz'
p788
S'Roberto'
p789
tp790
I2042
s(S'Piller'
p791
S'Martin'
p792
tp793
I1323
s(S'Vermeer'
p794
S'Ryan'
p795
tp796
I2094
s(S'Noll'
p797
S'David'
p798
tp799
I738
s(S'Goodwin'
p800
S'Shaun'
p801
tp802
I1049
s(S'Coetzee'
p803
S'George'
p804
tp805
I1644
s(S'Anderson'
p806
S'Chris'
p807
tp808
I408
s(S'Rau'
p809
S'Nathaniel'
p810
tp811
I1703
s(S'San Filippo'
p812
S'Mike'
p813
tp814
I932
s(S'Spengler'
p815
S'Dave'
p816
tp817
I779
s(S'Parry'
p818
S'Bryn'
p819
tp820
I1117
s(S'Mitchum'
p821
S'Kelly'
p822
tp823
I296
s(S'Sonnier'
p824
S'Greg'
p825
tp826
I1554
s(S'Young'
p827
S'Steven'
p828
tp829
I1802
s(S'Warren'
p830
S'Marc'
p831
tp832
I1713
s(S'Affrunti'
p833
S'Joe'
p834
tp835
I750
s(S'Wilcox'
p836
S'Will'
p837
tp838
I1427
s(S'Baker'
p839
S'Mark'
p840
tp841
I1649
s(S'Streelman'
p842
S'Kevin'
p843
tp844
I539
s(S'Barron'
p845
S'Doug'
p846
tp847
I315
s(S'Levet'
p848
S'Thomas'
p849
tp850
I283
s(S'Johnson'
p851
S'Vincent'
p852
tp853
I1331
s(S'Green'
p854
S'Nathan'
p855
tp856
I982
s(S'Maggert'
p857
S'Jeff'
p858
tp859
I87
s(S'Choi'
p860
S'Phillip'
p861
tp862
I1532
s(S'Pagunsan'
p863
S'Juvic'
p864
tp865
I1122
s(S'Dredge'
p866
S'Bradley'
p867
tp868
I836
s(S'Slattery'
p869
S'Kurt'
p870
tp871
I2054
s(S'Poncino'
p872
S'Vinnie'
p873
tp874
I1037
s(S'Rozo'
p875
S'Marcelo'
p876
tp877
I1847
s(S'Hatch'
p878
S'Terry'
p879
tp880
I830
s(S'Wise'
p881
S'Aaron'
p882
tp883
I1975
s(S'Kearney'
p884
S'Thomas'
p885
tp886
I1403
s(S'Andrade'
p887
S'Billy'
p888
tp889
I2
s(S'Murray'
p890
S'Tom'
p891
tp892
I1533
s(S'Tryon'
p893
S'Ty'
p894
tp895
I478
s(S'Peck'
p896
S'Brad'
p897
tp898
I1284
s(S'Meierdierks'
p899
S'Eric'
p900
tp901
I1347
s(S'Bourque'
p902
S'Casey'
p903
tp904
I1213
s(S'Heirakuji'
p905
S'Royden'
p906
tp907
I520
s(S'Hall'
p908
S'Kevin'
p909
tp910
I877
s(S'Hahn'
p911
S'James'
p912
tp913
I1655
s(S'Kaymer'
p914
S'Martin'
p915
tp916
I1208
s(S'Kim'
p917
S'Michael'
p918
tp919
I1698
s(S'Frazar'
p920
S'Harrison'
p921
tp922
I375
s(S'Mariano'
p923
S'Abe'
p924
tp925
I1146
s(S'Jacobsen'
p926
S'Peter'
p927
tp928
I71
s(S'Turnesa'
p929
S'Marc'
p930
tp931
I1205
s(S'Witherall'
p932
S'John'
p933
tp934
I521
s(S'Gibb'
p935
S'Judd'
p936
tp937
I1358
s(S'Silvers'
p938
S'Mark'
p939
tp940
I1665
s(S'Imano'
p941
S'Yasuharu'
p942
tp943
I382
s(S'Wilson'
p944
S'Brian'
p945
tp946
I601
s(S'Hoshino'
p947
S'Hidemasa'
p948
tp949
I1186
s(S'Evans'
p950
S'Barry'
p951
tp952
I506
s(S'Brown'
p953
S'Ted'
p954
tp955
I1371
s(S'Stegmaier'
p956
S'Brett'
p957
tp958
I1060
s(S'Griffith'
p959
S'Glen'
p960
tp961
I1684
s(S'Loar'
p962
S'Edward'
p963
tp964
I463
s(S'Wall'
p965
S'Anthony'
p966
tp967
I969
s(S'King'
p968
S'Danny'
p969
tp970
I1020
s(S'Merritt'
p971
S'Troy'
p972
tp973
I1392
s(S'Reid'
p974
S'Mike'
p975
tp976
I116
s(S'Mills'
p977
S'Corbin'
p978
tp979
I1606
s(S'Cole'
p980
S'Bobby'
p981
tp982
I30
s(S'Robinson'
p983
S'David'
p984
tp985
I1273
s(S'Foley'
p986
S'Kevin'
p987
tp988
I1745
s(S'Covello'
p989
S'Vince'
p990
tp991
I1659
s(S'Vogel'
p992
S'T.J.'
p993
tp994
I1690
s(S'Carranza'
p995
S'Clodomiro'
p996
tp997
I483
s(S'Berganio, Jr.'
p998
S'David'
p999
tp1000
I202
s(S'Luck'
p1001
S'Curtis'
p1002
tp1003
I2013
s(S'Gibson'
p1004
S'Rhein'
p1005
tp1006
I1917
s(S'Long'
p1007
S'Michael'
p1008
tp1009
I821
s(S'Svensson'
p1010
S'Adam'
p1011
tp1012
I1704
s(S'Paratore'
p1013
S'Renato'
p1014
tp1015
I2103
s(S'Benjamin'
p1016
S'Brad'
p1017
tp1018
I1416
s(S'Hansen'
p1019
S'Jaysen'
p1020
tp1021
I2099
s(S'Leary'
p1022
S'John Ray'
p1023
tp1024
I393
s(S'Caldwell'
p1025
S'Rex'
p1026
tp1027
I23
s(S'Matsuyama'
p1028
S'Hideki'
p1029
tp1030
I1480
s(S'Fabel'
p1031
S'Brad'
p1032
tp1033
I43
s(S'Yelverton'
p1034
S'Tim'
p1035
tp1036
I1927
s(S'Soero'
p1037
S'Pierre-Henri'
p1038
tp1039
I1561
s(S'Delahoussaye'
p1040
S'Brent'
p1041
tp1042
I1051
s(S'Deason'
p1043
S'Chip'
p1044
tp1045
I1114
s(S'Morris'
p1046
S'Dustin'
p1047
tp1048
I1615
s(S'Harkins'
p1049
S'Brandon'
p1050
tp1051
I2105
s(S'Dobyns'
p1052
S'Matt'
p1053
tp1054
I1678
s(S'Meyer'
p1055
S'Greg'
p1056
tp1057
I610
s(S'Edfors'
p1058
S'Johan'
p1059
tp1060
I1014
s(S'Carbone'
p1061
S'Michael'
p1062
tp1063
I1071
s(S'Maginnes'
p1064
S'John'
p1065
tp1066
I236
s(S'Hronek'
p1067
S'David'
p1068
tp1069
I1740
s(S'Bowditch'
p1070
S'Steven'
p1071
tp1072
I862
s(S'Knaub'
p1073
S'Brandon'
p1074
tp1075
I747
s(S'Burgin'
p1076
S'Kelvin'
p1077
tp1078
I1162
s(S'Gleaton'
p1079
S'Todd'
p1080
tp1081
I618
s(S'Maness'
p1082
S'Mark'
p1083
tp1084
I88
s(S'Bourdy'
p1085
S'Gr\xe9gory'
p1086
tp1087
I1008
s(S'Curtis'
p1088
S'Ben'
p1089
tp1090
I399
s(S'Larrazabal'
p1091
S'Pablo'
p1092
tp1093
I1222
s(S'Worthington II'
p1094
S'Wyatt'
p1095
tp1096
I1976
s(S'Kurmel'
p1097
S'Chad'
p1098
tp1099
I1150
s(S'Stevens'
p1100
S'Craig'
p1101
tp1102
I135
s(S'Fdez-Castano'
p1103
S'Gonzalo'
p1104
tp1105
I997
s(S'Dou'
p1106
S'Zecheng'
p1107
tp1108
I2107
s(S'Elkington'
p1109
S'Steve'
p1110
tp1111
I41
s(S'Kim'
p1112
S'Anthony'
p1113
tp1114
I1072
s(S'Greenwell'
p1115
S'Robbie'
p1116
tp1117
I1732
s(S'Patten'
p1118
S'Zeb'
p1119
tp1120
I244
s(S'Harding'
p1121
S'Tom'
p1122
tp1123
I204
s(S'Niebrugge'
p1124
S'Jordan'
p1125
tp1126
I1779
s(S'Peterson'
p1127
S'John'
p1128
tp1129
I1597
s(S'Blackmar'
p1130
S'Phil'
p1131
tp1132
I11
s(S'Scott'
p1133
S'Adam'
p1134
tp1135
I452
s(S'Etulain'
p1136
S'Juli\xe1n'
p1137
tp1138
I1992
s(S'Church'
p1139
S'David'
p1140
tp1141
I611
s(S'Barber'
p1142
S'Blayne'
p1143
tp1144
I1673
s(S'Jack'
p1145
S'Billy'
p1146
tp1147
I818
s(S'Medlin'
p1148
S'Scott'
p1149
tp1150
I1353
s(S'Gleeton'
p1151
S'Tom'
p1152
tp1153
I569
s(S'Azinger'
p1154
S'Paul'
p1155
tp1156
I4
s(S'Fisher'
p1157
S'Darin'
p1158
tp1159
I2052
s(S'Gibson'
p1160
S'Kelly'
p1161
tp1162
I56
s(S'Dickerson'
p1163
S'Bubba'
p1164
tp1165
I496
s(S'Mathis'
p1166
g394
tp1167
I661
s(S'Wakefield'
p1168
S'Simon'
p1169
tp1170
I978
s(S'Hickson'
p1171
S'John'
p1172
tp1173
I801
s(S'Norman'
p1174
S'Greg'
p1175
tp1176
I98
s(S'Dougherty'
p1177
S'Sean'
p1178
tp1179
I1816
s(S'Kitayama'
p1180
S'Kurt'
p1181
tp1182
I2036
s(S'Hurley'
p1183
S'John'
p1184
tp1185
I1598
s(S'Kua'
p1186
S'T.J.'
p1187
tp1188
I1407
s(S'Carter'
p1189
S'Tom'
p1190
tp1191
I273
s(S'Woods'
p1192
S'Jim'
p1193
tp1194
I443
s(S'Welborn'
p1195
S'Ryan'
p1196
tp1197
I405
s(S'Teshima'
p1198
S'Taichi'
p1199
tp1200
I356
s(S'Claar'
p1201
g152
tp1202
I27
s(S'Streck'
p1203
S'Ron'
p1204
tp1205
I1349
s(S'McIlroy'
p1206
S'Rory'
p1207
tp1208
I1301
s(S'Hughes'
p1209
S'Bradley'
p1210
tp1211
I267
s(S'Sanchez'
p1212
S'Javier'
p1213
tp1214
I799
s(S'Miller'
p1215
S'Andy'
p1216
tp1217
I467
s(S'Skinner'
p1218
S'Sonny'
p1219
tp1220
I934
s(S'Kraft'
p1221
S'Greg'
p1222
tp1223
I162
s(S'Colsaerts'
p1224
S'Nicolas'
p1225
tp1226
I1546
s(S'Brown'
p1227
S'Mark'
p1228
tp1229
I966
s(S'Hart'
p1230
S'Jeff'
p1231
tp1232
I769
s(S'Nakamura'
p1233
S'Tatsuaki'
p1234
tp1235
I642
s(S'Winkel'
p1236
S'Chris'
p1237
tp1238
I436
s(S'Olson'
p1239
S'Leif'
p1240
tp1241
I1297
s(S'Owen'
p1242
S'Greg'
p1243
tp1244
I823
s(S'Polland'
p1245
S'Ben'
p1246
tp1247
I1887
s(S'Knost'
p1248
S'Colt'
p1249
tp1250
I1158
s(S'Halpen'
p1251
S'Todd'
p1252
tp1253
I1074
s(S'Morse'
p1254
S'John'
p1255
tp1256
I209
s(S'Bernard'
p1257
S'Hugo'
p1258
tp1259
I1988
s(S'White'
p1260
S'Dustin'
p1261
tp1262
I1024
s(S'Wolfes'
p1263
S'Scott'
p1264
tp1265
I1964
s(S'McRoy'
p1266
S'Spike'
p1267
tp1268
I230
s(S'Maruyama'
p1269
S'Shigeki'
p1270
tp1271
I286
s(S'Vomacka'
p1272
S'Dean'
p1273
tp1274
I1278
s(S'Downs'
p1275
S'Dennis'
p1276
tp1277
I1628
s(S'Sawada'
p1278
S'Jared'
p1279
tp1280
I1770
s(S'Cooper'
p1281
S'Cory'
p1282
tp1283
I1967
s(S'McMillan'
p1284
S'Robert'
p1285
tp1286
I1221
s(S'Rainaud'
p1287
S'Adam'
p1288
tp1289
I1786
s(S'Juszczyk'
p1290
S'Joseph'
p1291
tp1292
I1839
s(S'Sutton'
p1293
S'Hal'
p1294
tp1295
I139
s(S'Dully'
p1296
S'Frank'
p1297
tp1298
I973
s(S'Loupe'
p1299
S'Andrew'
p1300
tp1301
I1508
s(S'Stanger'
p1302
S'Jimmy'
p1303
tp1304
I2044
s(S'Sanday'
p1305
S'Jeff'
p1306
tp1307
I412
s(S'Regner'
p1308
S'Mike'
p1309
tp1310
I1153
s(S'Johnson'
p1311
S'Audie'
p1312
tp1313
I1544
s(S'Abery'
p1314
S'Warren'
p1315
tp1316
I824
s(S'Hall'
p1317
S'Tyler'
p1318
tp1319
I920
s(S'Thompson'
p1320
S'Michael'
p1321
tp1322
I1237
s(S'Biancalana'
p1323
S'Roy'
p1324
tp1325
I8
s(S'Harrington'
p1326
S'Scott'
p1327
tp1328
I722
s(S'Payne'
p1329
S'Brian'
p1330
tp1331
I875
s(S'Kalinowski'
p1332
S'Tom'
p1333
tp1334
I804
s(S'Smail'
p1335
S'David'
p1336
tp1337
I346
s(S'Miyazato'
p1338
S'Yusaku'
p1339
tp1340
I434
s(S'Lepp'
p1341
S'James'
p1342
tp1343
I509
s(S'Jeong'
p1344
S'Yeon Jin'
p1345
tp1346
I1481
s(S'Franco'
p1347
S'Carlos'
p1348
tp1349
I294
s(S'Glasson'
p1350
S'Bill'
p1351
tp1352
I57
s(S'Bilodeau'
p1353
S'Kyle'
p1354
tp1355
I1699
s(S'Tringale'
p1356
S'Cameron'
p1357
tp1358
I1401
s(S'Hughes'
p1359
S'Mackenzie'
p1360
tp1361
I1595
s(S'Hamilton'
p1362
S'Blair'
p1363
tp1364
I1902
s(S'Schnider'
p1365
S'David'
p1366
tp1367
I729
s(S'Murphy'
p1368
S'Trevor'
p1369
tp1370
I1240
s(S'Mullinax'
p1371
S'Trey'
p1372
tp1373
I1867
s(S'Armour III'
p1374
S'Tommy'
p1375
tp1376
I3
s(S'Sutcliffe'
p1377
S'Nevin'
p1378
tp1379
I401
s(S'Presnell'
p1380
S'Alistair'
p1381
tp1382
I1363
s(S'Watt'
p1383
S'Brady'
p1384
tp1385
I1756
s(S'Smith'
p1386
S'Jordan L'
p1387
tp1388
I2097
s(S'Blixt'
p1389
S'Jonas'
p1390
tp1391
I1557
s(S'Willmann'
p1392
S'Kyle'
p1393
tp1394
I902
s(S'Renner'
p1395
S'Jim'
p1396
tp1397
I1225
s(S'Stadler'
p1398
S'Kevin'
p1399
tp1400
I505
s(S'Barker'
p1401
S'Mickey'
p1402
tp1403
I905
s(S'Wonnell'
p1404
S'Clayton'
p1405
tp1406
I1685
s(S'Rahm'
p1407
S'Jon'
p1408
tp1409
I1869
s(S'Green'
p1410
S'Ken'
p1411
tp1412
I59
s(S'Davies'
p1413
S'Rhys'
p1414
tp1415
I1384
s(S'Swanson'
p1416
S'Tyler'
p1417
tp1418
I555
s(S'Berger'
p1419
S'Daniel'
p1420
tp1421
I1853
s(S'Behr'
p1422
S'Stephen'
p1423
tp1424
I968
s(S'Rody'
p1425
S'Tyler'
p1426
tp1427
I1627
s(S'Reynolds'
p1428
S'Greg'
p1429
tp1430
I514
s(S'Lowry'
p1431
S'Shane'
p1432
tp1433
I1334
s(S'Leon'
p1434
S'Hugo'
p1435
tp1436
I1324
s(S'Kai'
p1437
S'Shintaro'
p1438
tp1439
I1281
s(S'Hansen'
p1440
S'Soren'
p1441
tp1442
I1194
s(S'Molder'
p1443
S'Bryce'
p1444
tp1445
I433
s(S'Hazen'
p1446
S'James'
p1447
tp1448
I1619
s(S'Hoey'
p1449
S'Michael'
p1450
tp1451
I1545
s(S'Kim'
p1452
S'Whee'
p1453
tp1454
I1848
s(S'Woodland'
p1455
S'Gary'
p1456
tp1457
I1315
s(S'Stankowski'
p1458
S'Paul'
p1459
tp1460
I231
s(S'Clampett'
p1461
S'Bobby'
p1462
tp1463
I927
s(S"O'Mahony"
p1464
S'Greg'
p1465
tp1466
I1499
s(S'Lunde'
p1467
S'Bill'
p1468
tp1469
I1105
s(S'Fisher Jr'
p1470
S'Trevor'
p1471
tp1472
I1360
s(S'Zaback'
p1473
S'Zach'
p1474
tp1475
I2062
s(S'Marquez'
p1476
S'Braxton'
p1477
tp1478
I1414
s(S'Thompson'
p1479
S'Curtis'
p1480
tp1481
I1798
s(S'Beard'
p1482
S'Michael'
p1483
tp1484
I659
s(S'Hend'
p1485
S'Scott'
p1486
tp1487
I662
s(S'Cooper'
p1488
S'Carl'
p1489
tp1490
I1632
s(S'Bova'
p1491
S'Matt'
p1492
tp1493
I1686
s(S'India'
p1494
S'Vince'
p1495
tp1496
I1933
s(S'Montgomerie'
p1497
S'Colin'
p1498
tp1499
I238
s(S'Dugas'
p1500
S'Eric'
p1501
tp1502
I1577
s(S'Jertson'
p1503
S'Marty'
p1504
tp1505
I1368
s(S'Fichardt'
p1506
S'Darren'
p1507
tp1508
I636
s(S'Waite'
p1509
S'Grant'
p1510
tp1511
I151
s(S'Thelen'
p1512
S'Tim'
p1513
tp1514
I581
s(S'Graham'
p1515
S'Austin'
p1516
tp1517
I1605
s(S'Hicks'
p1518
S'Justin*'
p1519
tp1520
I1456
s(S'Johnston'
p1521
S'Andrew'
p1522
tp1523
I1921
s(S'McDowell'
p1524
S'Graeme'
p1525
tp1526
I485
s(S'Adcock'
p1527
S'Mitch'
p1528
tp1529
I1181
s(S'Lee'
p1530
S'Matt'
p1531
tp1532
I2049
s(S'Penner'
p1533
S'Kevin'
p1534
tp1535
I1767
s(S'Downes'
p1536
S'Chris'
p1537
tp1538
I448
s(S'Morin'
p1539
S'Alan'
p1540
tp1541
I410
s(S'Williamson'
p1542
S'Jay'
p1543
tp1544
I252
s(S'Phengsavath'
p1545
S'Joe'
p1546
tp1547
I517
s(S'Lebeck'
p1548
S'David'
p1549
tp1550
I623
s(S'Bennett'
p1551
S'Mike'
p1552
tp1553
I814
s(S'Staten'
p1554
S'B.J.'
p1555
tp1556
I1000
s(S'Wilson'
p1557
S'Oliver'
p1558
tp1559
I1209
s(S'Points'
p1560
S'D.A.'
p1561
tp1562
I692
s(S'de Jonge'
p1563
S'Brendon'
p1564
tp1565
I1106
s(S'Butcher'
p1566
S'Rodney'
p1567
tp1568
I1271
s(S'Bermel'
p1569
S'John'
p1570
tp1571
I189
s(S'Hjertstedt'
p1572
S'Gabriel'
p1573
tp1574
I363
s(S'Toms'
p1575
S'David'
p1576
tp1577
I142
s(S'Gregory'
p1578
S'Greg'
p1579
tp1580
I2093
s(S'Teater'
p1581
S'Josh'
p1582
tp1583
I878
s(S'Block'
p1584
S'Michael'
p1585
tp1586
I1634
s(S'Reed'
p1587
S'Stephen'
p1588
tp1589
I1025
s(S'Oosthuizen'
p1590
S'Louis'
p1591
tp1592
I1005
s(S'Liu'
p1593
S'Yan Wei'
p1594
tp1595
I1747
s(S'Johnson'
p1596
S'Dustin'
p1597
tp1598
I1163
s(S'Zhang'
p1599
S'Lian-Wei'
p1600
tp1601
I649
s(S'Fujikawa'
p1602
S'Tadd'
p1603
tp1604
I1140
s(S'Tian Liang'
p1605
S'Guan'
p1606
tp1607
I1675
s(S'Kokrak'
p1608
S'Jason'
p1609
tp1610
I1473
s(S'Hwang'
p1611
S'Jay'
p1612
tp1613
I1603
s(S'Renner'
p1614
S'Jack'
p1615
tp1616
I117
s(S'Giles'
p1617
S'Matthew'
p1618
tp1619
I1562
s(S'Weaver'
p1620
S'Drew'
p1621
tp1622
I1224
s(S'Karlsson'
p1623
S'Robert'
p1624
tp1625
I305
s(S'Sauers'
p1626
S'Gene'
p1627
tp1628
I125
s(S'Schmuhl'
p1629
S'Jason'
p1630
tp1631
I1328
s(S'Payne'
p1632
S'Jordan'
p1633
tp1634
I1445
s(S'Choi'
p1635
S'Albin'
p1636
tp1637
I1520
s(S'Flanagan'
p1638
S'Nick'
p1639
tp1640
I723
s(S'Strickler'
p1641
S'Will'
p1642
tp1643
I1495
s(S'Senior'
p1644
S'Peter'
p1645
tp1646
I580
s(S'Miller'
p1647
S'Scott'
p1648
tp1649
I1018
s(S'Okamura'
p1650
S'Garrett'
p1651
tp1652
I1876
s(S'Durant'
p1653
S'Joe'
p1654
tp1655
I196
s(S'Ruiz'
p1656
S'Mike'
p1657
tp1658
I690
s(S'Hadwin'
p1659
S'Adam'
p1660
tp1661
I1400
s(S'Wax'
p1662
S'Danny'
p1663
tp1664
I1402
s(S'Muttitt'
p1665
S'David'
p1666
tp1667
I1943
s(S'Green'
p1668
S'Garland'
p1669
tp1670
I1898
s(S'Daly'
p1671
S'John'
p1672
tp1673
I34
s(S'Ruddo'
p1674
S'Tim'
p1675
tp1676
I1055
s(S'Kamte'
p1677
S'James'
p1678
tp1679
I1296
s(S'Soli'
p1680
S'Mick'
p1681
tp1682
I933
s(S'Schouller, Jr.'
p1683
S'Jim'
p1684
tp1685
I711
s(S'Branham'
p1686
S'David'
p1687
tp1688
I752
s(S'Dodd'
p1689
S'Stephen'
p1690
tp1691
I806
s(S'Hensby'
p1692
S'Mark'
p1693
tp1694
I328
s(S'Peck'
p1695
S'Jeff'
p1696
tp1697
I1373
s(S'Pride'
p1698
S'Dicky'
p1699
tp1700
I249
s(S'North'
p1701
S'Andy'
p1702
tp1703
I931
s(S'Griffin'
p1704
S'Lanto'
p1705
tp1706
I1509
s(S'Simpson'
p1707
S'Webb'
p1708
tp1709
I1040
s(S'Kiyota'
p1710
S'Taichiro'
p1711
tp1712
I385
s(S'Homa'
p1713
S'Max'
p1714
tp1715
I1759
s(S'Bryant'
p1716
S'Brad'
p1717
tp1718
I19
s(S'Guetz'
p1719
S'Brian'
p1720
tp1721
I972
s(S'Schlottman'
p1722
S'Ben'
p1723
tp1724
I1901
s(S'Foster'
p1725
S'Mark'
p1726
tp1727
I391
s(S'Gates'
p1728
S'Bobby'
p1729
tp1730
I1321
s(S'Lile'
p1731
S'Craig'
p1732
tp1733
I1098
s(S'Goldberg'
p1734
S'Aaron'
p1735
tp1736
I1395
s(S'Miller'
p1737
S'Mike'
p1738
tp1739
I1777
s(S'Prince'
p1740
S'Patrick'
p1741
tp1742
I619
s(S'Thompson'
p1743
S'Nicholas'
p1744
tp1745
I1034
s(S'Sullivan'
p1746
S'Chip'
p1747
tp1748
I137
s(S'MacKenzie'
p1749
S'Will'
p1750
tp1751
I860
s(S'Harmon'
p1752
S'Mike'
p1753
tp1754
I571
s(S'Bensel'
p1755
S'Frank'
p1756
tp1757
I979
s(S'Sterne'
p1758
S'Richard'
p1759
tp1760
I1113
s(S'Arp'
p1761
S'Riley'
p1762
tp1763
I2021
s(S'Prowse'
p1764
S'Dean'
p1765
tp1766
I593
s(S'Kennedy'
p1767
S'Ryan'
p1768
tp1769
I1874
s(S'Tyler'
p1770
S'Nathan'
p1771
tp1772
I1389
s(S'Stricker'
p1773
S'Steve'
p1774
tp1775
I188
s(S'Jobe'
p1776
S'Brandt'
p1777
tp1778
I191
s(S'Miyase'
p1779
S'Hirofumi'
p1780
tp1781
I616
s(S'Ross'
p1782
S'Christopher'
p1783
tp1784
I1437
s(S'Floyd'
p1785
S'Robert'
p1786
tp1787
I1092
s(S'Fowler'
p1788
S'Rickie'
p1789
tp1790
I1236
s(S'Brigman'
p1791
S'D.J.'
p1792
tp1793
I679
s(S'Freeman'
p1794
S'Cody'
p1795
tp1796
I1010
s(S'Mize'
p1797
S'Larry'
p1798
tp1799
I95
s(S'Paolucci'
p1800
S'Anthony'
p1801
tp1802
I1503
s(S'Peterson'
p1803
S'Matt'
p1804
tp1805
I184
s(S'Grillo'
p1806
S'Emiliano'
p1807
tp1808
I1815
s(S'Summerhays'
p1809
S'Daniel'
p1810
tp1811
I1457
s(S'Bertsch'
p1812
S'Shane'
p1813
tp1814
I945
s(S'Cabrera'
p1815
S'\xc1ngel'
p1816
tp1817
I359
s(S'Doyle'
p1818
S'Matt'
p1819
tp1820
I828
s(S'Speight'
p1821
S'Josh'
p1822
tp1823
I1985
s(S'Schenk'
p1824
S'Adam'
p1825
tp1826
I2109
s(S'Moore'
p1827
S'Patrick'
p1828
tp1829
I352
s(S'Jaidee'
p1830
S'Thongchai'
p1831
tp1832
I454
s(S'Klein'
p1833
S'Jeff'
p1834
tp1835
I182
s(S'Hallberg'
p1836
S'Gary'
p1837
tp1838
I61
s(S'Tambellini'
p1839
S'Roger'
p1840
tp1841
I665
s(S'Haas'
p1842
S'Hunter'
p1843
tp1844
I858
s(S'Francis'
p1845
S'Philip'
p1846
tp1847
I1138
s(S'Stockton'
p1848
S'Brady'
p1849
tp1850
I1036
s(S'Heffernan'
p1851
S'Wesley'
p1852
tp1853
I988
s(S'Wolf'
p1854
S'Erik'
p1855
tp1856
I1204
s(S'Connell'
p1857
S'Michael'
p1858
tp1859
I981
s(S'Singh'
p1860
S'Vijay'
p1861
tp1862
I190
s(S'Fraser'
p1863
S'Marcus'
p1864
tp1865
I1359
s(S'Nelson'
p1866
S'Kirk'
p1867
tp1868
I222
s(S'Frost'
p1869
S'David'
p1870
tp1871
I52
s(S'Neil'
p1872
S'Bradley'
p1873
tp1874
I1866
s(S'Tataurangi'
p1875
S'Phil'
p1876
tp1877
I284
s(S'Langham'
p1878
S'Franklin'
p1879
tp1880
I242
s(S'Park'
p1881
S'Sung Joon'
p1882
tp1883
I1826
s(S'Pearson'
p1884
S'Michael'
p1885
tp1886
I450
s(S'Carpenter'
p1887
S'Alex'
p1888
tp1889
I1504
s(S'Giacomazzi'
p1890
S'Dino'
p1891
tp1892
I2110
s(S'Claxton'
p1893
S'Will'
p1894
tp1895
I1465
s(S'Faldo'
p1896
S'Nick'
p1897
tp1898
I44
s(S'Weekley'
p1899
S'Boo'
p1900
tp1901
I1120
s(S'Hall'
p1902
S'Gavin'
p1903
tp1904
I1440
s(S'Lederer'
p1905
S'Brett'
p1906
tp1907
I1394
s(S'Randolph'
p1908
S'Sam'
p1909
tp1910
I115
s(S'Flores'
p1911
S'Erik'
p1912
tp1913
I1531
s(S'Robbins'
p1914
S'Kyle'
p1915
tp1916
I1979
s(S'McKenzie'
p1917
S'David'
p1918
tp1919
I956
s(S'Nesbitt'
p1920
S'Drew'
p1921
tp1922
I2056
s(S'Stanley'
p1923
S'Kyle'
p1924
tp1925
I1152
s(S'Kohn'
p1926
S'Matthew'
p1927
tp1928
I1262
s(S'Morland IV'
p1929
S'David'
p1930
tp1931
I289
s(S'Capone'
p1932
S'Mike'
p1933
tp1934
I480
s(S'Adamonis'
p1935
S'Brad'
p1936
tp1937
I431
s(S'Sloan'
p1938
S'Roger'
p1939
tp1940
I1492
s(S'Otto'
p1941
S'Hennie'
p1942
tp1943
I395
s(S'Botes'
p1944
S'Desvonde'
p1945
tp1946
I637
s(S'Sabbatini'
p1947
S'Rory'
p1948
tp1949
I428
s(S'Lee'
p1950
S'D.H.'
p1951
tp1952
I1643
s(S'Lamely'
p1953
S'Derek'
p1954
tp1955
I751
s(S'Roach'
p1956
S'Wes'
p1957
tp1958
I1744
s(S'Williamson'
p1959
S'Peter'
p1960
tp1961
I1651
s(S'LaBarge'
p1962
S'Parker'
p1963
tp1964
I1493
s(S'Obremski'
p1965
S'Dan'
p1966
tp1967
I1701
s(S'Garza'
p1968
S'Dustin'
p1969
tp1970
I1428
s(S'Kamiyama'
p1971
S'Takashi'
p1972
tp1973
I839
s(S'McCallister'
p1974
S'Blaine'
p1975
tp1976
I92
s(S'Russell'
p1977
S'Jordan'
p1978
tp1979
I2027
s(S'Hutcherson'
p1980
S'Bobby'
p1981
tp1982
I1424
s(S'Kim'
p1983
S'K.T.'
p1984
tp1985
I1464
s(S'Dellostritto'
p1986
S'Ron'
p1987
tp1988
I805
s(S'Buckle'
p1989
S'Andrew'
p1990
tp1991
I1115
s(S'Bates'
p1992
S'Pat'
p1993
tp1994
I218
s(S'Frank'
p1995
S'Garrett'
p1996
tp1997
I1455
s(S'Parun'
p1998
S'Tim'
p1999
tp2000
I728
s(S'Martens'
p2001
S'Gibby'
p2002
tp2003
I511
s(S'Hull'
p2004
S'Brian'
p2005
tp2006
I344
s(S'Lee'
p2007
S'Lucas'
p2008
tp2009
I1325
s(S'Perez'
p2010
S'Pat'
p2011
tp2012
I446
s(S'Cantlay'
p2013
S'Patrick'
p2014
tp2015
I1517
s(S'Conley'
p2016
S'Tim'
p2017
tp2018
I247
s(S'Strange'
p2019
S'Curtis'
p2020
tp2021
I136
s(S'Benepe'
p2022
S'Jim'
p2023
tp2024
I7
s(S'Anderson'
p2025
S'Billy'
p2026
tp2027
I1279
s(S'Kim'
p2028
S'Kenny'
p2029
tp2030
I1229
s(S'Schneiter'
p2031
S'Steve'
p2032
tp2033
I939
s(S'Brown'
p2034
S'Scott'
p2035
tp2036
I1565
s(S'Morse'
p2037
S'Andy'
p2038
tp2039
I586
s(S'Peters'
p2040
S'Austin'
p2041
tp2042
I1905
s(S'Lashley'
p2043
S'Nate'
p2044
tp2045
I1033
s(S'Oh'
p2046
g1366
tp2047
I717
s(S'Rivera'
p2048
S'Miguel'
p2049
tp2050
I749
s(S'Taniguchi'
p2051
S'Toru'
p2052
tp2053
I825
s(S'Cannon'
p2054
S'Will'
p2055
tp2056
I2069
s(S'Guillaume'
p2057
S'Vaita'
p2058
tp2059
I1626
s(S'Crane'
p2060
S'Ben'
p2061
tp2062
I425
s(S'Theegala'
p2063
S'Sahith'
p2064
tp2065
I2011
s(S'Stiles'
p2066
S'Darron'
p2067
tp2068
I388
s(S'Panek'
p2069
S'John'
p2070
tp2071
I1063
s(S'Merrick'
p2072
S'John'
p2073
tp2074
I1132
s(S'Killeen'
p2075
S'J.J.'
p2076
tp2077
I1572
s(S'Todd'
p2078
S'Brendon'
p2079
tp2080
I1313
s(S'Walker'
p2081
S'Jimmy'
p2082
tp2083
I488
s(S'Amershadian'
p2084
S'Jeff'
p2085
tp2086
I960
s(S'Karmis'
p2087
S'Peter'
p2088
tp2089
I1210
s(S'Villarreal'
p2090
S'Armando'
p2091
tp2092
I1757
s(S'Bolli'
p2093
S'Justin'
p2094
tp2095
I854
s(S'Tate'
p2096
S'Steven'
p2097
tp2098
I725
s(S'Starkjohann'
p2099
S'Chris'
p2100
tp2101
I780
s(S'Burke'
p2102
S'James'
p2103
tp2104
I1069
s(S'Herman'
p2105
S'Jim'
p2106
tp2107
I1476
s(S'Pellegrine'
p2108
S'Steve'
p2109
tp2110
I1148
s(S'Flesch'
p2111
S'Steve'
p2112
tp2113
I213
s(S'Mathias'
p2114
S'Jonathan'
p2115
tp2116
I890
s(S'Donaldson'
p2117
S'Jamie'
p2118
tp2119
I1550
s(S'Dyson'
p2120
S'Simon'
p2121
tp2122
I991
s(S'Whitekiller'
p2123
S'Trent'
p2124
tp2125
I1669
s(S'Hull'
p2126
S'Jeff'
p2127
tp2128
I1188
s(S'Wright'
p2129
S'Zach'
p2130
tp2131
I1977
s(S'Sullivan'
p2132
g975
tp2133
I138
s(S'Fox'
p2134
S'Benjamin'
p2135
tp2136
I1246
s(S'Levy'
p2137
S'Alexander'
p2138
tp2139
I1739
s(S'Anderson'
p2140
S'Jeremy'
p2141
tp2142
I471
s(S'Gomez'
p2143
S'Fabian'
p2144
tp2145
I1466
s(S'Maguire'
p2146
S'Jack'
p2147
tp2148
I1960
s(S'Grant'
p2149
S'Brent'
p2150
tp2151
I2007
s(S'Gaffney'
p2152
S'Brian'
p2153
tp2154
I1804
s(S'Evans'
p2155
S'Chris'
p2156
tp2157
I1990
s(S'Lyle'
p2158
S'Jarrod'
p2159
tp2160
I1125
s(S'Horschel'
p2161
S'Billy'
p2162
tp2163
I1305
s(S'Fieger'
p2164
S'Gene'
p2165
tp2166
I791
s(S'Labritz'
p2167
S'Rob'
p2168
tp2169
I1909
s(S'Saka'
p2170
S'David'
p2171
tp2172
I1502
s(S'Avret'
p2173
S'Clint'
p2174
tp2175
I1044
s(S'Fischer'
p2176
S'Zack'
p2177
tp2178
I1689
s(S'McLean'
p2179
S'James'
p2180
tp2181
I468
s(S'Lee'
p2182
S'Richard'
p2183
tp2184
I1169
s(S'Hopper'
p2185
S'Michael'
p2186
tp2187
I1877
s(S'Frittelli'
p2188
S'Dylan'
p2189
tp2190
I2096
s(S'St. Pierre'
p2191
S'Jim'
p2192
tp2193
I918
s(S'Lindheim'
p2194
S'Nicholas'
p2195
tp2196
I1995
s(S'Scott'
p2197
S'Kasey'
p2198
tp2199
I552
s(S'Brigman'
p2200
S'Jaxon'
p2201
tp2202
I173
s(S'Couch'
p2203
S'Chris'
p2204
tp2205
I613
s(S'Bartlett'
p2206
S'Jonathan'
p2207
tp2208
I1439
s(S'Schniederjans'
p2209
S'Ollie'
p2210
tp2211
I1864
s(S'Gallagher, Jr.'
p2212
S'Jim'
p2213
tp2214
I54
s(S'McGovern'
p2215
S'Jim'
p2216
tp2217
I169
s(S'Willman'
p2218
S'Ben'
p2219
tp2220
I1806
s(S'DeLaet'
p2221
S'Graham'
p2222
tp2223
I1129
s(S'Drewitt'
p2224
S'Brett'
p2225
tp2226
I1994
s(S'Iwata'
p2227
S'Hiroshi'
p2228
tp2229
I1298
s(S'Homan'
p2230
S'Wes'
p2231
tp2232
I1827
s(S'Lopez'
p2233
S'Lance'
p2234
tp2235
I1888
s(S'Rubinson'
p2236
S'Adam'
p2237
tp2238
I560
s(S'Moss'
p2239
S'Perry'
p2240
tp2241
I1351
s(S'Snedeker'
p2242
S'Haymes'
p2243
tp2244
I1346
s(S'Stockton, Jr.'
p2245
S'Dave'
p2246
tp2247
I205
s(S'Crain'
p2248
S'Andy'
p2249
tp2250
I710
s(S'Brodell'
p2251
S'Brian'
p2252
tp2253
I1342
s(S'Ormand'
p2254
S'Robby'
p2255
tp2256
I1913
s(S'Dalke'
p2257
S'Brad'
p2258
tp2259
I1972
s(S'Tewell'
p2260
S'Doug'
p2261
tp2262
I781
s(S'Aber'
p2263
S'John'
p2264
tp2265
I626
s(S'Silverman'
p2266
S'Ben'
p2267
tp2268
I1758
s(S'Worley, Jr.'
p2269
S'Carl'
p2270
tp2271
I487
s(S'Curran'
p2272
S'Jon'
p2273
tp2274
I1666
s(S'Schachner'
p2275
S'Michael'
p2276
tp2277
I1065
s(S'Madigan'
p2278
S'Timothy'
p2279
tp2280
I1780
s(S'Garland'
p2281
S'Rob'
p2282
tp2283
I1335
s(S'Kalinowski'
p2284
S'Bobby'
p2285
tp2286
I651
s(S'Risdon'
p2287
S'Dustin'
p2288
tp2289
I1207
s(S'Donald'
p2290
S'Luke'
p2291
tp2292
I437
s(S'LeBrun'
p2293
S'Steve'
p2294
tp2295
I884
s(S'Thompson'
p2296
S'Robert'
p2297
tp2298
I140
s(S'Gormley'
p2299
S'Jim'
p2300
tp2301
I1007
s(S'Fly'
p2302
S'Jonathan'
p2303
tp2304
I1613
s(S'Grob'
p2305
S'Mike'
p2306
tp2307
I224
s(S'Stroud'
p2308
S'Chris'
p2309
tp2310
I762
s(S'LoCicero'
p2311
S'Paul'
p2312
tp2313
I541
s(S'Kennerly'
p2314
S'Billy'
p2315
tp2316
I1523
s(S'Wall'
p2317
S'JJ'
p2318
tp2319
I753
s(S'Murray'
p2320
S'Grayson'
p2321
tp2322
I1993
s(S'McKay'
p2323
S'Billy'
p2324
tp2325
I915
s(S'Broadhurst'
p2326
S'Paul'
p2327
tp2328
I938
s(S'Springer'
p2329
S'Mike'
p2330
tp2331
I131
s(S'Fischer'
p2332
S'Todd'
p2333
tp2334
I317
s(S'Morgan'
p2335
g155
tp2336
I516
s(S'Weir'
p2337
S'Ben'
p2338
tp2339
I798
s(S'Gielow'
p2340
S'Brendan'
p2341
tp2342
I1441
s(S'Sim'
p2343
S'Michael'
p2344
tp2345
I874
s(S'Pollack'
p2346
S'Joe'
p2347
tp2348
I911
s(S'Isenhour'
p2349
S'Tripp'
p2350
tp2351
I605
s(S'Short'
p2352
S'Adam'
p2353
tp2354
I856
s(S'McCarty'
p2355
S'Sean'
p2356
tp2357
I250
s(S'Hanson'
p2358
S'Peter'
p2359
tp2360
I1191
s(S'Forsyth'
p2361
S'Alastair'
p2362
tp2363
I441
s(S'Meth'
p2364
S'Byron'
p2365
tp2366
I1934
s(S'Lu'
p2367
S'Shawn'
p2368
tp2369
I1969
s(S'Catalioto'
p2370
S'Martin'
p2371
tp2372
I1336
s(S'Ogilvy'
p2373
S'Geoff'
p2374
tp2375
I383
s(S'Hoffhine'
p2376
S'Ben'
p2377
tp2378
I537
s(S'Jenkins'
p2379
S'Carter'
p2380
tp2381
I2045
s(S'Lahiri'
p2382
S'Anirban'
p2383
tp2384
I1728
s(S'Rende'
p2385
S'Derek'
p2386
tp2387
I2067
s(S'Cairns'
p2388
g2153
tp2389
I1803
s(S'Stuard'
p2390
S'Brian'
p2391
tp2392
I1386
s(S'Kim'
p2393
S'Jae Yong'
p2394
tp2395
I2057
s(S'Echavarria'
p2396
S'Andres'
p2397
tp2398
I1834
s(S'Trahan'
p2399
S'D.J.'
p2400
tp2401
I432
s(S'Janewattananond'
p2402
S'Jazz'
p2403
tp2404
I2024
s(S'Mahoney'
p2405
S'Korey'
p2406
tp2407
I1066
s(S'Schleicher'
p2408
S'Troy'
p2409
tp2410
I1009
s(S'Barber'
p2411
S'Aaron'
p2412
tp2413
I373
s(S'Hansen'
p2414
S'Matt'
p2415
tp2416
I1023
s(S'Parra'
p2417
S'Chris'
p2418
tp2419
I994
s(S'Deane'
p2420
S'Stuart'
p2421
tp2422
I992
s(S'Traub'
p2423
S'John'
p2424
tp2425
I143
s(S'Lee'
p2426
S'Steve'
p2427
tp2428
I1514
s(S'Sorenstam'
p2429
S'Annika'
p2430
tp2431
I528
s(S'Davidson'
p2432
S'Matt'
p2433
tp2434
I888
s(S'Ching'
p2435
S'Alex'
p2436
tp2437
I1228
s(S'Wheeldon'
p2438
S'Riley'
p2439
tp2440
I1671
s(S'Blair'
p2441
S'Zac'
p2442
tp2443
I1855
s(S'Schmitt'
p2444
S'Phil'
p2445
tp2446
I847
s(S'Every'
p2447
S'Matt'
p2448
tp2449
I1028
s(S'Henke'
p2450
S'Nolan'
p2451
tp2452
I67
s(S'Ogilvie'
p2453
S'Joe'
p2454
tp2455
I652
s(S'Fryatt'
p2456
S'Edward'
p2457
tp2458
I310
s(S'Lancaster'
p2459
S'Neal'
p2460
tp2461
I176
s(S'Damron'
p2462
S'Robert'
p2463
tp2464
I303
s(S'MacKellar'
p2465
S'Bryant'
p2466
tp2467
I668
s(S'Chopra'
p2468
S'Daniel'
p2469
tp2470
I639
s(S'Cleland'
p2471
S'Rocky'
p2472
tp2473
I1444
s(S'Olazabal'
p2474
S'Jose Maria'
p2475
tp2476
I179
s(S'Pepperell'
p2477
S'Eddie'
p2478
tp2479
I1831
s(S'Hietala'
p2480
S'Ryan'
p2481
tp2482
I980
s(S'Piercy'
p2483
S'Scott'
p2484
tp2485
I491
s(S'Huber'
p2486
S'Keith'
p2487
tp2488
I855
s(S'Johnson'
p2489
S'Kevin'
p2490
tp2491
I786
s(S'Garrido'
p2492
S'Ignacio'
p2493
tp2494
I332
s(S'Skinns'
p2495
S'David'
p2496
tp2497
I1640
s(S'Castillo, Jr.'
p2498
S'Ron'
p2499
tp2500
I663
s(S'Suppa'
p2501
S'Kyle'
p2502
tp2503
I1875
s(S'Haas'
p2504
S'Jerry'
p2505
tp2506
I570
s(S'Hendrix'
p2507
S'Matt'
p2508
tp2509
I741
s(S'Ten Broeck'
p2510
S'Lance'
p2511
tp2512
I1179
s(S'Takeya'
p2513
S'Yoshitaka'
p2514
tp2515
I1726
s(S'Marshall'
p2516
S'Matt'
p2517
tp2518
I1490
s(S'G\xf3mez'
p2519
S'Fabi\xe1n'
p2520
tp2521
I1466
s(S'DeFrancesco'
p2522
S'Wayne'
p2523
tp2524
I800
s(S'Hattori'
p2525
S'Richard'
p2526
tp2527
I1683
s(S'Kestner'
p2528
S'Darrell'
p2529
tp2530
I574
s(S'Putnam'
p2531
S'Andrew'
p2532
tp2533
I1736
s(S'Lamontagne'
p2534
S'Steve'
p2535
tp2536
I1267
s(S'Rai'
p2537
S'Aaron'
p2538
tp2539
I2081
s(S'Caron'
p2540
S'Jason'
p2541
tp2542
I429
s(S'Kirk'
p2543
g358
tp2544
I1164
s(S'Ferrell'
p2545
S'Jess'
p2546
tp2547
I1620
s(S'Portie'
p2548
S'Ben'
p2549
tp2550
I872
s(S'Kelly'
p2551
S'Shawn'
p2552
tp2553
I232
s(S'Volk'
p2554
S'Dustin'
p2555
tp2556
I1751
s(S'Bates'
p2557
S'Ben'
p2558
tp2559
I1348
s(S'Dougherty'
p2560
S'Ed'
p2561
tp2562
I38
s(S'Lee'
p2563
S'Walker'
p2564
tp2565
I2092
s(S'Glover'
p2566
S'Lucas'
p2567
tp2568
I705
s(S'Golding'
p2569
S'Kevin'
p2570
tp2571
I1885
s(S'Cooke'
p2572
S'Alan'
p2573
tp2574
I2064
s(S'Flynn'
p2575
S'Michael'
p2576
tp2577
I377
s(S'Janneck'
p2578
S'Frederick'
p2579
tp2580
I1945
s(S'Tomasulo'
p2581
S'Peter'
p2582
tp2583
I894
s(S'Wise'
p2584
S'Paul'
p2585
tp2586
I1180
s(S'Baldwin'
p2587
S'Mark'
p2588
tp2589
I1813
s(S'DeForest'
p2590
S'Christopher'
p2591
tp2592
I1516
s(S'Turner'
p2593
S'Jerod'
p2594
tp2595
I1391
s(S'Nicklaus'
p2596
S'Jack'
p2597
tp2598
I97
s(S'Burns'
p2599
S'Bob'
p2600
tp2601
I200
s(S'Imahira'
p2602
S'Shugo'
p2603
tp2604
I2075
s(S'Hart'
p2605
S'Adam'
p2606
tp2607
I1915
s(S'Mickelson'
p2608
S'Phil'
p2609
tp2610
I94
s(S'Bauman'
p2611
S'Doug'
p2612
tp2613
I785
s(S'Olson'
p2614
S'Eddie'
p2615
tp2616
I1448
s(S'Tanner'
p2617
S'Todd'
p2618
tp2619
I846
s(S'DeChambeau'
p2620
S'Bryson'
p2621
tp2622
I1894
s(S'Molinari'
p2623
S'Edoardo'
p2624
tp2625
I983
s(S'Mattiace'
p2626
S'Len'
p2627
tp2628
I90
s(S'Smith'
p2629
S'Scott'
p2630
tp2631
I1526
s(S'Greyserman'
p2632
S'Max'
p2633
tp2634
I2088
s(S'Struver'
p2635
S'Sven'
p2636
tp2637
I632
s(S'Persons'
p2638
S'Josh'
p2639
tp2640
I1670
s(S'Barrett'
p2641
S'Andy'
p2642
tp2643
I755
s(S'van Tonder'
p2644
S'Daniel'
p2645
tp2646
I1833
s(S'Arendell'
p2647
S'Connor'
p2648
tp2649
I1676
s(S'Zackheim'
p2650
S'Eli'
p2651
tp2652
I743
s(S'Byrne'
p2653
S'David'
p2654
tp2655
I1599
s(S'Touma'
p2656
S'Ricky'
p2657
tp2658
I695
s(S'Love IV'
p2659
S'Davis'
p2660
tp2661
I1937
s(S'Baker'
p2662
S'Chris'
p2663
tp2664
I1919
s(S'Main'
p2665
S'Gregor'
p2666
tp2667
I1330
s(S'Gilchrest'
p2668
S'Matt'
p2669
tp2670
I1984
s(S'Schwamkrug'
p2671
S'Victor'
p2672
tp2673
I653
s(S'Yano'
p2674
S'Azuma'
p2675
tp2676
I975
s(S'Fukabori'
p2677
S'Keiichiro'
p2678
tp2679
I640
s(S'Van Aswegen'
p2680
S'Tyrone'
p2681
tp2682
I1719
s(S'Heintz'
p2683
S'Chris'
p2684
tp2685
I727
s(S'Meesawat'
p2686
S'Prom'
p2687
tp2688
I1109
s(S'Pinckney'
p2689
S'Scott'
p2690
tp2691
I1838
s(S'Sonoda'
p2692
S'Shunsuke'
p2693
tp2694
I1472
s(S'McDonald'
p2695
S'Bill'
p2696
tp2697
I1086
s(S'Sluman'
p2698
S'Jeff'
p2699
tp2700
I128
s(S'Wilson'
p2701
S'Dean*'
p2702
tp2703
I726
s(S'Pernice Jr.'
p2704
g457
tp2705
I109
s(S'Lee'
p2706
S'Ki Taek'
p2707
tp2708
I1773
s(S'Williams'
p2709
S'Ryan'
p2710
tp2711
I2055
s(S'Kohles'
p2712
S'Ben'
p2713
tp2714
I1624
s(S'Smith'
p2715
S'Cameron'
p2716
tp2717
I1840
s(S'Moore'
p2718
S'Ryan'
p2719
tp2720
I712
s(S'Blakefield'
p2721
S'Mark'
p2722
tp2723
I1730
s(S'Bjornstad'
p2724
S'Henrik'
p2725
tp2726
I974
s(S'Henry'
p2727
S'J.J.'
p2728
tp2729
I421
s(S'Cantwell, Jr.'
p2730
S'Tim'
p2731
tp2732
I986
s(S'Johnson'
p2733
S'Zach'
p2734
tp2735
I438
s(S'Dawson'
p2736
S'Marco'
p2737
tp2738
I164
s(S'Boisvert'
p2739
S'Robert'
p2740
tp2741
I967
s(S'Smith'
p2742
S'Brian'
p2743
tp2744
I285
s(S'Ellis'
p2745
S'Danny'
p2746
tp2747
I291
s(S'Schwarzrock'
p2748
S'Brent'
p2749
tp2750
I407
s(S'Haas'
p2751
S'Jay'
p2752
tp2753
I60
s(S'Steele'
p2754
S'Brendan'
p2755
tp2756
I1469
s(S'Weaver'
p2757
S'Michael'
p2758
tp2759
I1842
s(S'Russell'
p2760
S'Casey'
p2761
tp2762
I2033
s(S'Rose'
p2763
S'Todd'
p2764
tp2765
I469
s(S'Scott'
p2766
S'Richard'
p2767
tp2768
I556
s(S'Rinker'
p2769
S'Larry'
p2770
tp2771
I119
s(S'Crouch'
p2772
S'Timothy'
p2773
tp2774
I1873
s(S'Saxton'
p2775
S'Reinier'
p2776
tp2777
I1295
s(S'Pastore'
p2778
S'David'
p2779
tp2780
I1871
s(S'Putnam'
p2781
S'Michael'
p2782
tp2783
I921
s(S'Mallinger'
p2784
S'John'
p2785
tp2786
I1013
s(S'Curiel'
p2787
S'Scott'
p2788
tp2789
I766
s(S'Green'
p2790
S'Hunter'
p2791
tp2792
I1781
s(S'Rummings'
p2793
S'Mark'
p2794
tp2795
I1151
s(S'Smith'
p2796
S'Byron'
p2797
tp2798
I1807
s(S'Loftsson'
p2799
S'Olafur'
p2800
tp2801
I1528
s(S'Lenahan'
p2802
S'Ryan'
p2803
tp2804
I1793
s(S'Renfrew'
p2805
S'Cory'
p2806
tp2807
I1571
s(S'Deruntz'
p2808
S'Robert'
p2809
tp2810
I627
s(S'Miller'
p2811
S'Brian'
p2812
tp2813
I1134
s(S'Wilson'
p2814
S'Dean'
p2815
tp2816
I277
s(S'Hampshire'
p2817
S'Travis'
p2818
tp2819
I1478
s(S'Snedeker'
p2820
S'Brandt'
p2821
tp2822
I736
s(S'Sjoholm'
p2823
S'Joel'
p2824
tp2825
I1314
s(S'Kaufman'
p2826
S'Smylie'
p2827
tp2828
I1860
s(S'Wadkins'
p2829
S'Lanny'
p2830
tp2831
I782
s(S'Naegel'
p2832
S'Chris'
p2833
tp2834
I1693
s(S'Duval'
p2835
S'David'
p2836
tp2837
I243
s(S'Lickliter II'
p2838
S'Frank'
p2839
tp2840
I269
s(S'Davis'
p2841
S'Brian'
p2842
tp2843
I374
s(S'Ishikawa'
p2844
S'Ryo'
p2845
tp2846
I1312
s(S'Faidley'
p2847
S'John'
p2848
tp2849
I1799
s(S'Cobb'
p2850
S'Brandon'
p2851
tp2852
I489
s(S'Reilly'
p2853
S'Steven'
p2854
tp2855
I1062
s(S'Jordan'
p2856
S'Pete'
p2857
tp2858
I175
s(S'Newman'
p2859
S'Jack'
p2860
tp2861
I1332
s(S'Chappell'
p2862
S'Kevin'
p2863
tp2864
I1244
s(S'Ilonen'
p2865
S'Mikko'
p2866
tp2867
I1638
s(S'Gray'
p2868
S'Chris'
p2869
tp2870
I1047
s(S'Campbell'
p2871
S'Peter'
p2872
tp2873
I1232
s(S'Floyd'
p2874
S'Raymond'
p2875
tp2876
I1077
s(S'Summerhays'
p2877
S'Joseph'
p2878
tp2879
I1908
s(S'Oda'
p2880
S'John'
p2881
tp2882
I1602
s(S'Cochran'
p2883
S'Russ'
p2884
tp2885
I29
s(S"La'Cassie"
p2886
S'Bronson'
p2887
tp2888
I1127
s(S'Gouveia'
p2889
S'Ricardo'
p2890
tp2891
I1948
s(S'Kelly'
p2892
S'Troy'
p2893
tp2894
I1303
s(S'Wadsworth'
p2895
S'Fred'
p2896
tp2897
I150
s(S'Zanotti'
p2898
S'Fabrizio'
p2899
tp2900
I1724
s(S'Hemmerich'
p2901
S'Chris'
p2902
tp2903
I1782
s(S'Myers II'
p2904
S'Clay'
p2905
tp2906
I1886
s(S'Black'
p2907
S'Ronnie'
p2908
tp2909
I9
s(S'Levin'
p2910
S'Spencer'
p2911
tp2912
I882
s(S'Sutherland'
p2913
S'David'
p2914
tp2915
I193
s(S'Wilkinson'
p2916
S'Tim'
p2917
tp2918
I475
s(S'Moody'
p2919
S'Chris'
p2920
tp2921
I2101
s(S'Fraustro'
p2922
S'Oscar'
p2923
tp2924
I1812
s(S'Hiratsuka'
p2925
S'Tetsuji'
p2926
tp2927
I673
s(S'Chin'
p2928
S'David'
p2929
tp2930
I1091
s(S'Bland'
p2931
S'Adam'
p2932
tp2933
I1121
s(S'Miyamoto'
p2934
S'Katsumasa'
p2935
tp2936
I1354
s(S'Schoolcraft'
p2937
S'Michael'
p2938
tp2939
I1955
s(S'Colligan'
p2940
S'Dennis'
p2941
tp2942
I702
s(S'Bj\xf8rn'
p2943
S'Thomas'
p2944
tp2945
I266
s(S'Nelson'
p2946
S'John*'
p2947
tp2948
I835
s(S'Taylor'
p2949
S'Vaughn'
p2950
tp2951
I667
s(S'Molinari'
p2952
S'Francesco'
p2953
tp2954
I1283
s(S'Wooding'
p2955
S'Joshua'
p2956
tp2957
I1410
s(S'Crowder'
p2958
S'Rett'
p2959
tp2960
I264
s(S'Riegger'
p2961
S'John'
p2962
tp2963
I118
s(S'Laws'
p2964
S'Peter'
p2965
tp2966
I557
s(S'Hardy'
p2967
S'Nick'
p2968
tp2969
I2048
s(S'Heyn'
p2970
S'Scott'
p2971
tp2972
I706
s(S'Campbell'
p2973
S'Matthew'
p2974
tp2975
I2090
s(S'Kawamura'
p2976
S'Masahiro'
p2977
tp2978
I1731
s(S'Schwab'
p2979
S'Matthias'
p2980
tp2981
I2012
s(S'Ulrich'
p2982
S'Gus'
p2983
tp2984
I1538
s(S'Alexander'
p2985
S'Carl'
p2986
tp2987
I643
s(S'Nirat'
p2988
S'Chapchai'
p2989
tp2990
I1218
s(S'Habig'
p2991
S'Josh'
p2992
tp2993
I995
s(S'Gossett'
p2994
S'David'
p2995
tp2996
I419
s(S'Solomon'
p2997
S'David'
p2998
tp2999
I1965
s(S'Mitchell'
p3000
S'Keith'
p3001
tp3002
I2043
s(S'Newcomb'
p3003
S'Patrick'
p3004
tp3005
I1844
s(S'Ryder'
p3006
S'Sam'
p3007
tp3008
I2079
s(S'Goosen'
p3009
S'Retief'
p3010
tp3011
I321
s(S'McDougall'
p3012
S'Matt'
p3013
tp3014
I464
s(S'Couture'
p3015
S'Rob'
p3016
tp3017
I1625
s(S'Hudson'
p3018
S'Bobby'
p3019
tp3020
I1513
s(S'McLister'
p3021
S'Joey'
p3022
tp3023
I1588
s(S'Kullberg'
p3024
S'Mike'
p3025
tp3026
I486
s(S'Champ'
p3027
S'Cameron'
p3028
tp3029
I2091
s(S'Kribel'
p3030
S'Joel'
p3031
tp3032
I400
s(S"O'Neal"
p3033
S'Michael'
p3034
tp3035
I1399
s(S'Lonard'
p3036
S'Peter'
p3037
tp3038
I348
s(S'Kelly'
p3039
S'Dave'
p3040
tp3041
I1039
s(S'Lynch'
p3042
S'John'
p3043
tp3044
I527
s(S'Burgoon'
p3045
S'Bronson'
p3046
tp3047
I1048
s(S'Janzen'
p3048
S'Lee'
p3049
tp3050
I73
s(S'Lewallen'
p3051
S'Rick'
p3052
tp3053
I1536
s(S'Thompson'
p3054
S'Matt'
p3055
tp3056
I1846
s(S'Healey'
p3057
S'James'
p3058
tp3059
I482
s(S'Van Sickle'
p3060
S'Mike'
p3061
tp3062
I1339
s(S'Ramsay'
p3063
S'Richie'
p3064
tp3065
I1142
s(S'Larrazabal'
p3066
S'Alejandro'
p3067
tp3068
I417
s(S'Forsman'
p3069
S'Dan'
p3070
tp3071
I49
s(S'Saavedra'
p3072
S'Sebastian'
p3073
tp3074
I1725
s(S'Whittaker'
p3075
S'Ron'
p3076
tp3077
I949
s(S'Roesch'
p3078
S'David'
p3079
tp3080
I669
s(S'Grunewald'
p3081
S'Kelly'
p3082
tp3083
I797
s(S'Schnell'
p3084
S'Brady'
p3085
tp3086
I1160
s(S'Woltman'
p3087
S'Dan'
p3088
tp3089
I1251
s(S'Wilson'
p3090
S'Cameron'
p3091
tp3092
I1748
s(S'Hayes'
p3093
g218
tp3094
I66
s(S'Bateman'
p3095
S'Brian'
p3096
tp3097
I207
s(S'Williams'
p3098
S'Lee'
p3099
tp3100
I1135
s(S'Boner'
p3101
S'Brett'
p3102
tp3103
I857
s(S'Werenski'
p3104
S'Richy'
p3105
tp3106
I1872
s(S'Poston'
p3107
S'J.T.'
p3108
tp3109
I1999
s(S'Hurley III'
p3110
S'Billy'
p3111
tp3112
I1041
s(S'Shelton'
p3113
S'Robby'
p3114
tp3115
I1861
s(S"O'Hair"
p3116
S'Sean'
p3117
tp3118
I853
s(S'Synkelma'
p3119
S'Jay'
p3120
tp3121
I1084
s(S'Gribble'
p3122
S'Cody'
p3123
tp3124
I1696
s(S'Bryan'
p3125
S'Wesley'
p3126
tp3127
I1962
s(S'Oberholser'
p3128
S'Arron'
p3129
tp3130
I347
s(S'Lepak'
p3131
S'John'
p3132
tp3133
I1308
s(S'Rose'
p3134
S'Justin'
p3135
tp3136
I396
s(S'Marchand'
p3137
S'David'
p3138
tp3139
I203
s(S'Ayers'
p3140
S'Dirk'
p3141
tp3142
I647
s(S'Schauffele'
p3143
S'Xander'
p3144
tp3145
I1961
s(S'Morrison'
p3146
S'James'
p3147
tp3148
I1810
s(S'Jewell'
p3149
S'Vince'
p3150
tp3151
I962
s(S'Cable'
p3152
S'GW'
p3153
tp3154
I685
s(S'Carballo'
p3155
S'Miguel Angel'
p3156
tp3157
I1558
s(S'Dunlap'
p3158
S'Scott'
p3159
tp3160
I165
s(S'Schneider'
p3161
S'Cory'
p3162
tp3163
I1311
s(S'Mast'
p3164
S'Dick'
p3165
tp3166
I89
s(S'Gallo'
p3167
S'Kyle'
p3168
tp3169
I544
s(S'Garrity'
p3170
S'Ryan'
p3171
tp3172
I1175
s(S'Rummells'
p3173
S'Dave'
p3174
tp3175
I123
s(S'Bettencourt'
p3176
S'Matt'
p3177
tp3178
I1272
s(S'McNerney'
p3179
S'Mike'
p3180
tp3181
I538
s(S'Bryan'
p3182
S'George'
p3183
tp3184
I595
s(S'Kjeldsen'
p3185
S'S\xf8ren'
p3186
tp3187
I406
s(S'Markle'
p3188
S'David'
p3189
tp3190
I1582
s(S'Maguire'
p3191
S'MJ'
p3192
tp3193
I1881
s(S'Leonard'
p3194
S'Justin'
p3195
tp3196
I262
s(S'Sheehan'
p3197
S'Patrick'
p3198
tp3199
I397
s(S'Sainz Jr'
p3200
S'Carlos'
p3201
tp3202
I1824
s(S'McCumber'
p3203
S'Mark'
p3204
tp3205
I773
s(S'Randolph'
p3206
S'Jonathan'
p3207
tp3208
I1432
s(S'Horgan III'
p3209
S'P.H.'
p3210
tp3211
I770
s(S'Bungert'
p3212
S'John'
p3213
tp3214
I733
s(S'Fleetwood'
p3215
S'Tommy'
p3216
tp3217
I1727
s(S'Inman'
p3218
S'John'
p3219
tp3220
I1535
s(S'Furyk'
p3221
S'Jim'
p3222
tp3223
I258
s(S'Beljan'
p3224
S'Charlie'
p3225
tp3226
I1575
s(S'Mucha'
p3227
S'Bob'
p3228
tp3229
I597
s(S'Price'
p3230
S'Rick'
p3231
tp3232
I1269
s(S'Sutton'
p3233
S'Fred'
p3234
tp3235
I422
s(S'Lemke'
p3236
S'Niklas'
p3237
tp3238
I1118
s(S'Broberg'
p3239
S'Kristoffer'
p3240
tp3241
I1931
s(S'Schultz'
p3242
S'Jason'
p3243
tp3244
I961
s(S'Romero'
p3245
S'Eduardo'
p3246
tp3247
I122
s(S'Martin'
p3248
S'Jeff'
p3249
tp3250
I757
s(S'Hakes'
p3251
S'Steven'
p3252
tp3253
I891
s(S'Frost'
p3254
S'Charles'
p3255
tp3256
I1660
s(S'Noren'
p3257
S'Alexander'
p3258
tp3259
I1372
s(S'Beyer'
p3260
S'Cody'
p3261
tp3262
I524
s(S'Haas'
p3263
S'Bill'
p3264
tp3265
I461
s(S'Hebert'
p3266
S'Michael'
p3267
tp3268
I1769
s(S'Hnatiuk'
p3269
S'Glen'
p3270
tp3271
I235
s(S'Hutchins'
p3272
S'Jesse'
p3273
tp3274
I1723
s(S'Haley II'
p3275
S'Paul'
p3276
tp3277
I1601
s(S'Nazareth'
p3278
S'Savio'
p3279
tp3280
I1220
s(S'Peacock'
p3281
S'Oliver'
p3282
tp3283
I2030
s(S'Barron'
p3284
S'Derek'
p3285
tp3286
I2078
s(S'Westwood'
p3287
S'Lee'
p3288
tp3289
I326
s(S'Harvey'
p3290
S'Scott'
p3291
tp3292
I2084
s(S'Overton'
p3293
S'Jay'
p3294
tp3295
I578
s(S'Honeck'
p3296
S'Creighton'
p3297
tp3298
I1496
s(S'Goss'
p3299
S'Oliver'
p3300
tp3301
I1755
s(S'Norris'
p3302
S'Shaun'
p3303
tp3304
I2102
s(S'Scaletta'
p3305
S'Paul'
p3306
tp3307
I1636
s(S'Vargas'
p3308
S'James'
p3309
tp3310
I1712
s(S'Burns'
p3311
S'Sam'
p3312
tp3313
I1883
s(S'Banks'
p3314
S'Eric'
p3315
tp3316
I1705
s(S'Hoffman'
p3317
S'Charley'
p3318
tp3319
I288
s(S'Crim'
p3320
S'Rich'
p3321
tp3322
I545
s(S'Grisette'
p3323
S'Uly'
p3324
tp3325
I596
s(S'Rodriguez'
p3326
S'Jose de Jesus'
p3327
tp3328
I1477
s(S'Olson'
p3329
S'Blake'
p3330
tp3331
I1953
s(S'Thomson'
p3332
S'Oliver'
p3333
tp3334
I984
s(S'Matthews'
p3335
S'Andrew'
p3336
tp3337
I1110
s(S'Thompson'
p3338
S'Chris'
p3339
tp3340
I1708
s(S'Baryla'
p3341
S'Chris'
p3342
tp3343
I535
s(S'Boyd'
p3344
S'Bob'
p3345
tp3346
I765
s(S'Aiken'
p3347
S'Thomas'
p3348
tp3349
I1282
s(S'Taylor'
p3350
S'Ben'
p3351
tp3352
I1963
s(S'Driscoll'
p3353
S'James'
p3354
tp3355
I842
s(S'Coceres'
p3356
S'Jose'
p3357
tp3358
I306
s(S'Stanley'
p3359
S'Jon'
p3360
tp3361
I1540
s(S'Fox'
p3362
S'Steven'
p3363
tp3364
I1682
s(S'Kelly'
p3365
S'Sean'
p3366
tp3367
I2019
s(S'Baker'
p3368
S'Mike'
p3369
tp3370
I598
s(S'Godwin'
p3371
S'John'
p3372
tp3373
I260
s(S'Corcoran'
p3374
S'Rob'
p3375
tp3376
I1709
s(S'Obremski'
p3377
S'Daniel'
p3378
tp3379
I1701
s(S'Webb'
p3380
S'Brennan'
p3381
tp3382
I1377
s(S'Smith'
p3383
S'Stuart'
p3384
tp3385
I892
s(S'Sposa'
p3386
S'Mike'
p3387
tp3388
I268
s(S'Lowery'
p3389
g98
tp3390
I83
s(S'Cazaubon'
p3391
S'Rodolfo'
p3392
tp3393
I1946
s(S'Estes'
p3394
g2600
tp3395
I42
s(S'Rohlik'
p3396
S'Tony'
p3397
tp3398
I512
s(S'Duncan'
p3399
S'Brian'
p3400
tp3401
I1396
s(S'Johnson'
p3402
S'Michael'
p3403
tp3404
I1924
s(S'Marshall'
p3405
S'Ian'
p3406
tp3407
I1618
s(S'Reader'
p3408
S'Jeff'
p3409
tp3410
I1192
s(S'Knutzon'
p3411
S'Jason'
p3412
tp3413
I861
s(S'Ogrin'
p3414
S'David'
p3415
tp3416
I101
s(S'Campbell'
p3417
S'Chad'
p3418
tp3419
I276
s(S'Karlsson'
p3420
S'Jeff'
p3421
tp3422
I1922
s(S'Lee'
p3423
S'Richard*'
p3424
tp3425
I1592
s(S'Park'
p3426
S'Jae-bum'
p3427
tp3428
I1467
s(S'Flint'
p3429
S'Gavin'
p3430
tp3431
I885
s(S'Moore'
p3432
S'Taylor'
p3433
tp3434
I1974
s(S'Toulson'
p3435
S'Chris'
p3436
tp3437
I211
s(S'Stenson'
p3438
S'Henrik'
p3439
tp3440
I829
s(S'Wie'
p3441
S'Michelle'
p3442
tp3443
I718
s(S'Green'
p3444
S'Gavin Kyle'
p3445
tp3446
I2039
s(S'Thomas'
p3447
S'Justin'
p3448
tp3449
I1337
s(S'Stadler'
p3450
S'Craig'
p3451
tp3452
I132
s(S'Koepka'
p3453
S'Chase'
p3454
tp3455
I2016
s(S'Friend'
p3456
S'Bob'
p3457
tp3458
I51
s(S'McCorkle'
p3459
S'Todd'
p3460
tp3461
I1797
s(S'Jensen'
p3462
S'Clint'
p3463
tp3464
I672
s(S'Friesen'
p3465
S'Steve'
p3466
tp3467
I701
s(S'Muthiya'
p3468
S'Madalitso'
p3469
tp3470
I1031
s(S'Skayhan'
p3471
S'Ron'
p3472
tp3473
I270
s(S'Aldridge'
p3474
S'Tyler'
p3475
tp3476
I1307
s(S'Joyner'
p3477
S'Randy'
p3478
tp3479
I871
s(S'Bunker'
p3480
S'Dave'
p3481
tp3482
I1436
s(S'Lankford'
p3483
S'Jeffrey'
p3484
tp3485
I77
s(S'Hogarth'
p3486
S'Tim'
p3487
tp3488
I1083
s(S'Nutt'
p3489
S'Bret'
p3490
tp3491
I1635
s(S'Khan'
p3492
S'Simon'
p3493
tp3494
I1362
s(S'Castillo'
p3495
S'Ron'
p3496
tp3497
I170
s(S'Holtby'
p3498
S'Paul'
p3499
tp3500
I614
s(S'Justesen'
p3501
S'Erick'
p3502
tp3503
I1397
s(S'Fiori'
p3504
S'Ed'
p3505
tp3506
I566
s(S'Smith'
p3507
S'Robin'
p3508
tp3509
I1259
s(S'Jones'
p3510
S'Brett'
p3511
tp3512
I1808
s(S'Burns'
p3513
S'George'
p3514
tp3515
I564
s(S'Fitzpatrick'
p3516
S'Matthew'
p3517
tp3518
I1762
s(S'Dartnall'
p3519
S'Steve'
p3520
tp3521
I1309
s(S'Villegas'
p3522
S'Manuel'
p3523
tp3524
I1390
s(S'Reifers'
p3525
S'Kyle'
p3526
tp3527
I1058
s(S'Yarnes'
p3528
S'David'
p3529
tp3530
I899
s(S'Dell'
p3531
S'David'
p3532
tp3533
I216
s(S'Lam'
p3534
S'Chih-Bing'
p3535
tp3536
I1285
s(S'Lee'
p3537
S'Regan'
p3538
tp3539
I519
s(S'Chin'
p3540
S'John'
p3541
tp3542
I1431
s(S'Sanders'
p3543
S'Andy'
p3544
tp3545
I498
s(S'Borchert'
p3546
S'Matthew'
p3547
tp3548
I1318
s(S'Sellers'
p3549
S'Kelly'
p3550
tp3551
I1197
s(S'Johnson'
p3552
S'Richard'
p3553
tp3554
I497
s(S'Peck'
p3555
S'Cameron'
p3556
tp3557
I1258
s(S'Woodard'
p3558
S'Stephen'
p3559
tp3560
I494
s(S'Seiffert'
p3561
S'Chase'
p3562
tp3563
I1695
s(S'Neher'
p3564
S'Jamie'
p3565
tp3566
I664
s(S'Uresti'
p3567
S'Omar'
p3568
tp3569
I602
s(S'Bramlett'
p3570
S'Joseph'
p3571
tp3572
I1426
s(S'Cabra'
p3573
S'Zach'
p3574
tp3575
I2034
s(S'Sessler'
p3576
S'Chris'
p3577
tp3578
I522
s(S'Faxon'
p3579
S'Brad'
p3580
tp3581
I45
s(S'Pan'
p3582
S'Cheng Tsung'
p3583
tp3584
I1811
s(S'Campbell'
p3585
S'Brian'
p3586
tp3587
I1863
s(S'Otte'
p3588
S'Preston'
p3589
tp3590
I1530
s(S'Lovemark'
p3591
S'Jamie'
p3592
tp3593
I1057
s(S'Wright'
p3594
S'Chase'
p3595
tp3596
I1630
s(S'Le\xf3n'
p3597
S'Hugo'
p3598
tp3599
I1324
s(S'Ruiz'
p3600
S'Johnny'
p3601
tp3602
I2059
s(S'Miller'
p3603
S'Brad'
p3604
tp3605
I1851
s(S'Personett'
p3606
S'Loren'
p3607
tp3608
I606
s(S'Martin'
p3609
S'Ben'
p3610
tp3611
I1488
s(S'Holland'
p3612
S'Charlie'
p3613
tp3614
I1688
s(S'Vincent'
p3615
S'Scott'
p3616
tp3617
I1825
s(S'Garrick'
p3618
S'Jonathan'
p3619
tp3620
I2010
s(S'Campos'
p3621
S'Rafael'
p3622
tp3623
I1914
s(S'Quinney'
p3624
S'Jeff'
p3625
tp3626
I472
s(S'Olson'
p3627
S'Jeff'
p3628
tp3629
I1829
s(S'Perks'
p3630
g660
tp3631
I265
s(S'Alexander'
p3632
S'Lonny'
p3633
tp3634
I739
s(S'Taylor'
p3635
g358
tp3636
I1171
s(S'Hamilton'
p3637
S'Todd'
p3638
tp3639
I63
s(S'Gilchrist'
p3640
S'Nate'
p3641
tp3642
I1068
s(S'Lamb'
p3643
S'Rick'
p3644
tp3645
I1997
s(S'Anderson'
p3646
S'Josh'
p3647
tp3648
I1327
s(S'Hoag'
p3649
S'Bo'
p3650
tp3651
I1581
s(S'Fasth'
p3652
S'Niclas'
p3653
tp3654
I341
s(S'Little II'
p3655
S'John'
p3656
tp3657
I1418
s(S'Zylstra'
p3658
S'Ryan'
p3659
tp3660
I1702
s(S'Maltbie'
p3661
S'Roger'
p3662
tp3663
I576
s(S'Love'
p3664
S'Dru'
p3665
tp3666
I1937
s(S'Snyder III'
p3667
S'Joey'
p3668
tp3669
I831
s(S'Lee'
p3670
S'Jun Hak'
p3671
tp3672
I1837
s(S'Broce'
p3673
S'Jamie'
p3674
tp3675
I1710
s(S'Quiros'
p3676
S'Alvaro'
p3677
tp3678
I1291
s(S'Alvarado'
p3679
S'Benjamin'
p3680
tp3681
I1475
s(S'Ackerman'
p3682
S'Bob'
p3683
tp3684
I562
s(S'Mu\xf1oz'
p3685
S'Sebasti\xe1n'
p3686
tp3687
I1998
s(S'Walewski'
p3688
S'Trey'
p3689
tp3690
I546
s(S'McCarthy'
p3691
S'Denny'
p3692
tp3693
I1959
s(S'Lemon'
p3694
S'Jim'
p3695
tp3696
I278
s(S'Fathauer'
p3697
S'Derek'
p3698
tp3699
I1173
s(S'Barcelo'
p3700
S'Rich'
p3701
tp3702
I674
s(S'McNealy'
p3703
S'Maverick'
p3704
tp3705
I1862
s(S'Norman'
p3706
S'Brian'
p3707
tp3708
I1794
s(S'Laird'
p3709
S'Martin'
p3710
tp3711
I1215
s(S'Boros'
p3712
S'Guy'
p3713
tp3714
I172
s(S'Johnson'
p3715
S'Mark'
p3716
tp3717
I357
s(S'Cauley'
p3718
S'Bud'
p3719
tp3720
I1415
s(S'Aragon'
p3721
S'Alex'
p3722
tp3723
I1004
s(S'Dougherty'
p3724
S'Nick'
p3725
tp3726
I442
s(S'Purtzer'
p3727
S'Tom'
p3728
tp3729
I776
s(S'Anderson'
p3730
S'Mark'
p3731
tp3732
I1333
s(S'Sill'
p3733
S'Brad'
p3734
tp3735
I2072
s(S'Potter, Jr.'
p3736
S'Ted'
p3737
tp3738
I1556
s(S'Tateyama'
p3739
S'Mitsuhiro'
p3740
tp3741
I1196
s(S'Greenwood'
p3742
S'Chris'
p3743
tp3744
I295
s(S'Arvold'
p3745
S'Tony'
p3746
tp3747
I542
s(S'Demattia'
p3748
S'Constant'
p3749
tp3750
I802
s(S'Wassem'
p3751
S'Heath'
p3752
tp3753
I625
s(S'Wiebe'
p3754
S'Gunner'
p3755
tp3756
I1408
s(S'Ciesielski'
p3757
S'Victor'
p3758
tp3759
I1076
s(S'Laudien'
p3760
S'Mike'
p3761
tp3762
I944
s(S'Kim'
p3763
S'Chan'
p3764
tp3765
I2077
s(S'Chawrasia'
p3766
S'SSP'
p3767
tp3768
I1200
s(S'Pullen'
p3769
S'Craig'
p3770
tp3771
I1156
s(S'McDonald'
p3772
S'Bruce'
p3773
tp3774
I947
s(S'Spallone'
p3775
S'Sal'
p3776
tp3777
I526
s(S'Paquet'
p3778
S'Brett'
p3779
tp3780
I694
s(S'Reed'
p3781
S'Curtis'
p3782
tp3783
I1954
s(S'Strange'
p3784
S'Scott'
p3785
tp3786
I1195
s(S'Love'
p3787
S'James'
p3788
tp3789
I1017
s(S'Templeton'
p3790
S'Jeff'
p3791
tp3792
I1413
s(S'Lowry'
p3793
S'Randy'
p3794
tp3795
I1647
s(S'Larsen'
p3796
S'Kevin'
p3797
tp3798
I1319
s(S'Micheel'
p3799
S'Shaun'
p3800
tp3801
I186
s(S'Garnett'
p3802
S'Brice'
p3803
tp3804
I1722
s(S'Mahan'
p3805
S'Hunter'
p3806
tp3807
I457
s(S'Mauchaza'
p3808
S'Nyasha'
p3809
tp3810
I1529
s(S'Durkin'
p3811
S'Kevin'
p3812
tp3813
I703
s(S'Warren'
p3814
S'Charles'
p3815
tp3816
I420
s(S'Sneve'
p3817
S'J.B.'
p3818
tp3819
I591
s(S'Pohl'
p3820
S'Dan'
p3821
tp3822
I113
s(S'Tway'
p3823
S'Kevin'
p3824
tp3825
I1479
s(S'Marksaeng'
p3826
S'Prayad'
p3827
tp3828
I1189
s(S'Laing'
p3829
S'Jason'
p3830
tp3831
I740
s(S'Poulter'
p3832
S'Ian'
p3833
tp3834
I439
s(S'Johnson'
p3835
S'Andrew'
p3836
tp3837
I1102
s(S'Day'
p3838
S'Jason'
p3839
tp3840
I1027
s(S'Moe'
p3841
S'Kris'
p3842
tp3843
I96
s(S'Reavie'
p3844
S'Chez'
p3845
tp3846
I709
s(S'Barranger'
p3847
S'Todd'
p3848
tp3849
I282
s(S'Zunic'
p3850
S'Jordan'
p3851
tp3852
I1925
s(S'Sturgeon'
p3853
S'Grant'
p3854
tp3855
I1820
s(S'Stone'
p3856
S'Brandon'
p3857
tp3858
I1926
s(S'Cayeux'
p3859
S'Marc'
p3860
tp3861
I834
s(S'Lipsky'
p3862
S'David'
p3863
tp3864
I1841
s(S'Bernakevitch'
p3865
S'Lindsay'
p3866
tp3867
I559
s(S'Veazey'
p3868
S'Vance'
p3869
tp3870
I290
s(S'Boudreau'
p3871
S'Ben'
p3872
tp3873
I1393
s(S'Leaney'
p3874
S'Stephen'
p3875
tp3876
I325
s(S'Thompson'
p3877
S'Kyle'
p3878
tp3879
I398
s(S'Knox'
p3880
S'Kenny'
p3881
tp3882
I575
s(S"O'Hern"
p3883
S'Nick'
p3884
tp3885
I657
s(S'Blean'
p3886
S'Bob'
p3887
tp3888
I201
s(S'Sutter'
p3889
S'Tom'
p3890
tp3891
I815
s(S'Robledo'
p3892
S'Roman'
p3893
tp3894
I2083
s(S'Kingston'
p3895
S'James'
p3896
tp3897
I1185
s(S'Nash'
p3898
S'Simon'
p3899
tp3900
I543
s(S'Hayes'
p3901
S'J.P.'
p3902
tp3903
I234
s(S'Peoples'
p3904
S'David'
p3905
tp3906
I108
s(S'Popovic'
p3907
S'Daniel'
p3908
tp3909
I1674
s(S'Kite'
p3910
S'Tom'
p3911
tp3912
I772
s(S'Goff'
p3913
S'Drew'
p3914
tp3915
I2038
s(S'Shindler'
p3916
S'Conrad'
p3917
tp3918
I1687
s(S'Schultz'
p3919
S'Dave'
p3920
tp3921
I1306
s(S'Siem'
p3922
S'Marcel'
p3923
tp3924
I670
s(S'Buha'
p3925
S'Jason'
p3926
tp3927
I444
s(S'Spaun'
p3928
S'J.J.'
p3929
tp3930
I1850
s(S'Walker'
p3931
S'Andy'
p3932
tp3933
I1551
s(S'Alker'
p3934
S'Steven'
p3935
tp3936
I355
s(S'Wilson'
p3937
S'Mark'
p3938
tp3939
I378
s(S'Cappelen'
p3940
S'Sebastian'
p3941
tp3942
I1828
s(S'Fisher'
p3943
S'Ross'
p3944
tp3945
I1214
s(S'Nosler'
p3946
S'Brian'
p3947
tp3948
I873
s(S'Rumford'
p3949
S'Brett'
p3950
tp3951
I677
s(S'Briggs'
p3952
S'Danny'
p3953
tp3954
I15
s(S'Atwal'
p3955
S'Arjun'
p3956
tp3957
I367
s(S'Brown'
p3958
S'Charlie'
p3959
tp3960
I629
s(S'Boyd'
p3961
S'Michael'
p3962
tp3963
I1107
s(S'Ramey'
p3964
S'Kyle'
p3965
tp3966
I2017
s(S'Littrell'
p3967
S'Don'
p3968
tp3969
I1768
s(S'Baillargeon'
p3970
S'Graham'
p3971
tp3972
I1320
s(S'Hoffmann'
p3973
S'Morgan'
p3974
tp3975
I1489
s(S'DeCorso'
p3976
S'Bryan'
p3977
tp3978
I1183
s(S'Hayashi'
p3979
S'Kevin'
p3980
tp3981
I633
s(S'Johnson'
p3982
S'Richard*'
p3983
tp3984
I977
s(S'Bourdy'
p3985
S'Gregory'
p3986
tp3987
I1008
s(S'Lewis'
p3988
S'Tom'
p3989
tp3990
I1591
s(S'Klauk'
p3991
g1834
tp3992
I453
s(S'Quinn'
p3993
S'Fran'
p3994
tp3995
I1177
s(S'Hahn'
p3996
S'John'
p3997
tp3998
I1941
s(S'Wayment'
p3999
S'Brett'
p4000
tp4001
I964
s(S'Andersen'
p4002
S'Mason'
p4003
tp4004
I2089
s(S'Bierkan'
p4005
S'John'
p4006
tp4007
I1429
s(S'Fehr'
p4008
S'Rick'
p4009
tp4010
I46
s(S'Kittleson'
p4011
S'Drew'
p4012
tp4013
I1483
s(S'Ferrier'
p4014
S'Branson'
p4015
tp4016
I1973
s(S'Ota'
p4017
S'Jonathan'
p4018
tp4019
I708
s(S'Fox'
p4020
S'Ryan'
p4021
tp4022
I2095
s(S'Bjorn'
p4023
S'Thomas'
p4024
tp4025
I266
s(S'McCabe'
p4026
S'Michael'
p4027
tp4028
I1656
s(S'Fields'
p4029
S'Jack'
p4030
tp4031
I1677
s(S'Wallace'
p4032
S'Matt'
p4033
tp4034
I2085
s(S'Carroll'
p4035
S'Brian'
p4036
tp4037
I1249
s(S'Tentis'
p4038
S'David'
p4039
tp4040
I1706
s(S'Hinkle'
p4041
S'Lon'
p4042
tp4043
I929
s(S'Martin'
p4044
S'Casey'
p4045
tp4046
I631
s(S'Geyer'
p4047
S'Ben'
p4048
tp4049
I1951
s(S'Lynn'
p4050
S'David'
p4051
tp4052
I1633
s(S'Henley'
p4053
S'Kip'
p4054
tp4055
I787
s(S'Quigley'
p4056
S'Brett'
p4057
tp4058
I219
s(S'Nitties'
p4059
S'James'
p4060
tp4061
I1287
s(S'Hammond'
p4062
S'Donnie'
p4063
tp4064
I64
s(S'Zalatoris'
p4065
S'Will'
p4066
tp4067
I1882
s(S'Langer'
p4068
S'Bernhard'
p4069
tp4070
I76
s(S'Imada'
p4071
S'Ryuji'
p4072
tp4073
I366
s(S'Kuboya'
p4074
S'Kenichi'
p4075
tp4076
I361
s(S'Hui'
p4077
S'Phillip'
p4078
tp4079
I1609
s(S'Austin'
p4080
S'Woody'
p4081
tp4082
I223
s(S'Burt'
p4083
S'Keith'
p4084
tp4085
I1038
s(S'Leggatt'
p4086
S'Ian'
p4087
tp4088
I253
s(S'McCann'
p4089
S'Brian'
p4090
tp4091
I1006
s(S'Fritz'
p4092
S'Nathan'
p4093
tp4094
I713
s(S'Blackburn'
p4095
S'Woody'
p4096
tp4097
I10
s(S'Williamson'
p4098
S'Eric'
p4099
tp4100
I1795
s(S'Summerhays'
p4101
S'Boyd'
p4102
tp4103
I628
s(S'Bailey'
p4104
S'Cliff'
p4105
tp4106
I941
s(S'Jonzon'
p4107
S'Michael'
p4108
tp4109
I1355
s(S'Tidland'
p4110
S'Chris'
p4111
tp4112
I811
s(S'Fulke'
p4113
S'Pierre'
p4114
tp4115
I353
s(S'Walker'
p4116
S'Mark'
p4117
tp4118
I465
s(S'Tsukada'
p4119
S'Yosuke'
p4120
tp4121
I1920
s(S"O'Neal"
p4122
S'Timothy'
p4123
tp4124
I840
s(S'McLachlin'
p4125
S'Parker'
p4126
tp4127
I990
s(S'Williamson'
p4128
S'Lee'
p4129
tp4130
I1011
s(S'Brown'
p4131
S'Hunter'
p4132
tp4133
I1765
s(S'Bescansa'
p4134
S'Ramon'
p4135
tp4136
I735
s(S'Kendall'
p4137
S'Skip'
p4138
tp4139
I75
s(S'Gligic'
p4140
S'Michael'
p4141
tp4142
I1578
s(S'Beach'
p4143
S'Alexander'
p4144
tp4145
I2098
s(S'Tanihara'
p4146
S'Hideto'
p4147
tp4148
I646
s(S'Smith'
p4149
S'Chris'
p4150
tp4151
I129
s(S'Hicks'
p4152
S'Justin'
p4153
tp4154
I1230
s(S'Graziosa'
p4155
S'Frank'
p4156
tp4157
I756
s(S'Hutchison'
p4158
S'Randall'
p4159
tp4160
I1344
s(S'Oh'
p4161
g4060
tp4162
I1288
s(S'McQuillan'
p4163
S'Matt'
p4164
tp4165
I1461
s(S'Huh'
p4166
g2881
tp4167
I1586
s(S'Kapur'
p4168
S'Shiv'
p4169
tp4170
I1021
s(S'Vecellio'
p4171
S'Steve'
p4172
tp4173
I754
s(S'Gomez'
p4174
S'Jaime'
p4175
tp4176
I788
s(S'Mechereffe'
p4177
S'Fernando'
p4178
tp4179
I1310
s(S'Pappas'
p4180
S'Deane'
p4181
tp4182
I246
s(S'Castro'
p4183
S'Roberto'
p4184
tp4185
I1239
s(S'Small'
p4186
S'Mike'
p4187
tp4188
I217
s(S'Rodriguez'
p4189
S'Anthony'
p4190
tp4191
I1452
s(S'List'
p4192
S'Luke'
p4193
tp4194
I1128
s(S'Knight'
p4195
S'Michael'
p4196
tp4197
I1247
s(S'Standly'
p4198
S'Mike'
p4199
tp4200
I133
s(S'Mason'
p4201
S'John'
p4202
tp4203
I319
s(S'Allard'
p4204
S'Ken'
p4205
tp4206
I185
s(S'Rock'
p4207
S'Robert'
p4208
tp4209
I1553
s(S'Walter'
p4210
S'Ben'
p4211
tp4212
I950
s(S'Tabuena'
p4213
S'Miguel'
p4214
tp4215
I1593
s(S'Clark'
p4216
S'Wyndham'
p4217
tp4218
I2050
s(S'Johansson'
p4219
S'Per-Ulrik'
p4220
tp4221
I237
s(S'Dahmen'
p4222
S'Joel'
p4223
tp4224
I1735
s(S'Maness'
p4225
S'Michael'
p4226
tp4227
I1543
s(S'Parr'
p4228
S'Andrew'
p4229
tp4230
I1166
s(S'Hutton'
p4231
S'Brian'
p4232
tp4233
I1449
s(S'Parnevik'
p4234
S'Jesper'
p4235
tp4236
I281
s(S'Cole'
p4237
S'Eli'
p4238
tp4239
I1796
s(S'Keymont'
p4240
S'Mike'
p4241
tp4242
I1350
s(S'Park'
p4243
S'Myung Jun'
p4244
tp4245
I724
s(S'Villegas'
p4246
S'Camilo'
p4247
tp4248
I745
s(S'Weir'
p4249
S'Mike'
p4250
tp4251
I251
s(S'Ishii'
p4252
S'David'
p4253
tp4254
I572
s(S'Remesy'
p4255
S'Jean-Francois'
p4256
tp4257
I680
s(S'Stewart'
p4258
S'Hunter'
p4259
tp4260
I1776
s(S'Hebert'
p4261
S'Scott'
p4262
tp4263
I1103
s(S'Garrison'
p4264
S'Jim'
p4265
tp4266
I924
s(S'Jarosch'
p4267
S'Barrett'
p4268
tp4269
I1380
s(S'Dodson'
p4270
S'Will'
p4271
tp4272
I897
s(S'Baker-Finch'
p4273
S'Ian'
p4274
tp4275
I1263
s(S'Bean'
p4276
S'Andy'
p4277
tp4278
I5
s(S'Howell III'
p4279
S'Charles'
p4280
tp4281
I380
s(S'Brun'
p4282
S'Julien'
p4283
tp4284
I1752
s(S'Gallacher'
p4285
S'Stephen'
p4286
tp4287
I819
s(S'Oppenheim'
p4288
S'Rob'
p4289
tp4290
I1022
s(S'Kim'
p4291
S'Sunny'
p4292
tp4293
I1406
s(S'Whitsett'
p4294
S'Cory'
p4295
tp4296
I1845
s(S'March'
p4297
S'Gary'
p4298
tp4299
I227
s(S'Guerrero'
p4300
S'Estanislao'
p4301
tp4302
I1412
s(S'Norris'
p4303
S'Paul'
p4304
tp4305
I1539
s(S'Mediate'
p4306
S'Rocco'
p4307
tp4308
I93
s(S'Gordon'
p4309
S'Scott'
p4310
tp4311
I1463
s(S'Sullivan'
p4312
S'Andy'
p4313
tp4314
I1836
s(S'Gogel'
p4315
g552
tp4316
I248
s(S'Isley'
p4317
S'Steve'
p4318
tp4319
I1087
s(S'Bray'
p4320
S'Dustin'
p4321
tp4322
I1720
s(S'Randhawa'
p4323
S'Jyoti'
p4324
tp4325
I384
s(S'Gregory'
p4326
S'Scott'
p4327
tp4328
I2026
s(S'Heath'
p4329
S'Rick'
p4330
tp4331
I368
s(S'James'
p4332
S'Austin'
p4333
tp4334
I2058
s(S'Halldorson'
p4335
S'Dan'
p4336
tp4337
I62
s(S'Gatto'
p4338
S'CJ'
p4339
tp4340
I1822
s(S'Gardiner'
p4341
S'Scott'
p4342
tp4343
I1637
s(S'Olesen'
p4344
S'Thorbjorn'
p4345
tp4346
I1663
s(S'Romero'
p4347
S'Andres'
p4348
tp4349
I1116
s(S'Jones'
p4350
S'Matt'
p4351
tp4352
I869
s(S'Sanders'
p4353
S'Derek'
p4354
tp4355
I603
s(S'Staton'
p4356
S'Kenneth'
p4357
tp4358
I416
s(S'Gortana'
p4359
S'Marco'
p4360
tp4361
I816
s(S'Beck'
p4362
S'Chip'
p4363
tp4364
I6
s(S'Brauer'
p4365
S'Scott'
p4366
tp4367
I503
s(S'Patton'
p4368
S'Chris'
p4369
tp4370
I183
s(S'Schwartzel'
p4371
S'Charl'
p4372
tp4373
I870
s(S'Mulroy'
p4374
S'Garth'
p4375
tp4376
I1293
s(S'Miller'
p4377
S'Lindy'
p4378
tp4379
I774
s(S'Wittenberg'
p4380
S'Casey'
p4381
tp4382
I501
s(S'Proehl'
p4383
S'Chad'
p4384
tp4385
I1250
s(S'Mabrey'
p4386
S'Matt'
p4387
tp4388
I1958
s(S'Cassini'
p4389
S'Nick'
p4390
tp4391
I707
s(S'Barlow'
p4392
S'Craig'
p4393
tp4394
I300
s(S'Stieren'
p4395
S'Tim'
p4396
tp4397
I1045
s(S'Garmendia'
p4398
S'Alejandro'
p4399
tp4400
I1607
s(S'Leaver'
p4401
S'Grant'
p4402
tp4403
I1405
s(S'Izawa'
p4404
S'Toshi'
p4405
tp4406
I259
s(S'Botsford'
p4407
S'Chris'
p4408
tp4409
I746
s(S'Burns'
p4410
S'Steve'
p4411
tp4412
I704
s(S'Christian'
p4413
S'Gary'
p4414
tp4415
I1542
s(S'Crawford'
p4416
S'Christopher'
p4417
tp4418
I2086
s(S'Levi'
p4419
S'Wayne'
p4420
tp4421
I79
s(S'Ernst'
p4422
S'Derek'
p4423
tp4424
I1629
s(S'Wood'
p4425
g3625
tp4426
I523
s(S'Adams'
p4427
S'Blake'
p4428
tp4429
I1378
s(S'Watson'
p4430
S'Tom'
p4431
tp4432
I584
s(S'Scriven'
p4433
S'Jacob'
p4434
tp4435
I1256
s(S'Harris'
p4436
S'Ty'
p4437
tp4438
I1165
s(S'Beale'
p4439
S'James'
p4440
tp4441
I1884
s(S'Huxman'
p4442
S'Greg'
p4443
tp4444
I1521
s(S'Matsumura'
p4445
S'Michio'
p4446
tp4447
I1474
s(S'Miyazato'
p4448
S'Kiyoshi'
p4449
tp4450
I481
s(S'Toledo'
p4451
S'Esteban'
p4452
tp4453
I168
s(S'Haefner'
p4454
S'Kevin'
p4455
tp4456
I714
s(S'Aphibarnrat'
p4457
S'Kiradech'
p4458
tp4459
I1648
s(S'Hamilton'
p4460
S'Robert'
p4461
tp4462
I466
s(S'Willett'
p4463
S'Danny'
p4464
tp4465
I1574
s(S'Black'
p4466
S'Mark'
p4467
tp4468
I764
s(S'Taylor'
p4469
S'Nick'
p4470
tp4471
I1201
s(S'Kok'
p4472
S'Johan'
p4473
tp4474
I1714
s(S'Garrigus'
p4475
S'Robert'
p4476
tp4477
I989
s(S'Takayama'
p4478
S'Junpei'
p4479
tp4480
I1292
s(S'Cabrera'
p4481
S'Angel'
p4482
tp4483
I359
s(S'Maurer'
p4484
S'Brian'
p4485
tp4486
I1518
s(S'Saraceno'
p4487
S'Tony'
p4488
tp4489
I1265
s(S'Carnevale'
p4490
S'Mark'
p4491
tp4492
I215
s(S'Letzig'
p4493
S'Michael'
p4494
tp4495
I1206
s(S'Taniguchi'
p4496
S'Takuya'
p4497
tp4498
I864
s(S'Henderson'
p4499
S'Scott'
p4500
tp4501
I364
s(S'Doherty'
p4502
S'Greg'
p4503
tp4504
I1579
s(S'Velasquez'
p4505
S'Diego'
p4506
tp4507
I1587
s(S'Rottluff'
p4508
S'Max'
p4509
tp4510
I2004
s(S"O'Grady"
p4511
S'Mac'
p4512
tp4513
I577
s(S'Collins'
p4514
S'Steve'
p4515
tp4516
I879
s(S'Price'
p4517
S'Nick'
p4518
tp4519
I114
s(S'Sutterfield'
p4520
S'Brad'
p4521
tp4522
I622
s(S'Goggin'
p4523
S'Mathew'
p4524
tp4525
I340
s(S'Roos'
p4526
S'Jake'
p4527
tp4528
I1217
s(S'Dunne'
p4529
S'Paul'
p4530
tp4531
I1947
s(S'Baek'
p4532
S'Todd'
p4533
tp4534
I1652
s(S'Lin'
p4535
S'Wen-Tang'
p4536
tp4537
I1299
s(S'Wilson'
p4538
S'Chris'
p4539
tp4540
I1289
s(S'Sucher'
p4541
S'Zack'
p4542
tp4543
I1338
s(S'Danielson'
p4544
S'Paul'
p4545
tp4546
I883
s(S'Walsh'
p4547
S'Billy'
p4548
tp4549
I1743
s(S'Meloan'
p4550
S'Marcus'
p4551
tp4552
I320
s(S'Peddicord'
p4553
S'Chris'
p4554
tp4555
I775
s(S'Doan'
p4556
S'Cameron'
p4557
tp4558
I671
s(S'Price'
p4559
S'Andrew'
p4560
tp4561
I910
s(S'DeMoss'
p4562
S'Mookie'
p4563
tp4564
I2068
s(S'Olsen'
p4565
S'Zachary'
p4566
tp4567
I1775
s(S'Chipokas'
p4568
S'Scott'
p4569
tp4570
I796
s(S'Kelly'
p4571
S'Jerry'
p4572
tp4573
I226
s(S'Huber'
p4574
S'Tim'
p4575
tp4576
I893
s(S'Goydos'
p4577
S'Paul'
p4578
tp4579
I197
s(S'Seppanen'
p4580
S'Matt'
p4581
tp4582
I715
s(S'Carll'
p4583
S'Kevin'
p4584
tp4585
I889
s(S'Percy'
p4586
S'Cameron'
p4587
tp4588
I1357
s(S'Burke'
p4589
S'Cameron'
p4590
tp4591
I1322
s(S'Edwards'
p4592
S'Joel'
p4593
tp4594
I40
s(S'Collins'
p4595
S'Wil'
p4596
tp4597
I880
s(S'Graham'
p4598
S'Wesley'
p4599
tp4600
I1257
s(S'Baines'
p4601
S'Scott'
p4602
tp4603
I1064
s(S'Gallagher'
p4604
S'Jeff'
p4605
tp4606
I166
s(S'Otis'
p4607
S'Ray'
p4608
tp4609
I2006
s(S'Delsing'
p4610
S'Jay'
p4611
tp4612
I35
s(S'Kim'
p4613
S'Si Woo'
p4614
tp4615
I1680
s(S'Wi'
p4616
S'Charlie'
p4617
tp4618
I817
s(S'Ruffels'
p4619
S'Ryan'
p4620
tp4621
I1849
s(S'Trainer'
p4622
S'Martin'
p4623
tp4624
I1525
s(S'Kataoka'
p4625
S'Daisuke'
p4626
tp4627
I1911
s(S'George'
p4628
S'Larry'
p4629
tp4630
I1046
s(S'Han'
p4631
S'Seung-su'
p4632
tp4633
I550
s(S'Brown'
p4634
S'Mark*'
p4635
tp4636
I1242
s(S'Kang'
p4637
S'Sung'
p4638
tp4639
I1462
s(S'Fritsch'
p4640
S'Brad'
p4641
tp4642
I1075
s(S'Choi'
p4643
S'Jinho'
p4644
tp4645
I2008
s(S'Slover'
p4646
S'Cody'
p4647
tp4648
I1576
s(S'Wallace'
p4649
S'Darren'
p4650
tp4651
I759
s(S'Lutterus'
p4652
S'David'
p4653
tp4654
I1211
s(S'Trittler'
p4655
S'Paul'
p4656
tp4657
I1080
s(S'Sindelar'
p4658
S'Joey'
p4659
tp4660
I127
s(S'Maruyama'
p4661
S'Daisuke'
p4662
tp4663
I645
s(S'Kuhlman'
p4664
S'Erich'
p4665
tp4666
I553
s(S'Pappas'
p4667
S'Brenden'
p4668
tp4669
I351
s(S'Storm'
p4670
S'Graeme'
p4671
tp4672
I1108
s(S'Wagner'
p4673
S'Johnson'
p4674
tp4675
I1126
s(S'Weibring'
p4676
S'Matt'
p4677
tp4678
I502
s(S'Steffen'
p4679
S'Zach'
p4680
tp4681
I1889
s(S'Rocha'
p4682
S'Alexandre'
p4683
tp4684
I479
s(S'Giancola'
p4685
S'Kevin'
p4686
tp4687
I568
s(S'Kondo'
p4688
S'Tomohiro'
p4689
tp4690
I381
s(S'Li'
p4691
S'Hao Tong'
p4692
tp4693
I1928
s(S'Brock'
p4694
S'Josh'
p4695
tp4696
I2032
s(S'Jin'
p4697
S'Cheng'
p4698
tp4699
I2014
s(S'Landry'
p4700
S'Andrew'
p4701
tp4702
I1819
s(S'Marino'
p4703
S'Steve'
p4704
tp4705
I561
s(S'Lovelady'
p4706
S'Tom'
p4707
tp4708
I2111
s(S'Wald'
p4709
S'Lucas'
p4710
tp4711
I1219
s(S'Portz'
p4712
S'Clayton'
p4713
tp4714
I2065
s(S'Cox'
p4715
S'Kris'
p4716
tp4717
I604
s(S'Ward'
p4718
S'Dalton'
p4719
tp4720
I1906
s(S'Fujita'
p4721
S'Hiroyuki'
p4722
tp4723
I641
s(S'An'
p4724
S'Byeong Hun'
p4725
tp4726
I1411
s(S'Weston'
p4727
S'Rich'
p4728
tp4729
I952
s(S'Walters'
p4730
S'Euan'
p4731
tp4732
I833
s(S'Snyder'
p4733
S'Brent'
p4734
tp4735
I1904
s(S'Schuman'
p4736
S'Jim'
p4737
tp4738
I167
s(S'Crowe'
p4739
S'Trace'
p4740
tp4741
I2070
s(S'Anania'
p4742
S'Brian'
p4743
tp4744
I1788
s(S'Girouard'
p4745
S'Marc'
p4746
tp4747
I594
s(S'Richardson, Jr.'
p4748
S'Jerry'
p4749
tp4750
I1442
s(S'Berberian, Jr.'
p4751
S'Rich'
p4752
tp4753
I1957
s(S'Bryant'
p4754
S'Bart'
p4755
tp4756
I18
s(S'Douma'
p4757
S'John'
p4758
tp4759
I681
s(S'Kizzire'
p4760
S'Patton'
p4761
tp4762
I1260
s(S'Parel'
p4763
S'Scott'
p4764
tp4765
I976
s(S'Doig'
p4766
S'Ian'
p4767
tp4768
I768
s(S'Spieth'
p4769
S'Jordan'
p4770
tp4771
I1417
s(S'Guthrie'
p4772
S'Luke'
p4773
tp4774
I1596
s(S'Tims'
p4775
S'Tim'
p4776
tp4777
I686
s(S'Loving'
p4778
S'Matthew'
p4779
tp4780
I721
s(S'Zhang'
p4781
S'Xinjun'
p4782
tp4783
I2104
s(S'Concha'
p4784
S'Carlos'
p4785
tp4786
I1433
s(S'Dodt'
p4787
S'Andrew'
p4788
tp4789
I1809
s(S'Tryba'
p4790
S'Ted'
p4791
tp4792
I582
s(S'Verplank'
p4793
S'Scott'
p4794
tp4795
I149
s(S'Ikeda'
p4796
S'Yuta'
p4797
tp4798
I1370
s(S'Shields'
p4799
S'Kevin'
p4800
tp4801
I458
s(S'Saathoff'
p4802
S'Curt'
p4803
tp4804
I525
s(S'Hamrick'
p4805
S'Hunter'
p4806
tp4807
I1616
s(S'Gove'
p4808
g1834
tp4809
I316
s(S'Beisser'
p4810
S'Benoit'
p4811
tp4812
I732
s(S'Roberts'
p4813
S'Loren'
p4814
tp4815
I121
s(S'Kresge'
p4816
S'Cliff'
p4817
tp4818
I287
s(S'Barbaree'
p4819
S'Philip'
p4820
tp4821
I1978
s(S'Heaven'
p4822
S'Bradley'
p4823
tp4824
I656
s(S'Bourgeois'
p4825
S'Marc'
p4826
tp4827
I760
s(S'Riley'
p4828
g4150
tp4829
I318
s(S'Cornelson'
p4830
S'Adam'
p4831
tp4832
I1929
s(S'Britton'
p4833
S'Bill'
p4834
tp4835
I563
s(S'Arthur'
p4836
S'Perry'
p4837
tp4838
I763
s(S'Muncrief'
p4839
S'Kevin'
p4840
tp4841
I691
s(S'Guetz'
p4842
S'Bret'
p4843
tp4844
I1369
s(S'Clearwater'
p4845
S'Keith'
p4846
tp4847
I28
s(S'Luiten'
p4848
S'Joost'
p4849
tp4850
I1560
s(S'Smith'
p4851
S'Anthony'
p4852
tp4853
I1270
s(S'Lardon'
p4854
S'Brad'
p4855
tp4856
I163
s(S'Blanks'
p4857
S'Kris'
p4858
tp4859
I1300
s(S'Meyer'
p4860
S'Adam'
p4861
tp4862
I716
s(S'Jeffress'
p4863
S'Steven'
p4864
tp4865
I1805
s(S'Kinkopf'
p4866
S'Michael'
p4867
tp4868
I1859
s(S'Krueger'
p4869
S'Aaron'
p4870
tp4871
I1341
s(S'Ruthkoski'
p4872
S'Andrew'
p4873
tp4874
I1029
s(S'Hummel'
p4875
S'Steve'
p4876
tp4877
I822
s(S'Kim'
p4878
S'Sihwan'
p4879
tp4880
I2035
s(S'Wilcox'
p4881
S'Willy'
p4882
tp4883
I1427
s(S'Kortan'
p4884
S'Brian'
p4885
tp4886
I650
s(S'Looper'
p4887
S'Ken'
p4888
tp4889
I1692
s(S'Els'
p4890
S'Ernie'
p4891
tp4892
I187
s(S'Schembechler II'
p4893
S'Richie'
p4894
tp4895
I2029
s(S'Hulbert'
p4896
S'Mike'
p4897
tp4898
I69
s(S'Earnest'
p4899
S'Paul'
p4900
tp4901
I2018
s(S'Wang'
p4902
S'Jeunghun'
p4903
tp4904
I1940
s(S'Rossetti'
p4905
S'Todd'
p4906
tp4907
I987
s(S'Curl'
p4908
S'Rod'
p4909
tp4910
I33
s(S'Ford'
p4911
S'Bob'
p4912
tp4913
I567
s(S'Wetterich'
p4914
S'Brett'
p4915
tp4916
I418
s(S'Smith'
p4917
S'Sam'
p4918
tp4919
I1512
s(S'Bingham'
p4920
S'Brett'
p4921
tp4922
I998
s(S'Garber'
p4923
S'Joey'
p4924
tp4925
I1789
s(S'Reed'
p4926
S'Patrick'
p4927
tp4928
I1498
s(S'Agee'
p4929
S'Brian'
p4930
tp4931
I1791
s(S'Kodama'
p4932
S'Mathew'
p4933
tp4934
I1231
s(S'Fergus'
p4935
S'Keith'
p4936
tp4937
I47
s(S'Perry'
p4938
S'Kenny'
p4939
tp4940
I111
s(S'Wyatt'
p4941
S'Bobby'
p4942
tp4943
I1787
s(S'Nelson'
p4944
S'Larry'
p4945
tp4946
I1079
s(S'Yokoo'
p4947
S'Kaname'
p4948
tp4949
I336
s(S'Ho'
p4950
S'S.K.'
p4951
tp4952
I699
s(S'Paulson'
p4953
S'Dennis'
p4954
tp4955
I106
s(S'Kraft'
p4956
S'Kelly'
p4957
tp4958
I1600
s(S'Hearn'
p4959
S'David'
p4960
tp4961
I508
s(S'Gamez'
p4962
S'Robert'
p4963
tp4964
I55
s(S'Wallace'
p4965
S'Harold'
p4966
tp4967
I1085
s(S'Green'
p4968
S'Richard'
p4969
tp4970
I634
s(S'Couples'
p4971
S'Fred'
p4972
tp4973
I32
s(S'Prugh'
p4974
S'Alex'
p4975
tp4976
I1385
s(S'Kim'
p4977
S'Shi'
p4978
tp4979
I2003
s(S'Hickok'
p4980
S'Kramer'
p4981
tp4982
I1968
s(S'Mitchell'
p4983
S'Stiles'
p4984
tp4985
I951
s(S'Zyroll'
p4986
S'Tate'
p4987
tp4988
I530
s(S'Kjeldsen'
p4989
S'Soren'
p4990
tp4991
I406
s(S'Blake'
p4992
S'Jay Don'
p4993
tp4994
I12
s(S'Kennedy'
p4995
S'Blake'
p4996
tp4997
I2046
s(S'Nisbet'
p4998
S'Daniel'
p4999
tp5000
I1653
s(S'Allenby'
p5001
S'Robert'
p5002
tp5003
I263
s(S'Gonzalez'
p5004
S'Ernie'
p5005
tp5006
I58
s(S'Clarke'
p5007
S'Darren'
p5008
tp5009
I301
s(S'Woodson'
p5010
S'Rick'
p5011
tp5012
I1451
s(S'Perez'
p5013
S'Mike'
p5014
tp5015
I1365
s(S'Crenshaw'
p5016
S'Ben'
p5017
tp5018
I928
s(S'Redfield'
p5019
S'Alex'
p5020
tp5021
I1939
s(S'Waldorf'
p5022
S'Duffy'
p5023
tp5024
I152
s(S'Gutschewski'
p5025
S'Scott'
p5026
tp5027
I687
s(S'Price'
p5028
S'Phillip'
p5029
tp5030
I333
s(S'Morales'
p5031
S'Wilfredo'
p5032
tp5033
I386
s(S'Genovese'
p5034
S'Mike'
p5035
tp5036
I2066
s(S'Dougherty'
p5037
S'Kevin'
p5038
tp5039
I2009
s(S'Gonzalez'
p5040
S'Ricardo'
p5041
tp5042
I654
s(S'Sierak'
p5043
S'Mark'
p5044
tp5045
I548
s(S'Claxton'
p5046
S'Paul'
p5047
tp5048
I813
s(S'Baird'
p5049
S'Briny'
p5050
tp5051
I334
s(S'Kaye'
p5052
S'Jonathan'
p5053
tp5054
I312
s(S'Igarashi'
p5055
S'Yuji'
p5056
tp5057
I1276
s(S'Dillon'
p5058
S'Ryan'
p5059
tp5060
I849
s(S'Rashell'
p5061
S'Rob'
p5062
tp5063
I867
s(S'Ferrie'
p5064
S'Kenneth'
p5065
tp5066
I827
s(S'Epperson'
p5067
S'Chris'
p5068
tp5069
I1500
s(S'Moore'
p5070
S'Jonathan'
p5071
tp5072
I1141
s(S'Vucinich'
p5073
S'Roy'
p5074
tp5075
I792
s(S'Acosta, Jr.'
p5076
S'Joe'
p5077
tp5078
I311
s(S'Twiggs'
p5079
S'Greg'
p5080
tp5081
I146
s(S'Uihlein'
p5082
S'Peter'
p5083
tp5084
I1059
s(S'Hogue'
p5085
S'Ryan'
p5086
tp5087
I440
s(S'Woo'
p5088
S'Charlie'
p5089
tp5090
I1255
s(S'Gilley'
p5091
S'Chris'
p5092
tp5093
I1878
s(S'Dixon'
p5094
S'Brian'
p5095
tp5096
I737
s(S'Kim'
p5097
S'Bio'
p5098
tp5099
I1501
s(S'Moyers'
p5100
S'Mikey'
p5101
tp5102
I1790
s(S'Helminen'
p5103
S'Ryan'
p5104
tp5105
I913
s(S'Ziska'
p5106
S'Ian'
p5107
tp5108
I1067
s(S'Coughlan'
p5109
S'Richie'
p5110
tp5111
I369
s(S'Hallberg'
p5112
S'Eric'
p5113
tp5114
I1966
s(S'Bradley'
p5115
S'Keegan'
p5116
tp5117
I1485
s(S'Hauer'
p5118
S'Brad'
p5119
tp5120
I682
s(S'Noren'
p5121
S'Alex'
p5122
tp5123
I1372
s(S'Smalley'
p5124
S'Alex'
p5125
tp5126
I2080
s(S'Triplett'
p5127
S'Kirk'
p5128
tp5129
I144
s(S'Wong'
p5130
S'Eugene'
p5131
tp5132
I1435
s(S'Shawver'
p5133
S'John'
p5134
tp5135
I609
s(S'Pampling'
p5136
S'Rod'
p5137
tp5138
I338
s(S'Iaciofano'
p5139
S'Joey'
p5140
tp5141
I919
s(S'Katayama'
p5142
S'Shingo'
p5143
tp5144
I322
s(S'Lim'
p5145
S'Thomas'
p5146
tp5147
I1891
s(S'Bozzelli'
p5148
S'Dominic'
p5149
tp5150
I1996
s(S'Vana'
p5151
S'Frank'
p5152
tp5153
I758
s(S'Hagy'
p5154
S'Brandon'
p5155
tp5156
I1865
s(S"O'Dell"
p5157
S'Sam'
p5158
tp5159
I1893
s(S'Ring'
p5160
S'Willis'
p5161
tp5162
I1421
s(S'Fast'
p5163
S'Matt'
p5164
tp5165
I1419
s(S'Lawrence'
p5166
S'Mike'
p5167
tp5168
I1078
s(S'Millard'
p5169
S'Jason'
p5170
tp5171
I1761
s(S'Heinen'
p5172
S'Mike'
p5173
tp5174
I229
s(S'Weibring'
p5175
S'D.A.'
p5176
tp5177
I155
s(S'Pavin'
p5178
S'Corey'
p5179
tp5180
I107
s(S'Stalter'
p5181
S'Joel'
p5182
tp5183
I1942
s(S'Younan'
p5184
S'Jake'
p5185
tp5186
I1317
s(S'Gibson'
p5187
S'John'
p5188
tp5189
I225
s(S'Kohut'
p5190
S'J.T.'
p5191
tp5192
I1193
s(S"O'Malley"
p5193
S'Peter'
p5194
tp5195
I99
s(S'Hack'
p5196
S'Jhared'
p5197
tp5198
I1823
s(S'Abel'
p5199
S'Derek'
p5200
tp5201
I1157
s(S'Hubbard'
p5202
S'Mark'
p5203
tp5204
I1750
s(S'Laycock'
p5205
S'Scott'
p5206
tp5207
I339
s(S'Gore'
p5208
g3926
tp5209
I403
s(S'Birdsey'
p5210
S'Thomas'
p5211
tp5212
I1857
s(S'Perry'
p5213
S'Rod'
p5214
tp5215
I493
s(S'Lara'
p5216
S'Jose Manuel'
p5217
tp5218
I1096
s(S'Perkins'
p5219
S'Travis'
p5220
tp5221
I1202
s(S'Wiebe'
p5222
S'Mark'
p5223
tp5224
I156
s(S'Smotherman'
p5225
S'Austin'
p5226
tp5227
I2020
s(g3991
g4202
tp5228
I510
s(S'Barnes'
p5229
S'Ricky'
p5230
tp5231
I459
s(S'Chartrand'
p5232
S'Dan'
p5233
tp5234
I908
s(S'Nagy'
p5235
S'Corey'
p5236
tp5237
I1923
s(S'Cuzzort'
p5238
S'Jeff'
p5239
tp5240
I1216
s(S'Slocum'
p5241
S'Heath'
p5242
tp5243
I387
s(S'Wiesberger'
p5244
S'Bernd'
p5245
tp5246
I1564
s(S'DiMarco'
p5247
g4150
tp5248
I174
s(S'Kisner'
p5249
S'Kevin'
p5250
tp5251
I1468
s(S'Hessing'
p5252
S'Rob'
p5253
tp5254
I906
s(S'Marcano'
p5255
S'Ross'
p5256
tp5257
I1144
s(S'Gooch'
p5258
S'Talor'
p5259
tp5260
I1783
s(S'Nelson'
p5261
S'John'
p5262
tp5263
I261
s(S'Thatcher'
p5264
S'Roland'
p5265
tp5266
I495
s(S'Lohr'
p5267
S'Bob'
p5268
tp5269
I81
s(S'Miernicki'
p5270
S'Daniel'
p5271
tp5272
I1430
s(S'McCoy'
p5273
S'Lee'
p5274
tp5275
I1896
s(S'Price'
p5276
S'Anthony'
p5277
tp5278
I1537
s(S'Cochran'
p5279
S'Nicholas'
p5280
tp5281
I1774
s(S'Rowell'
p5282
S'Brian'
p5283
tp5284
I971
s(S'Grube'
p5285
S'Rob'
p5286
tp5287
I1248
s(S'Herron'
p5288
S'Tim'
p5289
tp5290
I292
s(S'Brazel'
p5291
S'Sam'
p5292
tp5293
I2041
s(S'Kang'
p5294
S'Anthony'
p5295
tp5296
I1280
s(S'Pieters'
p5297
S'Thomas'
p5298
tp5299
I1918
s(S'Campbell'
p5300
S'Michael'
p5301
tp5302
I327
s(S'Esposito'
p5303
S'Frank'
p5304
tp5305
I1707
s(S'Sowards'
p5306
S'Bob'
p5307
tp5308
I808
s(S'Ancer'
p5309
S'Abraham'
p5310
tp5311
I1944
s(S'Day'
p5312
S'Glen'
p5313
tp5314
I241
s(S'Hart'
p5315
S'Dudley'
p5316
tp5317
I192
s(S'du Toit'
p5318
S'Jared'
p5319
tp5320
I1983
s(S'Schuller'
p5321
S'Rick'
p5322
tp5323
I778
s(S'Madison'
p5324
S'Brian'
p5325
tp5326
I866
s(S'Boyle'
p5327
S'Bob'
p5328
tp5329
I208
s(S'Kokott'
p5330
S'Bill'
p5331
tp5332
I937
s(S'Rosinia'
p5333
S'Billy'
p5334
tp5335
I943
s(S'Ruda'
p5336
S'J.R.'
p5337
tp5338
I895
s(S'Hosokawa'
p5339
S'Kazuhiko'
p5340
tp5341
I826
s(S'Henley'
p5342
S'Russell'
p5343
tp5344
I1664
s(S'Slattery'
p5345
S'Lee'
p5346
tp5347
I1549
s(S'Howe'
p5348
S'T.J.'
p5349
tp5350
I1890
s(S'Proveaux'
p5351
S'Cody'
p5352
tp5353
I1612
s(S'Lawrie'
p5354
S'Paul'
p5355
tp5356
I304
s(S'Mulhearn'
p5357
S'Danny'
p5358
tp5359
I678
s(S'Burns'
p5360
S'Jeff'
p5361
tp5362
I1361
s(S'Miles'
p5363
S'Michael'
p5364
tp5365
I1264
s(S'Moon'
p5366
S'Alex'
p5367
tp5368
I1938
s(S'Holmes'
p5369
S'J.B.'
p5370
tp5371
I876
s(S'Lawrence'
p5372
S'David'
p5373
tp5374
I2053
s(S'Georgiou'
p5375
S'Andrew'
p5376
tp5377
I1662
s(S'Pendrith'
p5378
S'Taylor'
p5379
tp5380
I1766
s(S'Ellis'
p5381
S'John'
p5382
tp5383
I720
s(S'Yokomoto'
p5384
S'Beau'
p5385
tp5386
I948
s(S'Watson'
p5387
S'Bubba'
p5388
tp5389
I1001
s(S'Tolan'
p5390
S'Derek'
p5391
tp5392
I1367
s(S'Jones'
p5393
S'Nickolas'
p5394
tp5395
I1294
s(S'Lower'
p5396
S'Justin'
p5397
tp5398
I1763
s(S'Hale'
p5399
S'Damian'
p5400
tp5401
I484
s(S'Mazza'
p5402
S'John'
p5403
tp5404
I930
s(S'PomArleau'
p5405
S'Kevin'
p5406
tp5407
I844
s(S'Funk'
p5408
S'Fred'
p5409
tp5410
I53
s(S'Wurtz'
p5411
S'Mark'
p5412
tp5413
I199
s(S'Leon'
p5414
S'Tyler'
p5415
tp5416
I1471
s(S'Ortiz'
p5417
S'Carlos'
p5418
tp5419
I1733
s(S'Meyer'
p5420
S'Dylan'
p5421
tp5422
I2051
s(S'Gomez'
p5423
S'Rafael'
p5424
tp5425
I859
s(S'Kim'
p5426
S'Hyung-Sung'
p5427
tp5428
I1753
s(S'Lee'
p5429
S'Soomin'
p5430
tp5431
I1987
s(S'Massa'
p5432
S'Bobby'
p5433
tp5434
I1691
s(S'McConnell'
p5435
S'Paul'
p5436
tp5437
I1950
s(S'Short, Jr.'
p5438
S'Wes'
p5439
tp5440
I592
s(S'Baddeley'
p5441
S'Aaron'
p5442
tp5443
I389
s(S'Brandt'
p5444
S'Jimmy'
p5445
tp5446
I1832
s(S'Marin'
p5447
S'Chris'
p5448
tp5449
I1447
s(S'Panzeri'
p5450
S'Joe'
p5451
tp5452
I1506
s(S'Anderson'
p5453
S'Stuart'
p5454
tp5455
I881
s(S'Fauchier'
p5456
S'Ryan'
p5457
tp5458
I402
s(S'Gow'
p5459
S'Paul'
p5460
tp5461
I376
s(S'Jung'
p5462
S'Richard'
p5463
tp5464
I1852
s(S'Backel'
p5465
S'Camden'
p5466
tp5467
I1870
s(S'Ridings'
p5468
S'Tag'
p5469
tp5470
I423
s(S'Byrum'
p5471
g457
tp5472
I21
s(S'Perry'
p5473
S'Chris'
p5474
tp5475
I110
s(S'Schultz'
p5476
S'Dirk'
p5477
tp5478
I212
s(S'Knox'
p5479
S'Russell'
p5480
tp5481
I1484
s(S'Wooding'
p5482
S'Jeremiah'
p5483
tp5484
I1681
s(S'Song'
p5485
S'Young-han'
p5486
tp5487
I1936
s(S'Bickerton'
p5488
S'John'
p5489
tp5490
I954
s(S'Sanchez'
p5491
S'Isaac'
p5492
tp5493
I1734
s(S'Wightman'
p5494
S'Paul'
p5495
tp5496
I1002
s(S'Wolcott'
p5497
S'Bob'
p5498
tp5499
I157
s(S'Allred'
p5500
S'Jason'
p5501
tp5502
I424
s(S'Kelley'
p5503
S'Tony'
p5504
tp5505
I1268
s(S'Whaley'
p5506
S'Suzy'
p5507
tp5508
I549
s(S'English'
p5509
S'Harris'
p5510
tp5511
I1585
s(S'Cink'
p5512
S'Stewart'
p5513
tp5514
I323
s(S'Biershenk'
p5515
S'Tommy'
p5516
tp5517
I1547
s(S'Alexander'
p5518
S'Tyson'
p5519
tp5520
I2076
s(S'Knous'
p5521
S'Jim'
p5522
tp5523
I2002
s(S'Haig'
p5524
S'Anton'
p5525
tp5526
I1130
s(S'Upper'
p5527
S'Brett'
p5528
tp5529
I583
s(S'Casagranda'
p5530
S'Greg'
p5531
tp5532
I790
s(S'Melton'
p5533
S'Brett'
p5534
tp5535
I748
s(S'Hughes'
p5536
S'Reed'
p5537
tp5538
I771
s(S'NeSmith'
p5539
S'Matthew'
p5540
tp5541
I1622
s(S'Clark II'
p5542
S'Michael'
p5543
tp5544
I272
s(S'Link IV'
p5545
S'William'
p5546
tp5547
I698
s(S'Takahashi'
p5548
S'Tatsuhiko'
p5549
tp5550
I959
s(S'Olive'
p5551
S'Patrick'
p5552
tp5553
I1235
s(S'Nannen'
p5554
S'Derek'
p5555
tp5556
I887
s(S'Bolling'
p5557
S'Charles'
p5558
tp5559
I13
s(S'Byman'
p5560
S'Bob'
p5561
tp5562
I20
s(S'Robertson'
p5563
S'John'
p5564
tp5565
I409
s(S'Sorensen'
p5566
S'Chad'
p5567
tp5568
I1880
s(S'Stolz'
p5569
S'Andre'
p5570
tp5571
I635
s(S'Sciorra'
p5572
S'Cary'
p5573
tp5574
I1016
s(S'Martin Benavides'
p5575
S'Pablo'
p5576
tp5577
I1119
s(S'Lee'
p5578
S'Han'
p5579
tp5580
I1111
s(S'Choe'
p5581
S'Jay'
p5582
tp5583
I1035
s(S'Wilson'
p5584
S'TJ'
p5585
tp5586
I901
s(S'Allen'
p5587
S'Michael'
p5588
tp5589
I588
s(S'Thornberry'
p5590
S'Braden'
p5591
tp5592
I2031
s(S'Ferguson'
p5593
S'Ben'
p5594
tp5595
I1097
s(S'Anderson'
p5596
S'JC'
p5597
tp5598
I161
s(S'Diaz'
p5599
S'David'
p5600
tp5601
I1099
s(S'Utley'
p5602
S'Stan'
p5603
tp5604
I148
s(S'Harrington'
p5605
S'Padraig'
p5606
tp5607
I354
s(S'Jaeger'
p5608
S'Stephan'
p5609
tp5610
I2037
s(S'Na'
p5611
S'Kevin'
p5612
tp5613
I477
s(S'Casey'
p5614
S'Paul'
p5615
tp5616
I476
s(S'Haverland'
p5617
S'Butch'
p5618
tp5619
I970
s(S'Harmon'
p5620
S'Matt'
p5621
tp5622
I1167
s(S'Tracy'
p5623
S'Ethan'
p5624
tp5625
I1952
s(S'Cutler'
p5626
S'Steve'
p5627
tp5628
I1980
s(S'Schultze'
p5629
S'Bobby'
p5630
tp5631
I1147
s(S'Tucker'
p5632
S'Jeremy'
p5633
tp5634
I1019
s(S'Dufner'
p5635
S'Jason'
p5636
tp5637
I697
s(S'Bare'
p5638
S'Andy'
p5639
tp5640
I1139
s(S'Zokol'
p5641
S'Richard'
p5642
tp5643
I159
s(S'Holman'
p5644
S'Nathan'
p5645
tp5646
I1935
s(S'Webber'
p5647
S'Kane'
p5648
tp5649
I1054
s(S'Adams III'
p5650
S'Frank'
p5651
tp5652
I1559
s(S'Calcavecchia'
p5653
S'Mark'
p5654
tp5655
I22
s(S'Chamblee'
p5656
S'Brandel'
p5657
tp5658
I25
s(S'Svoboda'
p5659
S'Andrew'
p5660
tp5661
I1376
s(S'Gonzales'
p5662
S'Andres'
p5663
tp5664
I1073
s(S'Horsfield'
p5665
S'Sam'
p5666
tp5667
I2028
s(S'Damesworth'
p5668
S'David'
p5669
tp5670
I1608
s(S'Smith'
p5671
S'Bruce'
p5672
tp5673
I456
s(S'Sanders'
p5674
S'Curt'
p5675
tp5676
I1199
s(S'German'
p5677
S'Kyle'
p5678
tp5679
I1343
s(S'Gillis'
p5680
S'Tom'
p5681
tp5682
I239
s(S'Lyle'
p5683
S'Sandy'
p5684
tp5685
I85
s(S'Fergin'
p5686
S'Michael'
p5687
tp5688
I394
s(S'Magee'
p5689
S'Andrew'
p5690
tp5691
I86
s(S'Jimenez'
p5692
S'Miguel Angel'
p5693
tp5694
I621
s(S'Nallen'
p5695
S'Chris'
p5696
tp5697
I731
s(S'Love III'
p5698
S'Davis'
p5699
tp5700
I82
s(S'Purdy'
p5701
S'Ted'
p5702
tp5703
I379
s(S'Cheetham'
p5704
S'Neil'
p5705
tp5706
I851
s(S'Holmes'
p5707
S'Steve'
p5708
tp5709
I1366
s(S'Tucker'
p5710
S'Mark'
p5711
tp5712
I809
s(S'Drummond'
p5713
S'Scott'
p5714
tp5715
I676
s(S'Snyder'
p5716
S'Jay'
p5717
tp5718
I923
s(S'Meade'
p5719
S'Charlie'
p5720
tp5721
I178
s(S'Lane'
p5722
S'Barry'
p5723
tp5724
I615
s(S'Edstrom'
p5725
S'Reid'
p5726
tp5727
I1187
s(S'Park'
p5728
S'S.J.'
p5729
tp5730
I1826
s(S'Cullen'
p5731
S'Nick'
p5732
tp5733
I1821
s(S'Tolles'
p5734
S'Tommy'
p5735
tp5736
I589
s(S'Mitchell'
p5737
S'Jordan'
p5738
tp5739
I1631
s(S'Smith'
p5740
S'Nate'
p5741
tp5742
I1494
s(S'Henninger'
p5743
g152
tp5744
I195
s(S'Knoll'
p5745
S'Raymond'
p5746
tp5747
I1792
s(S'Fiedler'
p5748
S'Jon'
p5749
tp5750
I48
s(S'Ott'
p5751
S'Brad'
p5752
tp5753
I1907
s(S'Kop'
p5754
S'Brandan'
p5755
tp5756
I940
s(S'Johnson'
p5757
S'Tom'
p5758
tp5759
I1089
s(S'Appleby'
p5760
S'Stuart'
p5761
tp5762
I314
s(S'Yancey'
p5763
S'Cameron'
p5764
tp5765
I500
s(S'Park'
p5766
S'Jin'
p5767
tp5768
I330
s(S'Hansen'
p5769
S'Anders'
p5770
tp5771
I1095
s(S'Shriver'
p5772
S'Eric'
p5773
tp5774
I1443
s(S'Schultz'
p5775
S'David'
p5776
tp5777
I1425
s(S'Sokol'
p5778
S'Steve'
p5779
tp5780
I1124
s(S'Adams'
p5781
S'John'
p5782
tp5783
I0
s(S'Harman'
p5784
S'Brian'
p5785
tp5786
I734
s(S'Wiratchant'
p5787
S'Thaworn'
p5788
tp5789
I965
s(S'Donald'
p5790
S'Mike'
p5791
tp5792
I37
s(S'Wheatcroft'
p5793
S'Steve'
p5794
tp5795
I868
s(S'Smock'
p5796
S'Brian'
p5797
tp5798
I1453
s(S'Harris'
p5799
S'Michael'
p5800
tp5801
I460
s(S'Sharp'
p5802
S'Tommy'
p5803
tp5804
I1986
s(S'Blackburn'
p5805
S'Brooks'
p5806
tp5807
I2015
s(S'Bekker'
p5808
S'Oliver'
p5809
tp5810
I1573
s(S'Hocknull'
p5811
S'Craig'
p5812
tp5813
I2001
s(S'McGowan'
p5814
S'Ross'
p5815
tp5816
I1379
s(S'Lingmerth'
p5817
S'David'
p5818
tp5819
I1667
s(S'von Hoffmann'
p5820
S'David'
p5821
tp5822
I1717
s(S'Curl'
p5823
S'Jeff'
p5824
tp5825
I1563
s(S'Sadakata'
p5826
S'Akio'
p5827
tp5828
I490
s(S'Pratt'
p5829
S'Andrew'
p5830
tp5831
I907
s(S'Choi'
p5832
S'Andy'
p5833
tp5834
I1161
s(S'Johnson'
p5835
S'Rob'
p5836
tp5837
I447
s(S'Rodgers'
p5838
S'Patrick'
p5839
tp5840
I1617
s(S'Poole'
p5841
S'Stephen'
p5842
tp5843
I1243
s(S'Hadley'
p5844
S'Brian'
p5845
tp5846
I1136
s(S'Dottley'
p5847
S'Will'
p5848
tp5849
I1032
s(S'Pettersson'
p5850
S'Carl'
p5851
tp5852
I474
s(S'Kelley'
p5853
S'Ken'
p5854
tp5855
I573
s(S'Weinhart'
p5856
S'Tim'
p5857
tp5858
I293
s(S'Horsey'
p5859
S'David'
p5860
tp5861
I1383
s(S'Constable'
p5862
S'Donald'
p5863
tp5864
I1679
s(S'Streb'
p5865
S'Robert'
p5866
tp5867
I1668
s(S'Immelman'
p5868
S'Trevor'
p5869
tp5870
I390
s(S'Richardson'
p5871
S'Clark'
p5872
tp5873
I1515
s(S'Brehm'
p5874
S'Ryan'
p5875
tp5876
I916
s(S'Reilly'
p5877
S'Mike'
p5878
tp5879
I536
s(S'Iredell'
p5880
S'Tom'
p5881
tp5882
I850
s(S'King'
p5883
S'Kevin'
p5884
tp5885
I1082
s(S'Griffin'
p5886
S'Matthew'
p5887
tp5888
I2025
s(S'Webster'
p5889
S'Steve'
p5890
tp5891
I1184
s(S'Chalmers'
p5892
S'Greg'
p5893
tp5894
I342
s(S'Johnson'
p5895
S'Jamie'
p5896
tp5897
I1050
s(S'Gump'
p5898
S'Scott'
p5899
tp5900
I783
s(S'Trimble'
p5901
S'Blake'
p5902
tp5903
I1404
s(S'Wood'
p5904
S'Chris'
p5905
tp5906
I1356
s(S'Potter'
p5907
S'Zechariah'
p5908
tp5909
I1843
s(S'Watkins'
p5910
S'Aaron'
p5911
tp5912
I898
s(S'Haeggman'
p5913
S'Joakim'
p5914
tp5915
I620
s(S'Morikawa'
p5916
S'Collin'
p5917
tp5918
I2040
s(S'Camplin'
p5919
S'Todd'
p5920
tp5921
I1507
s(S'Mills'
p5922
S'Jon'
p5923
tp5924
I492
s(S'Senecal'
p5925
S'Kevin'
p5926
tp5927
I1104
s(S'Rose'
p5928
S'Clarence'
p5929
tp5930
I777
s(S'McNabb'
p5931
S'David'
p5932
tp5933
I1764
s(S'Osborn'
p5934
S'Payton'
p5935
tp5936
I1131
s(S'Moran'
p5937
S'Scott'
p5938
tp5939
I1388
s(S'Carter'
p5940
S'Pat'
p5941
tp5942
I1642
s(S'Hatalsky'
p5943
S'Morris'
p5944
tp5945
I1534
s(g3697
S'Daryl'
p5946
tp5947
I1174
s(S'Bohn'
p5948
S'Jason'
p5949
tp5950
I683
s(S'Del Vecchio'
p5951
S'Paul'
p5952
tp5953
I909
s(S'Matteson'
p5954
S'Troy'
p5955
tp5956
I534
s(S'Kase'
p5957
S'Hideki'
p5958
tp5959
I794
s(S'Twitty'
p5960
S'Howard'
p5961
tp5962
I147
s(S'Zarlengo'
p5963
S'Rick'
p5964
tp5965
I533
s(S'Miller'
p5966
S'Zack'
p5967
tp5968
I1316
s(S'Kamin'
p5969
S'Chris'
p5970
tp5971
I841
s(S'Wood'
p5972
S'Willie'
p5973
tp5974
I158
s(S'Marrello'
p5975
S'Fran'
p5976
tp5977
I936
s(S'DeVoll'
p5978
S'Casey'
p5979
tp5980
I1541
s(S'Henderson'
p5981
S'Mike'
p5982
tp5983
I689
s(S'Gillespie'
p5984
S'Derek'
p5985
tp5986
I470
s(S'Tway'
p5987
S'Bob'
p5988
tp5989
I145
s(S'Mitchell'
p5990
S'Daniel'
p5991
tp5992
I1387
s(S'Mason'
p5993
S'Nick'
p5994
tp5995
I1409
s(S'Wilson'
p5996
S'Steve'
p5997
tp5998
I1190
s(S'Smith'
p5999
S'Brandon'
p6000
tp6001
I1505
s(S'Weston'
p6002
S'Wes'
p6003
tp6004
I1266
s(S'Ming'
p6005
S'Chris'
p6006
tp6007
I845
s(S'Roth'
p6008
S'Jeff'
p6009
tp6010
I198
s(S'Rogers'
p6011
S'Jamie'
p6012
tp6013
I693
s(S'Gronberg'
p6014
S'Mathias'
p6015
tp6016
I324
s(S'Henderson'
p6017
S'Michael'
p6018
tp6019
I953
s(S'Larsson'
p6020
S'Dean'
p6021
tp6022
I812
s(S'Branshaw'
p6023
S'David'
p6024
tp6025
I648
s(S'Daley'
p6026
S'Joe'
p6027
tp6028
I1094
s(S'Elliott'
p6029
S'Bobby'
p6030
tp6031
I955
s(S'McGinley'
p6032
S'Paul'
p6033
tp6034
I275
s(S'Esler'
p6035
S'Josh'
p6036
tp6037
I1252
s(S'Van Horn'
p6038
S'Craig'
p6039
tp6040
I820
s(S'Woodson'
p6041
S'Jay'
p6042
tp6043
I1212
s(S'Hultman'
p6044
S'Anders'
p6045
tp6046
I843
s(S'Killpack'
p6047
S'Nick'
p6048
tp6049
I1932
s(S'Carr'
p6050
S'David'
p6051
tp6052
I1716
s(S'Paulson'
p6053
S'Carl'
p6054
tp6055
I313
s(S'Fujimoto'
p6056
S'Yoshinori'
p6057
tp6058
I1568
s(S'Demsey'
p6059
S'Todd'
p6060
tp6061
I1088
s(S'Springer'
p6062
S'Hayden'
p6063
tp6064
I1981
s(S'Lee'
p6065
S'Beon Yeong'
p6066
tp6067
I1438
s(S'Sisk'
p6068
S'Geoffrey'
p6069
tp6070
I590
s(S'Coceres'
p6071
S'Roberto'
p6072
tp6073
I863
s(S'Bisbee'
p6074
S'Jeff'
p6075
tp6076
I912
s(S'Cheesman'
p6077
S'Barry'
p6078
tp6079
I26
s(S'Manning'
p6080
S'Eric'
p6081
tp6082
I784
s(S'Smith'
p6083
S'Michael'
p6084
tp6085
I1154
s(S'Puska'
p6086
S'Jeff'
p6087
tp6088
I1381
s(S'Lowe'
p6089
S'Cortland'
p6090
tp6091
I1329
s(S'Cochran'
p6092
S'Bobby'
p6093
tp6094
I298
s(S'Rinker'
p6095
S'Lee'
p6096
tp6097
I120
s(S'Rutledge'
p6098
S'Jim'
p6099
tp6100
I124
s(S'Lundstrom'
p6101
S'David'
p6102
tp6103
I84
s(S'Compton'
p6104
S'Erik'
p6105
tp6106
I451
s(S'McLean'
p6107
S'Alan'
p6108
tp6109
I958
s(S'Beem'
p6110
S'Rich'
p6111
tp6112
I427
s(g5229
S'Andrew'
p6113
tp6114
I435
s(S'Miller'
p6115
S'Mark'
p6116
tp6117
I307
s(S'Stal'
p6118
S'Gary'
p6119
tp6120
I1817
s(S'Garcia'
p6121
S'Sergio'
p6122
tp6123
I365
s(S'Langley'
p6124
S'Scott'
p6125
tp6126
I1497
s(S'Bogle'
p6127
S'Scott'
p6128
tp6129
I558
s(S'Painter'
p6130
S'Anthony'
p6131
tp6132
I337
s(S'Hamilton'
p6133
S'Alex'
p6134
tp6135
I1398
s(S'Coletta'
p6136
S'Brett'
p6137
tp6138
I2005
s(S'Hoge'
p6139
S'Tom'
p6140
tp6141
I1519
s(S'Manassero'
p6142
S'Matteo'
p6143
tp6144
I1486
s(S'McMillan'
p6145
S'Rob'
p6146
tp6147
I309
s(S'McGreal'
p6148
S'Simon'
p6149
tp6150
I1304
s(S'Simonsen'
p6151
S'Henrik'
p6152
tp6153
I793
s(S'Van Pelt'
p6154
S'Bo'
p6155
tp6156
I675
s(S'Coles'
p6157
S'Gavin'
p6158
tp6159
I345
s(S'Stallings'
p6160
S'Scott'
p6161
tp6162
I1470
s(S'Lee'
p6163
S'Danny'
p6164
tp6165
I1223
s(S'Scherrer'
p6166
S'Tom'
p6167
tp6168
I255
s(S'Day'
p6169
S'Kelvin'
p6170
tp6171
I1835
s(S'Cotner'
p6172
S'Keoke'
p6173
tp6174
I1275
s(S'Dean'
p6175
S'Geoffrey'
p6176
tp6177
I719
s(S'Van Zyl'
p6178
S'Jaco'
p6179
tp6180
I1112
s(S'Gainey'
p6181
S'Tommy'
p6182
tp6183
I1159
s(S'Watson'
p6184
S'Derek'
p6185
tp6186
I1026
s(S'Howison'
p6187
S'Ryan'
p6188
tp6189
I1090
s(S'Stamey'
p6190
S'Nathan'
p6191
tp6192
I1487
s(S'Norlander'
p6193
S'Henrik'
p6194
tp6195
I1646
s(S'Damron'
p6196
S'Patrick'
p6197
tp6198
I540
s(S'Kanada'
p6199
S'Craig'
p6200
tp6201
I214
s(S'Shin'
p6202
S'Justin'
p6203
tp6204
I1854
s(S'Smith'
p6205
S'Jesse'
p6206
tp6207
I1654
s(S'Downes'
p6208
S'Billy'
p6209
tp6210
I2060
s(S'Clark'
p6211
S'Tim'
p6212
tp6213
I414
s(S'Scott'
p6214
S'Steve'
p6215
tp6216
I644
s(S'Cashell'
p6217
S'Scott'
p6218
tp6219
I1345
s(S'Sterling'
p6220
S'Scott'
p6221
tp6222
I942
s(S'Hoch'
p6223
S'Scott'
p6224
tp6225
I68
s(S'Conners'
p6226
S'Corey'
p6227
tp6228
I1700
s(S'Ihm'
p6229
S'Steven'
p6230
tp6231
I1697
s(S'Howser'
p6232
S'David'
p6233
tp6234
I299
s(S'Choi'
p6235
S'K.J.'
p6236
tp6237
I445
s(S'Niemann'
p6238
S'Joaquin'
p6239
tp6240
I2063
s(S'Vegas'
p6241
S'Jhonattan'
p6242
tp6243
I529
s(S'Chestnut'
p6244
S'Jimmy'
p6245
tp6246
I914
s(S'Love'
p6247
S'Sam'
p6248
tp6249
I1785
s(S'Woods'
p6250
S'Tiger'
p6251
tp6252
I240
s(S'Knapp'
p6253
S'Jake'
p6254
tp6255
I1879
s(S'Jamieson'
p6256
S'Scott'
p6257
tp6258
I1650
s(S'Cevaer'
p6259
S'Christian'
p6260
tp6261
I1274
s(S'Geiberger'
p6262
S'Brent'
p6263
tp6264
I279
s(S'Saunders'
p6265
S'Sam'
p6266
tp6267
I1042
s(S'Abbott'
p6268
S'Scott'
p6269
tp6270
I1137
s(S'Cornellier'
p6271
S'Jean-Philip'
p6272
tp6273
I1858
s(S'McNeill'
p6274
S'George'
p6275
tp6276
I449
s(S'Kimbell'
p6277
S'John'
p6278
tp6279
I1639
s(S'Yang'
p6280
S'Y.E.'
p6281
tp6282
I684
s(S'Brown'
p6283
S'Christopher'
p6284
tp6285
I1423
s(S'Doell'
p6286
S'Craig'
p6287
tp6288
I761
s(S'Goya'
p6289
S'Tano'
p6290
tp6291
I1729
s(S'Austin'
p6292
S'Mike'
p6293
tp6294
I585
s(S'Pesta'
p6295
S'Matt'
p6296
tp6297
I1742
s(S'Hutsell'
p6298
S'David'
p6299
tp6300
I1548
s(S'Freeman'
p6301
S'Jeff'
p6302
tp6303
I1450
s(S'Petrovic'
p6304
S'Tim'
p6305
tp6306
I112
s(S'Jacobs'
p6307
S'Hal'
p6308
tp6309
I1043
s(S'Rangel'
p6310
S'Jeff'
p6311
tp6312
I1527
s.