(dp0
I8193
S'Weir, Ben'
p1
sI40099
S'Mullen, Jimmy'
p2
sI32775
S'Imahira, Shugo'
p3
sI24586
S'Barham, Benn'
p4
sI8215
S'Schneiter, Steve'
p5
sI24604
S'Haas, Hunter'
p6
sI32800
S'Corpening, Franklin'
p7
sI24610
S'Deane, Stuart'
p8
sI49191
S'Cooper, Cory'
p9
sI24617
S'Gomez, Rafael'
p10
sI36871
S'NeSmith, Matthew'
p11
sI51890
S'Sigg, Greyson'
p12
sI32815
S'Kawamura, Masahiro'
p13
sI32816
S'Kodaira, Satoshi'
p14
sI34142
S'Ring, Willis'
p15
sI32831
S'Goldberg, Aaron'
p16
sI32838
S'Kohn, Matthew'
p17
sI32839
S'Matsuyama, Hideki'
p18
sI24663
S'Yang, Y.E.'
p19
sI6004
S'Ames, Stephen'
p20
sI24671
S'Bradshaw, David S.'
p21
sI35515
S'Maurer, Brian'
p22
sI32868
S'Brown, Brandon'
p23
sI32871
S'Duncan, Brian'
p24
sI22917
S'Reader, Jeff'
p25
sI35516
S'Hinton, Craig'
p26
sI32874
S'Justesen, Erick'
p27
sI32876
S'Piller, Martin'
p28
sI32878
S'Jeong, Jin'
p29
sI32881
S'Le\xf3n, Hugo'
p30
sI36883
S'Reeves, Zack'
p31
sI35518
S'McGuirk, Francis'
p32
sI32888
S'Lee, Lucas'
p33
sI36885
S'Couture, Rob'
p34
sI35520
S'Wootton, Adam'
p35
sI32791
S'Lee, Kyoung-Hoon'
p36
sI8337
S'Heinen, Mike'
p37
sI49298
S'Hickok, Kramer'
p38
sI8339
S'McRoy, Spike'
p39
sI24725
S'Finch, Richard'
p40
sI24727
S'Hutsell, David'
p41
sI24730
S'Jamerson, Faber'
p42
sI49314
S'Lu, Shawn'
p43
sI24742
S'Smith, Bruce'
p44
sI24748
S'Liang, WC'
p45
sI8375
S'Stankowski, Paul'
p46
sI32960
S'Cabrera, Jr., Angel F.'
p47
sI8385
S'Uresti, Omar'
p48
sI24773
S'Whitehouse, Tom'
p49
sI24781
S'Mahan, Hunter'
p50
sI8463
S'Smith, Anthony'
p51
sI24786
S'Burns, Jeff'
p52
sI32979
S'Blaauw, Jacques'
p53
sI32982
S'Covello, Vince'
p54
sI46458
S'Dorn, Andrew'
p55
sI8419
S'Kelly, Shawn'
p56
sI24804
S'Frank, Garrett'
p57
sI24808
S'Shields, Kevin'
p58
sI47527
S'Dominguez, Matias'
p59
sI25982
S'Griffiths, Simon'
p60
sI33015
S'Chan, Lorens'
p61
sI33016
S'Anderson, Josh'
p62
sI27348
S'Floren, Oscar'
p63
sI49403
S'Brame Jr., Grady'
p64
sI33020
S'Lloyd, Darryn'
p65
sI35541
S'Peterson, John'
p66
sI49413
S'Bullington, Brian'
p67
sI24840
S'Dobbs, Kyle'
p68
sI49421
S'Gabriel, Tye'
p69
sI24846
S'Barnes, Ricky'
p70
sI24847
S'Harris, Michael'
p71
sI8465
S'Sanchez, Javier'
p72
sI33046
S'Lowe, Cortland'
p73
sI33047
S'Main, Gregor'
p74
sI8473
S'Bland, Rich'
p75
sI33052
S'Azcue, Mauricio'
p76
sI33053
S'Johnson, Vincent'
p77
sI24865
S'Cable, GW'
p78
sI24866
S'Broce, Jamie'
p79
sI24875
S'Tims, Tim'
p80
sI24876
S'Gealy, Elliot'
p81
sI24878
S'Parra, Chris'
p82
sI51933
S'Russell, Casey'
p83
sI33077
S'McLoughlin, Eamonn'
p84
sI50570
S'Cooke, Alan'
p85
sI33102
S'Roets, Jason'
p86
sI24912
S'MacKenzie, Will'
p87
sI35409
S'Hocknull, Craig'
p88
sI33107
S'Arnaud, Michael'
p89
sI33108
S'Kittleson, Drew'
p90
sI33109
S'Newman, Jack'
p91
sI33110
S'Smith, Michael'
p92
sI8535
S'Nicklaus, Gary'
p93
sI8537
S'Hayes, J.P.'
p94
sI24922
S'Habig, Josh'
p95
sI33115
S'Choi, Jinho'
p96
sI24924
S'Haas, Bill'
p97
sI24925
S'Byrd, Jonathan'
p98
sI33120
S'Anderson, Mark'
p99
sI8545
S'Hnatiuk, Glen'
p100
sI24930
S'Sanders, Curt'
p101
sI8547
S'Maginnes, John'
p102
sI24940
S'Loar, Edward'
p103
sI8563
S'Vaughan, Bruce'
p104
sI33140
S'Hamilton, Alex'
p105
sI33141
S'Bradley, Keegan'
p106
sI24956
S'Ilonen, Mikko'
p107
sI24957
S'Khan, Simon'
p108
sI24964
S'Vermeer, Ryan'
p109
sI33157
S'Davila, Guillermo'
p110
sI33168
S"O'Neal, Michael"
p111
sI33169
S'Paylor, Elliott'
p112
sI24980
S'Gutschewski, Scott'
p113
sI33173
S'Serna, Jr., Efren'
p114
sI24985
S'Schauman, Wilhelm'
p115
sI24989
S'McDougall, Matt'
p116
sI24992
S'Elliott, Jamie'
p117
sI49575
S'Bard, Derek'
p118
sI49576
S'Chaplet, Paul'
p119
sI25005
S'Walker, Mark'
p120
sI33199
S'Manassero, Matteo'
p121
sI33204
S'Lowry, Shane'
p122
sI49590
S'Capan, Frankie'
p123
sI8633
S'Johansson, Per-Ulrik'
p124
sI8635
S'Montgomerie, Colin'
p125
sI25031
S'Miller, Andy'
p126
sI25034
S'McLean, James H.'
p127
sI33227
S'Ryu, Hyun-woo'
p128
sI10381
S'Thompson, Curtis'
p129
sI25041
S'Rose, Todd'
p130
sI25044
S'Henderson, Mike'
p131
sI25045
S'Ruiz, Mike'
p132
sI29476
S'Reifers, Kyle'
p133
sI33241
S'Stamey, Nathan'
p134
sI25052
S'Gillespie, Derek'
p135
sI51962
S'Ramey, Kyle'
p136
sI25056
S'Levesque, Dave'
p137
sI49633
S'Danielson, Charlie'
p138
sI25074
S'Rominger, Martin'
p139
sI35582
S'Broberg, Kristoffer'
p140
sI25083
S'Anderson, Jeremy'
p141
sI33293
S'Pieters, Thomas'
p142
sI25108
S'Deason, Chip'
p143
sI8725
S'Gillis, Tom'
p144
sI25114
S'Meichtry, Eric'
p145
sI51975
S'Cabra, Zach'
p146
sI27024
S'Wright, Michael'
p147
sI49743
S'Kelly, Sean'
p148
sI36963
S'Barron, Derek'
p149
sI49752
S'Jordan, Austin'
p150
sI8793
S'Woods, Tiger'
p151
sI49758
S'Monagle, Colin'
p152
sI45157
S'Davis, Cameron'
p153
sI25190
S'Quinney, Jeff'
p154
sI25191
S'Fdez-Casta\xf1o, Gonzalo'
p155
sI39301
S'Bova, Matt'
p156
sI49771
S'Poston, J.T.'
p157
sI49773
S'Koepka, Chase'
p158
sI25198
S'Molinari, Francesco'
p159
sI25203
S'Chawrasia, SSP'
p160
sI8823
S'Bailey, Cliff'
p161
sI33404
S'Baker, Chris'
p162
sI33407
S'Garland, Rob'
p163
sI33408
S'Alexander, Tyson'
p164
sI8833
S'Sanders, Derek'
p165
sI33410
S'Landry, Andrew'
p166
sI8835
S'Cox, Kris'
p167
sI33412
S'Klaasen, Clark'
p168
sI33413
S'Martin, Ben'
p169
sI33414
S'Nagy, Matt'
p170
sI33415
S'Peterman, Kyle'
p171
sI33416
S'Snyder, Vaughn'
p172
sI33417
S'Spears, Ryan'
p173
sI33418
S'Stefani, Shawn'
p174
sI33419
S'Tringale, Cameron'
p175
sI8845
S'Sterling, Scott'
p176
sI33422
S'Lewis, Scott'
p177
sI36973
S'Stow, Ben'
p178
sI25234
S'Knutzon, Jason'
p179
sI25237
S'Muncrief, Kevin'
p180
sI25240
S'Points, D.A.'
p181
sI33433
S'Surry, Steve'
p182
sI25242
S'Rogers, Jamie'
p183
sI49826
S'Dalke, Brad'
p184
sI33444
S'Erdy, David'
p185
sI33445
S'Wilkes-Krier, Patrick'
p186
sI28785
S'Francis, Philip'
p187
sI33448
S'Thomas, Justin'
p188
sI33449
S'Sucher, Zack'
p189
sI33450
S'Van Sickle, Mike'
p190
sI33451
S'Hill, Matt'
p191
sI25264
S'Keenan, Ian'
p192
sI8881
S'Isenhour, Tripp'
p193
sI33461
S'Hoffmann, Morgan'
p194
sI33463
S'Krueger, Aaron'
p195
sI33464
S'Wax, Danny'
p196
sI25273
S'Buckle, Andrew'
p197
sI25274
S'Bowditch, Steven'
p198
sI33467
S'Evanecz, Mitch'
p199
sI39394
S'Holland, Charlie'
p200
sI33471
S'Brodell, Brian'
p201
sI36982
S'Sarnoff, Jake'
p202
sI25289
S'Jeffress, Steven'
p203
sI25290
S'Barnes, Kurt'
p204
sI25293
S'Bingham, Brett'
p205
sI33486
S'Sloan, Roger'
p206
sI33490
S'Hoag, Bo'
p207
sI33492
S'German, Kyle'
p208
sI20601
S'Orr, Gary'
p209
sI33498
S'Kearney, Thomas'
p210
sI34255
S'Bramlett, Joseph'
p211
sI49884
S'Blick, Cody'
p212
sI34395
S'Ross, Christopher'
p213
sI8931
S'Day, Glen'
p214
sI25321
S'Slattery, Lee'
p215
sI33520
S'Hutchison, Randall'
p216
sI33521
S'Cashell, Scott'
p217
sI25330
S'Bohn, Douglas'
p218
sI8947
S'Stanley, Jon'
p219
sI25336
S'Presnell, Alistair'
p220
sI33536
S'Lewis, Randal'
p221
sI25345
S'Pettersson, Carl'
p222
sI25349
S'Wilkinson, Tim'
p223
sI33543
S'Dicciani, Keith'
p224
sI33544
S'Sheftic, Mark'
p225
sI33545
S'Sturgeon, Grant'
p226
sI34263
S'Martin, Alex'
p227
sI49932
S'Garrick, Jonathan'
p228
sI25364
S'Casey, Paul'
p229
sI33561
S'LaBarge, Parker'
p230
sI49947
S'Moore, Taylor'
p231
sI25373
S'Lippert, Eric'
p232
sI8993
S'Langham, Franklin'
p233
sI49954
S'Raber, Tyler'
p234
sI33578
S'Greenwell, Robbie'
p235
sI49964
S'Wise, Aaron'
p236
sI9011
S'Duval, David'
p237
sI25396
S'Na, Kevin'
p238
sI25398
S'Oda, Ryuichi'
p239
sI33592
S'Pope, Andy'
p240
sI9019
S'Wolstenholme, Gary'
p241
sI51038
S'Plant, Alfie'
p242
sI33606
S'Chuayprako, Thitiphan'
p243
sI28670
S'Lee, Won Joon'
p244
sI25431
S'Labritz, Rob'
p245
sI50012
S'Worthington II, Wyatt'
p246
sI25437
S'Vargas, James'
p247
sI25441
S'Park, Unho'
p248
sI25444
S'Hicks, Justin'
p249
sI34278
S'Bierkan, John'
p250
sI25449
S'Peters, Justin'
p251
sI25450
S'Tryon, Ty'
p252
sI9067
S'Isley, Steve'
p253
sI25454
S'Quiroz, Alex'
p254
sI25457
S'Rocha, Alexandre'
p255
sI25459
S'Capone, Mike'
p256
sI25461
S'Walker, Sam'
p257
sI25469
S'Atkinson, Lewis'
p258
sI33667
S'Ortiz, Carlos'
p259
sI25478
S'Miyazato, Kiyoshi'
p260
sI49303
S'Albertson, Anders'
p261
sI33680
S'Markle, David'
p262
sI25493
S'Taylor, Nick'
p263
sI31558
S'Killeen, J.J.'
p264
sI36311
S'Gardner, Tom'
p265
sI25514
S'Healey, James'
p266
sI50092
S'Wright, Zach'
p267
sI50095
S'Smotherman, Austin'
p268
sI25522
S'Whiffin, Sean'
p269
sI12447
S'English, Sean'
p270
sI25534
S'Carranza, Clodomiro'
p271
sI25537
S'Coceres, Roberto'
p272
sI25539
S'Echenique, Rafael'
p273
sI25541
S'Hale, Damian'
p274
sI45860
S'Cochran, Case'
p275
sI25562
S'Romero, Andres'
p276
sI25572
S'McDowell, Graeme'
p277
sI1001
S'Aaron, Tommy'
p278
sI1003
S'Ackerman, Bob'
p279
sI1005
S'Adams, Adam'
p280
sI1006
S'Adams, John'
p281
sI25583
S'Kullberg, Mike'
p282
sI25586
S'Taniguchi, Takuya'
p283
sI33780
S'Cullen, Nick'
p284
sI1014
S'Allem, Fulton'
p285
sI25594
S'Perkins, Travis'
p286
sI33788
S'Trimble, Blake D.'
p287
sI1024
S'Andrade, Billy'
p288
sI33800
S'Harto, Andreas'
p289
sI1035
S'Armour III, Tommy'
p290
sI1039
S'Arthur, Perry'
p291
sI25617
S'Worley, Jr., Carl'
p292
sI1042
S'Azinger, Paul'
p293
sI30211
S'Jarosch, Barrett'
p294
sI31577
S'Goya, Tano'
p295
sI1049
S'Baker-Finch, Ian'
p296
sI33818
S'Snedeker, Haymes'
p297
sI1051
S'Ballesteros, Seve'
p298
sI25629
S'Paquet, Brett'
p299
sI25632
S'Walker, Jimmy'
p300
sI25633
S'Touma, Ricky'
p301
sI1063
S'Bates, Ben'
p302
sI1068
S'Bean, Andy'
p303
sI33838
S'Tomimura, Shinji'
p304
sI33839
S'Gatto, CJ'
p305
sI25648
S'Cobb, Brandon'
p306
sI25649
S'Bradford, George'
p307
sI25653
S'Tsukada, Yoshinobu'
p308
sI1078
S'Benepe, Jim'
p309
sI25661
S'Parry, Bryn'
p310
sI1086
S'Biancalana, Roy'
p311
sI1092
S'Black, Mark'
p312
sI1093
S'Black, Ronnie'
p313
sI1095
S'Blackburn, Woody'
p314
sI1096
S'Blackmar, Phil'
p315
sI1098
S'Blake, Jay Don'
p316
sI33869
S'Meierdierks, Eric'
p317
sI33870
S'Wu, Ashun'
p318
sI25679
S'Staten, B.J.'
p319
sI7011
S'Kaufman, Chris'
p320
sI25686
S'Dufner, Jason'
p321
sI1114
S'Boyd, Bob'
p322
sI25692
S'Sadakata, Akio'
p323
sI7013
S'Short, Jr., Wes'
p324
sI29225
S'Ogden, Clay'
p325
sI1127
S'Briggs, Danny'
p326
sI1129
S'Britton, Bill'
p327
sI1132
S'Brooks, Mark'
p328
sI33904
S'Leaver, Grant'
p329
sI33905
S'Peffley, Blaine'
p330
sI1139
S'Browne, Olin'
p331
sI1142
S'Bryant, Bart'
p332
sI1143
S'Bryant, Brad'
p333
sI25720
S'Collins, Chad'
p334
sI25722
S'Link IV, William'
p335
sI1150
S'Burns, George'
p336
sI1155
S'Byman, Bob'
p337
sI25732
S'Ho, S.K.'
p338
sI1157
S'Byrum, Tom'
p339
sI25734
S'Moriarty, Colm'
p340
sI33927
S'Macpherson, Bryden'
p341
sI1161
S'Calcavecchia, Mark'
p342
sI1162
S'Caldwell, Rex'
p343
sI33931
S'Georgiou, Andrew'
p344
sI25741
S'Gilliam, Nick'
p345
sI33935
S'Kua, T.J.'
p346
sI33936
S'Wiebe, Gunner'
p347
sI25745
S'Peck, Brad'
p348
sI33941
S'Mason, Nick'
p349
sI1175
S'Carter, Jim'
p350
sI25752
S'Friesen, Steve'
p351
sI33947
S'Wooding, Joshua'
p352
sI33948
S'An, Byeong Hun'
p353
sI33951
S'Santos, Julio'
p354
sI33952
S'Morales, Erick'
p355
sI1185
S'Chamblee, Brandel'
p356
sI25762
S'Colligan, Dennis'
p357
sI33956
S'Templeton, Jeff'
p358
sI1191
S'Cheesman, Barry'
p359
sI25768
S'Lam, Chih-Bing'
p360
sI1196
S'Claar, Brian'
p361
sI1197
S'Clampett, Bobby'
p362
sI1200
S'Clearwater, Keith'
p363
sI1203
S'Cochran, Russ'
p364
sI1206
S'Cole, Bobby'
p365
sI47989
S'Horsfield, Sam'
p366
sI1219
S'Cook, John'
p367
sI25799
S'Lemke, Niklas'
p368
sI1224
S'Coston, Jeff'
p369
sI1226
S'Couples, Fred'
p370
sI25803
S'Ping, David'
p371
sI25804
S'Watson, Bubba'
p372
sI25808
S'Northern, Mike'
p373
sI25810
S'Wightman, Paul'
p374
sI1235
S'Crenshaw, Ben'
p375
sI34006
S'Marquez, Braxton'
p376
sI47993
S'McCarthy, Denny'
p377
sI25816
S'Durkin, Kevin'
p378
sI1241
S'Curiel, Scott'
p379
sI25818
S'Piercy, Scott'
p380
sI25823
S'Madison, Brian'
p381
sI1249
S'Daly, John'
p382
sI34021
S'Cauley, Bud'
p383
sI34023
S'Benjamin, Brad'
p384
sI25834
S'Summerhays, Daniel'
p385
sI25836
S'Hume, Barry'
p386
sI1261
S'Delsing, Jay'
p387
sI25841
S'Warren, Marc'
p388
sI25842
S'Mills, Jon'
p389
sI25847
S'Rashell, Rob'
p390
sI34046
S'Spieth, Jordan'
p391
sI34047
S'Little II, John C.'
p392
sI1282
S'Dodds, Trevor'
p393
sI1283
S'Doig, Ian'
p394
sI1284
S'Donald, Mike'
p395
sI25861
S'Nelson, Ryan'
p396
sI25863
S'Perry, Rod'
p397
sI1288
S'Dougherty, Ed'
p398
sI25867
S'Burns, Steve'
p399
sI34064
S'Imondi, Paul'
p400
sI34072
S'Strickler, Will'
p401
sI34073
S'Honeck, Creighton'
p402
sI1306
S'Edwards, David'
p403
sI1307
S'Edwards, Joel'
p404
sI34076
S'Dahmen, Joel'
p405
sI1310
S'Eichelberger, Dave'
p406
sI1313
S'Elkington, Steve'
p407
sI25892
S'Wheatcroft, Steve'
p408
sI25893
S'Woodard, Stephen'
p409
sI34087
S'Sainz Jr, Carlos'
p410
sI1320
S'Estes, Bob'
p411
sI1323
S'Fabel, Brad'
p412
sI25900
S'Glover, Lucas'
p413
sI1326
S'Faldo, Nick'
p414
sI34096
S'Fast, Matt'
p415
sI1329
S'Faxon, Brad'
p416
sI34098
S'Henley, Russell'
p417
sI1331
S'Fehr, Rick'
p418
sI50484
S'Springer, Hayden'
p419
sI25909
S'Wolf, Erik'
p420
sI1334
S'Fergus, Keith'
p421
sI50488
S'Crawford, Chris'
p422
sI50489
S'Mueller, Kyle'
p423
sI50490
S'Parker, Chase'
p424
sI50491
S'Schembechler II, Richie'
p425
sI50492
S'Stachler, Ryan'
p426
sI50493
S'Suh, Justin'
p427
sI25919
S'Vranesh, Brian'
p428
sI25920
S'Perez, Mike'
p429
sI1346
S'Fiori, Ed'
p430
sI25923
S'Heyn, Scott'
p431
sI1355
S'Floyd, Raymond'
p432
sI1358
S'Ford, Bob'
p433
sI25935
S'Engler, Jr., John'
p434
sI25936
S'Aragon, Alex'
p435
sI1361
S'Forsman, Dan'
p436
sI34130
S'Park, Sung Joon'
p437
sI25939
S'Cassini, Nick'
p438
sI1364
S'Fowler, Peter'
p439
sI34133
S'Tsukada, Yosuke'
p440
sI34136
S'Favela, Armando'
p441
sI50523
S'Otis, Ray'
p442
sI25948
S'McEvoy, Richard'
p443
sI50525
S'Morikawa, Collin'
p444
sI1374
S'Freeman, Robin'
p445
sI50527
S'du Toit, Jared'
p446
sI1376
S'Friend, Bob'
p447
sI1378
S'Frost, David'
p448
sI1381
S'Funk, Fred'
p449
sI25960
S'Owen, Kyle'
p450
sI1385
S'Gallagher, Jr., Jim'
p451
sI1388
S'Gamez, Robert'
p452
sI35235
S'Renfro, Danny'
p453
sI11155
S'Tomori, Katsuyoshi'
p454
sI25972
S'Martin Benavides, Pablo'
p455
sI34167
S'Garcia, Jorge'
p456
sI34168
S'Lee, Soomin'
p457
sI1405
S'Giancola, Kevin'
p458
sI34174
S'Huh, John'
p459
sI1408
S'Gibson, Kelly'
p460
sI34185
S'Geminiani, Domenico'
p461
sI1418
S'Glasson, Bill'
p462
sI1419
S'Gleeton, Tom'
p463
sI34191
S'Williams, Gene'
p464
sI1425
S'Gonzalez, Ernie'
p465
sI34195
S'Brown, Christopher'
p466
sI50584
S'Syme, Connor'
p467
sI1435
S'Grady, Wayne'
p468
sI1444
S'Green, Ken'
p469
sI34213
S'Murray, Grayson'
p470
sI34214
S'Hutcherson, Bobby'
p471
sI1457
S'Haas, Jay'
p472
sI1458
S'Haas, Jerry'
p473
sI1468
S'Hallberg, Gary'
p474
sI1469
S'Halldorson, Dan'
p475
sI1473
S'Hamilton, Todd'
p476
sI34242
S'Johnston, Andrew'
p477
sI1475
S'Hammond, Donnie'
p478
sI50629
S'Hodkinson, Adam'
p479
sI1478
S'Hanefeld, Kirk'
p480
sI1482
S'Harmon, Mike'
p481
sI34253
S'Trappel, Manuel'
p482
sI34254
S'Schultz, David'
p483
sI1487
S'Hart, Jeff'
p484
sI34256
S'Putnam, Andrew'
p485
sI34257
S'Preeo, Jason'
p486
sI34258
S'Phelan, Kevin'
p487
sI34259
S'Silvers, Mark'
p488
sI34260
S'Blakeman, Bennett'
p489
sI34261
S'Langley, Scott'
p490
sI34262
S'Curran, Jon'
p491
sI1495
S'Hatalsky, Morris'
p492
sI34264
S'Swafford, Hudson'
p493
sI34265
S'Wilcox, Willy'
p494
sI1499
S'Hayes, Mark'
p495
sI34277
S'Garza, Dustin'
p496
sI1510
S'Henke, Nolan'
p497
sI50666
S'Gilchrest, Matt'
p498
sI1522
S'Hinkle, Lon'
p499
sI34387
S'Balin, Daniel'
p500
sI1527
S'Hoch, Scott'
p501
sI34296
S'Homan, Wes'
p502
sI1533
S'Horgan III, P.H.'
p503
sI34305
S'Miernicki, Daniel'
p504
sI34306
S'Chin, John'
p505
sI34308
S'Crick, Brandon'
p506
sI34310
S'Bj\xf6rk, Alexander'
p507
sI34311
S'Karlsson, Jeff'
p508
sI34314
S'Cappelen, Sebastian'
p509
sI1547
S'Hughes, Reed'
p510
sI1549
S'Hulbert, Mike'
p511
sI1553
S'Huston, John'
p512
sI1554
S'Hutton, Brian'
p513
sI1555
S'Ingraham, Stu'
p514
sI1557
S'Inman, John'
p515
sI10963
S'Green, Jimmy'
p516
sI1559
S'Irwin, Hale'
p517
sI1560
S'Ishii, David'
p518
sI50717
S'Speight, Josh'
p519
sI50718
S'Sharp, Tommy'
p520
sI1569
S'Jacobsen, Peter'
p521
sI1571
S'Jaeckel, Barry'
p522
sI1577
S'Janzen, Lee'
p523
sI1582
S'Johnson, Chip'
p524
sI50735
S'Gregory, Scott'
p525
sI50737
g457
sI34357
S'Olson, Jeff'
p526
sI34358
S'Randolph, Jonathan'
p527
sI34359
S'Velasquez, Diego'
p528
sI34360
S'Reed, Patrick'
p529
sI34361
S'Abbott, Jamie'
p530
sI34362
S'Canter, Laurie'
p531
sI34363
S'Hatton, Tyrrell'
p532
sI1599
S'Jones, Steve'
p533
sI50757
S'Bernard, Hugo'
p534
sI1609
S'Kane, Jim'
p535
sI34382
S'Concha, Carlos'
p536
sI34383
S'Kesterson, Tanner'
p537
sI34384
S'Wong, Eugene'
p538
sI34385
S'Bunker, Dave'
p539
sI1618
S'Kelley, Ken'
p540
sI1619
S'Kendall, Skip'
p541
sI34388
S'Ohr, Keith'
p542
sI23481
S'Siem, Marcel'
p543
sI1624
S'Kestner, Darrell'
p544
sI33039
S'Schmuhl, Jason'
p545
sI34396
S'Lee, Beon Yeong'
p546
sI1633
S'Kite, Tom'
p547
sI1639
S'Knox, Kenny'
p548
sI34408
S'Bartlett, Jonathan'
p549
sI34409
S'Lingmerth, David'
p550
sI31677
S'Younan, Jake'
p551
sI34431
S'Streb, Robert'
p552
sI34432
S'Hall, Gavin'
p553
sI1666
S'Langer, Bernhard'
p554
sI1668
S'Lankford, Jeffrey'
p555
sI1672
S'Lawrence, Mike'
p556
sI34443
S'Dunbar, Alan'
p557
sI1677
S'Lehman, Tom'
p558
sI31599
S'Godoy, Maximiliano'
p559
sI34448
S'Gielow, Brendan'
p560
sI1682
S'Levi, Wayne'
p561
sI1684
S'Lewallen, Rick'
p562
sI1685
S'Lewis, J.L.'
p563
sI34459
S'Whitekiller, Trent'
p564
sI50844
S'McClintock, Ryan'
p565
sI34466
S'Malnati, Peter'
p566
sI1700
S'Loeffler, Bill'
p567
sI1701
S'Lohr, Bob'
p568
sI1706
S'Love III, Davis'
p569
sI1707
S'Lowery, Steve'
p570
sI26284
S'Holmes, Steve'
p571
sI34478
S'Richardson, Jr., Jerry'
p572
sI26287
S'Thatcher, Roland'
p573
sI26288
S'Walker, Andy'
p574
sI26289
S'Weekley, Boo'
p575
sI1717
S'Lyle, Sandy'
p576
sI1723
S'Magee, Andrew'
p577
sI26300
S'Jones, Matt'
p578
sI26301
S'Nitties, James'
p579
sI1727
S'Mahlberg, Scott'
p580
sI1736
S'Maltbie, Roger'
p581
sI1737
S'Maness, Mark'
p582
sI26314
S'Ota, Jonathan'
p583
sI26327
S'Lilly, Simon'
p584
sI26328
S'Norris, Shaun'
p585
sI26329
S'Oosthuizen, Louis'
p586
sI26331
S'Schwartzel, Charl'
p587
sI1756
S'Matsuo, Hiroshi'
p588
sI34525
S'Nagy, Corey'
p589
sI37157
S'Paratore, Renato'
p590
sI1761
S'Mattiace, Len'
p591
sI26341
S'Ormsby, Wade'
p592
sI1766
S'Mayfair, Billy'
p593
sI1768
S'Mazza, John'
p594
sI26345
S'Porter, Ewan'
p595
sI1771
S'McCallister, Blaine'
p596
sI27602
S'Townsend, Aaron'
p597
sI1783
S'McCumber, Mark'
p598
sI26360
S'Dickerson, Bubba'
p599
sI26362
S'McCann, Brian'
p600
sI26366
S'Gormley, Jim'
p601
sI26371
S'Oh, James'
p602
sI1796
S'McNulty, Mark'
p603
sI1797
S'Mediate, Rocco'
p604
sI26380
S'Parry, Steven'
p605
sI1810
S'Mickelson, Phil'
p606
sI34579
S'Levy, Alexander'
p607
sI1813
S'Miles, Mike'
p608
sI26392
S'Wilson, Chris'
p609
sI1817
S'Miller, Lindy'
p610
sI34587
S'Kim, Chan'
p611
sI10013
S'Patten, Zeb'
p612
sI1823
S'Mize, Larry'
p613
sI1825
S'Moe, Kris'
p614
sI10021
S'Personett, Loren'
p615
sI10027
S'Kuehne, Trip'
p616
sI34609
S'Wadkins, Travis'
p617
sI26418
S'Bland, Adam'
p618
sI34611
S'Palmer, Jason'
p619
sI26420
S'Johnson, Richard S.'
p620
sI10041
S'DeFrancesco, Wayne'
p621
sI10047
S'Cichra, Jim'
p622
sI26434
S'Lascuna, Antonio'
p623
sI26435
S'Que, Angelo'
p624
sI1864
S'Nelson, Larry'
p625
sI26444
S'Pagunsan, Juvic'
p626
sI1869
S'Nicklaus, Jack'
p627
sI34641
S'Cleland, Rocky'
p628
sI34642
S'Payne, Jordan'
p629
sI34643
S'Johnson, Michael'
p630
sI1876
S'Norman, Greg'
p631
sI1878
S'North, Andy'
p632
sI34650
S'Baldwin, Chase'
p633
sI1884
S"O'Grady, Mac"
p634
sI1886
S"O'Malley, Peter"
p635
sI1887
S"O'Meara, Mark"
p636
sI1891
S'Ogrin, David'
p637
sI39910
S'Carrigan, Kevin'
p638
sI34665
S"O'Mahony, Greg"
p639
sI34667
S'Marin, Chris'
p640
sI26476
S'Reavie, Chez'
p641
sI1901
S'Overton, Jay'
p642
sI26483
S'Sanders, Andy'
p643
sI26485
S'Cline, Kelsey'
p644
sI1910
S'Palmer, Arnold'
p645
sI26487
S'Joyner, Randy'
p646
sI26488
S'Crain, Andy'
p647
sI26489
S'Yancey, Cameron'
p648
sI10107
S'Pappas, Deane'
p649
sI26494
S'Schouller, Jr., Jim'
p650
sI1920
S'Parry, Craig'
p651
sI26497
S'Wittenberg, Casey'
p652
sI26498
S'Weibring, Matt'
p653
sI10115
S'Rosinia, Billy'
p654
sI26500
S'Canizares, Alejandro'
p655
sI10117
S'Heintz, Bob'
p656
sI1926
S'Pate, Steve'
p657
sI1927
S'Paulson, Dennis'
p658
sI1928
S'Pavin, Corey'
p659
sI34697
S'Cao, Yi'
p660
sI1933
S'Peddicord, Chris'
p661
sI34702
S'Olson, Eddie'
p662
sI27629
S'Cheetham, Jonathan'
p663
sI1938
S'Peoples, David'
p664
sI34707
S'Rahman, Siddikur'
p665
sI34708
S'Senior, Jack'
p666
sI1941
S'Pernice Jr., Tom'
p667
sI1943
S'Perry, Chris'
p668
sI1945
S'Perry, Kenny'
p669
sI1948
S'Petrovic, Tim'
p670
sI26525
S'Bourdy, Gr\xe9gory'
p671
sI26527
S'Gonnet, Jean Baptiste'
p672
sI26530
S'Schleicher, Troy'
p673
sI1955
S'Player, Gary'
p674
sI10149
S'Thomas, Craig'
p675
sI1958
S'Pohl, Dan'
p676
sI1960
S'Pooley, Don'
p677
sI26539
S'Rock, Robert'
p678
sI26540
S'Wardrop, Daniel'
p679
sI1966
S'Price, Anthony'
p680
sI1968
S'Price, Nick'
p681
sI10163
S'Hickson, John'
p682
sI1975
S'Purtzer, Tom'
p683
sI48116
S'Schlottman, Ben'
p684
sI1978
S'Quinn, Fran'
p685
sI48117
S'Kitayama, Kurt'
p686
sI1984
S'Randolph, Sam'
p687
sI48118
S'Balcombe, Alister'
p688
sI1996
S'Reid, Mike'
p689
sI1998
S'Renner, Jack'
p690
sI10193
S'Berry, Don'
p691
sI2002
S'Riegger, John'
p692
sI10195
S'Conley, Tim'
p693
sI2007
S'Rinker, Larry'
p694
sI2008
S'Rinker, Lee'
p695
sI10201
S'Gogel, Matt'
p696
sI2010
S'Roberts, Loren'
p697
sI27642
S'Murakami, Artemio'
p698
sI34469
S'McLister, Joey'
p699
sI26595
S'Tolan, Derek'
p700
sI26596
S'Moore, Ryan'
p701
sI26597
S'Portie, Ben'
p702
sI26598
S'Speirs, Adam'
p703
sI2023
S'Rose, Clarence'
p704
sI10217
S'Schutte, Warren'
p705
sI2033
S'Rummells, Dave'
p706
sI2036
S'Rutledge, Jim'
p707
sI2040
S'San Filippo, Mike'
p708
sI2046
S'Saraceno, Tony'
p709
sI2049
S'Sauers, Gene'
p710
sI2054
S'Schall, Ken'
p711
sI26631
S'Freeman, Cody'
p712
sI2065
S'Schuller, Rick'
p713
sI2066
S'Schulte, Alan'
p714
sI2067
S'Schulz, Ted'
p715
sI27652
S'Kok, Johan'
p716
sI34479
S'Shriver, Eric'
p717
sI2076
S'Senior, Peter'
p718
sI1713
S'Lundstrom, David'
p719
sI26668
S'Turnesa, Marc'
p720
sI26670
S'Fritz, Nathan'
p721
sI33117
S'Whitnell, Dale'
p722
sI26672
S'Brauer, Scott'
p723
sI26673
S'Sokol, Steve'
p724
sI2099
S'Simpson, Scott'
p725
sI2101
S'Sindelar, Joey'
p726
sI26679
S'Stadler, Kevin'
p727
sI2104
S'Sluman, Jeff'
p728
sI2106
S'Smith, Chris'
p729
sI26683
S'Haefner, Kevin'
p730
sI2110
S'Smith, Jerry'
p731
sI2113
S'Smith, Scott'
p732
sI26695
S'Letzig, Michael'
p733
sI2123
S'Soli, Mick'
p734
sI33122
S'Knox, Russell'
p735
sI2128
S'Spengler, Dave'
p736
sI51282
S'Goff, Drew'
p737
sI2131
S'Springer, Mike'
p738
sI2133
S'Stadler, Craig'
p739
sI2135
S'Standly, Mike'
p740
sI2136
S'Starkjohann, Chris'
p741
sI2138
S'Stauffer, Kent'
p742
sI2145
S'Stevens, Craig'
p743
sI26724
S'Evans, Barry'
p744
sI26725
S'Farren, Sean'
p745
sI1724
S'Maggert, Jeff'
p746
sI26730
S'Manley, Stuart'
p747
sI26733
S'Kimbell, John'
p748
sI2159
S'Strange, Curtis'
p749
sI2160
S'Streck, Ron'
p750
sI51316
S'Pigman, Kenny'
p751
sI2166
S'Sullivan, Chip'
p752
sI2167
S'Sullivan, Mike'
p753
sI2170
S'Sutton, Hal'
p754
sI26755
S'Dechert, Charleton'
p755
sI26757
S'Sonnier, Greg'
p756
sI26758
S'Hearn, David'
p757
sI10375
S'McCarty, Sean'
p758
sI2185
S'Ten Broeck, Lance'
p759
sI2187
S'Tentis, Dave'
p760
sI26765
S'Williamson, Lee M.'
p761
sI2190
S'Tewell, Doug'
p762
sI2191
S'Thelen, Tim'
p763
sI26770
S'Lepp, James'
p764
sI10387
S'Thompson, Chris'
p765
sI2196
S'Thompson, Robert'
p766
sI2202
S'Tinning, Steen'
p767
sI2206
S'Toms, David'
p768
sI10399
S'Laudien, Mike'
p769
sI2210
S'Traub, John'
p770
sI2214
S'Triplett, Kirk'
p771
sI2215
S'Trittler, Paul'
p772
sI26793
S'Nosler, Brian'
p773
sI2218
S'Tryba, Ted'
p774
sI2223
S'Tway, Bob'
p775
sI2224
S'Twiggs, Greg'
p776
sI2225
S'Twitty, Howard'
p777
sI2229
S'Upper, Brett'
p778
sI2230
S'Utley, Stan'
p779
sI26807
S'Klauk, John'
p780
sI26808
S'Takayama, Tadahiro'
p781
sI10425
S'Williamson, Jay'
p782
sI26815
S'Martens, Gibby'
p783
sI2241
S'Wadkins, Bobby'
p784
sI2242
S'Wadkins, Lanny'
p785
sI2244
S'Wadsworth, Fred'
p786
sI2245
S'Waite, Grant'
p787
sI2246
S'Waldorf, Duffy'
p788
sI2255
S'Watson, Denis'
p789
sI2256
S'Watson, Tom'
p790
sI2257
S'Watts, Brian'
p791
sI32694
S'Madsen, Morten Orum'
p792
sI26838
S'Rohlik, Tony'
p793
sI26840
S'Yurkiewicz, Jeff'
p794
sI2267
S'Weibring, D.A.'
p795
sI2268
S'Weiskopf, Tom'
p796
sI26848
S'Arvidson, Anthony'
p797
sI26851
S'Leishman, Marc'
p798
sI23590
S'Maxon, Joey'
p799
sI2279
S'Wiebe, Mark'
p800
sI37447
S'Lombard, Zander'
p801
sI2291
S'Wise, Paul'
p802
sI2292
S'Wolcott, Bob'
p803
sI2294
S'Wood, Willie'
p804
sI2300
S'Woosnam, Ian'
p805
sI26877
S'Tampion, Andrew'
p806
sI26881
S'Lyle, Jarrod'
p807
sI26882
S'Sim, Michael'
p808
sI26883
S'Bunny, Ben'
p809
sI10505
S'Bertsch, Shane'
p810
sI35084
S'Brandt, Jimmy'
p811
sI35086
S'Epperson, Chris'
p812
sI35087
S'Kim, Bio'
p813
sI2321
S'Zoeller, Fuzzy'
p814
sI2322
S'Zokol, Richard'
p815
sI51476
S'Lee, Matt'
p816
sI20868
S'Coles, Robert'
p817
sI26908
S'Ikeda, Yuta'
p818
sI35104
S'Lewis, Tom'
p819
sI35105
S'McCarthy, Ryan'
p820
sI1755
S'Mast, Dick'
p821
sI35110
S'Drewitt, Brett'
p822
sI26919
S'Reynolds, Greg'
p823
sI35112
S'Murdaca, Anthony'
p824
sI26924
S'Blyth, Adam'
p825
sI35120
S'McCarthy, Nick'
p826
sI51511
S'Portz, Clayton'
p827
sI51522
S'Zaback, Zach'
p828
sI35139
S'Lee, Richard H.'
p829
sI26948
S'Benedetti, Camilo'
p830
sI10565
S'Leggatt, Ian'
p831
sI26950
S'Morgan, John E.'
p832
sI26951
S'Wagner, Johnson'
p833
sI35144
S'Carpenter, Alex'
p834
sI26956
S"La'Cassie, Bronson"
p835
sI26965
S'Kulacz, Rick'
p836
sI26968
S'Phengsavath, Joe'
p837
sI10585
S'McCarron, Scott'
p838
sI26970
S'Duty, Patrick'
p839
sI26975
S'Veenstra, Grant'
p840
sI26976
S'Lee, Regan'
p841
sI26977
S'Heirakuji, Royden'
p842
sI35174
S'Southgate, Matthew'
p843
sI35179
S'Shadbolt, Tom'
p844
sI35181
S'van Tonder, Danie'
p845
sI39997
S'Conners, Corey'
p846
sI10613
S'Demattia, Constant'
p847
sI51586
S'Hagestad, Stewart'
p848
sI29078
S'Shih-chang, Chan'
p849
sI27015
S'Witherall, John D.'
p850
sI27016
S'Sessler, Chris'
p851
sI35210
S'Riley, George'
p852
sI35211
S'Chung, David'
p853
sI35212
S'Kim, Lion'
p854
sI27021
S'Wood, Jeff'
p855
sI27022
S'Beyer, Cody'
p856
sI34541
S'Saksansin, Poom'
p857
sI51600
S'Stanger, Jimmy'
p858
sI31997
S'Lewton, Steve'
p859
sI27028
S'Saathoff, Curt'
p860
sI27030
S'Whiteford, Peter'
p861
sI27032
S'McKechnie, Paul'
p862
sI10649
S'Scherrer, Tom'
p863
sI35228
S'Hrynkiw, Jason'
p864
sI27037
S'Spallone, Sal'
p865
sI35230
S'Ledesma, Nelson'
p866
sI35232
S'Cordova, Javier'
p867
sI27041
S'Zahringer, George'
p868
sI27042
S'Lynch, John'
p869
sI33907
S'Kim, Sunny'
p870
sI35236
S'Yelverton, Tim'
p871
sI35239
S'Arizabaleta, Alvaro Tote'
p872
sI35544
S'Yun, Andrew'
p873
sI33181
S'Frost, Charles'
p874
sI27058
S'Sorenstam, Annika'
p875
sI51635
S'Nido, Chris'
p876
sI27060
S'Mallinger, John'
p877
sI27064
S'Vegas, Jhonattan'
p878
sI27065
S'Zyroll, Tate'
p879
sI18874
S'Suarez, Miguel'
p880
sI35260
S'Day, Kelvin'
p881
sI35261
S'Tabuena, Miguel'
p882
sI27072
S'Quiros, Alvaro'
p883
sI27081
S'Kim, Seunghyuk'
p884
sI10699
S'Bateman, Ahmad'
p885
sI10703
S'Cranford, Jeffrey'
p886
sI27088
S'Edfors, Johan'
p887
sI10705
S'Dietsche, Paul'
p888
sI27090
S'Takayama, Junpei'
p889
sI27094
S'Case, Ben'
p890
sI27095
S'Watney, Nick'
p891
sI34554
S'Hwang, Jung-gon'
p892
sI35296
S'Li, Hao Tong'
p893
sI35299
S'Camplin, Todd'
p894
sI35300
S'Loupe, Andrew'
p895
sI27109
S'Zarlengo, Rick'
p896
sI27110
S'Payne, Brian'
p897
sI27114
S'Willman, Ben'
p898
sI35307
S'Broussard, Anthony'
p899
sI10733
S'Jones, Kent'
p900
sI35310
S'Griffin, Lanto'
p901
sI27119
S'Oda, Koumei'
p902
sI27120
S'Matteson, Troy'
p903
sI27122
S'Malm, Curtis'
p904
sI27124
S'Baryla, Chris'
p905
sI27125
S'Glissmeyer, Tom'
p906
sI27126
S'Hiller, Greg'
p907
sI27127
S'Reinsberg, Rick'
p908
sI27128
S'Seppanen, Matt'
p909
sI27129
S'List, Luke'
p910
sI35330
S'Olivo, Nate'
p911
sI27139
S'Skinns, David'
p912
sI27140
S'Walters, Justin'
p913
sI27141
S'Holmes, J.B.'
p914
sI27144
S'Fitzgerald, Caine'
p915
sI27146
S'Meyer, Adam'
p916
sI27147
S'Oh, David'
p917
sI27151
S'Reilly, Mike'
p918
sI27152
S'Hoffhine, Ben'
p919
sI34563
S'Hadley, Chesson'
p920
sI27171
S'McLuen, Jay'
p921
sI35364
S'Smith, Sam'
p922
sI35376
S'D\xedaz, Roberto'
p923
sI35378
S'Lee, Jun Hak'
p924
sI51766
S'Clark, Wyndham'
p925
sI35384
S'Hudson, Bobby'
p926
sI10809
S'Furyk, Jim'
p927
sI10815
S'Kalinowski, Tom'
p928
sI45642
S'Ajubita, Neal'
p929
sI10821
S'Izawa, Toshi'
p930
sI27211
S'Gibson, Scott'
p931
sI27213
S'McNerney, Mike'
p932
sI27214
S'Streelman, Kevin'
p933
sI27215
S'Damron, Patrick'
p934
sI27216
S'LoCicero, Paul'
p935
sI27217
S'Arvold, Tony'
p936
sI35413
S'Stinson, Kevin'
p937
sI10838
S'Godwin, John'
p938
sI25017
S'Hamilton, Robert'
p939
sI10841
S'Nelson, John'
p940
sI10844
S'Mielke, Mark'
p941
sI35421
S'Harkins, Brandon'
p942
sI10860
S'Leonard, Justin'
p943
sI35437
S'Jenkins, Carter'
p944
sI35439
S'Lee, Steve'
p945
sI35440
S'Richardson, Clark'
p946
sI51827
S'Blackburn, Brooks'
p947
sI35444
S'DeForest, Christopher'
p948
sI35445
S'Barbosa, Michael'
p949
sI35447
S'Tobiason, Jr., Michael'
p950
sI35448
S'May, David'
p951
sI35449
S'Long, Adam'
p952
sI35450
S'Cantlay, Patrick'
p953
sI10875
S'Demsey, Todd'
p954
sI35452
S'Edwards, Matthew'
p955
sI35455
S'Locke, Brian'
p956
sI35456
S'Whitehead, Michael'
p957
sI10881
S'Kontak, Brian'
p958
sI35459
S'Williams, Chris'
p959
sI10885
S'Allenby, Robert'
p960
sI35466
S'Byrd, Zack'
p961
sI35468
S'Howard, Cole'
p962
sI35469
S'V\xe1zquez, Sebasti\xe1n'
p963
sI35475
S'Sadlowski, Jamie'
p964
sI27293
S'Nash, Simon'
p965
sI10912
S'Perks, Craig'
p966
sI35490
S'Bateman, Wil'
p967
sI27300
S'Gallo, Kyle'
p968
sI10917
S'Church, David'
p969
sI27302
S'Mulroy, Garth'
p970
sI27304
S'Crim, Rich'
p971
sI8647
S'Kop, Brandan'
p972
sI27308
S'Walewski, Trey'
p973
sI27309
S'Deuel, Mike'
p974
sI35503
S'Pesta, Matt'
p975
sI35506
S'Hughes, Mac'
p976
sI27318
S'Brown, Ted'
p977
sI27319
S'Sierak, Mark'
p978
sI27320
S'Smith, Christopher'
p979
sI27321
S'Godfrey, Scott'
p980
sI27322
S'Sproston, Anthony'
p981
sI27323
S'Whaley, Suzy'
p982
sI27324
S'Han, Seung-su'
p983
sI27326
S'Arnold, Sam'
p984
sI35519
S'Smith, Andy'
p985
sI10944
S'Bj\xf8rn, Thomas'
p986
sI27329
S'Hall, Kevin'
p987
sI27330
S'Teater, Josh'
p988
sI27332
S'Meola, Charles'
p989
sI35532
S'Hoge, Tom'
p990
sI27341
S'Scott, Kasey'
p991
sI27342
S'Kuhlman, Erich'
p992
sI10960
S'Ponchock, Del'
p993
sI10962
S'Hughes, Bradley'
p994
sI35539
S'Guthrie, Luke'
p995
sI35540
S'Choi, Albin'
p996
sI27349
S'Noren, Alex'
p997
sI27351
S'Guyton, John'
p998
sI27352
S'Collins, Steve'
p999
sI35545
S'Barber, Blayne'
p1000
sI27355
S'Porter, Scott'
p1001
sI27356
S'Sciorra, Cary'
p1002
sI35549
S'Huxman, Greg'
p1003
sI35550
S'Swan, Matthew'
p1004
sI35552
S'Kennerly, Billy'
p1005
sI33232
S'Lee, Sang-hee'
p1006
sI27363
S'Haastrup, Mark F.'
p1007
sI20945
S'Brier, Markus'
p1008
sI27368
S'Hurst, Travis'
p1009
sI35572
S'Brand, Christian'
p1010
sI27381
S'Wiegele, Martin'
p1011
sI27382
S'Collins, Wil'
p1012
sI27383
S'Jones, Nickolas'
p1013
sI27386
S'Risdon, Dustin'
p1014
sI27388
S'Seavey, Jeff'
p1015
sI27389
S'Swanson, Tyler'
p1016
sI11006
S'Woodson, Rick'
p1017
sI27391
S'Love, James'
p1018
sI27393
S'Eger, Kent'
p1019
sI11011
S'Sposa, Mike'
p1020
sI27399
S'Scott, Richard'
p1021
sI27400
S'Laws, Peter'
p1022
sI51977
S'Greyserman, Max'
p1023
sI27402
S'Anderson, Stuart'
p1024
sI27408
S'Kaymer, Martin'
p1025
sI27409
S'Bogle, Scott'
p1026
sI27410
S'Bernakevitch, Lindsay'
p1027
sI27413
S'Miller, Scott'
p1028
sI27415
S'Tucker, Jeremy'
p1029
sI11032
S'Lickliter II, Frank'
p1030
sI35612
S'Hurley, John'
p1031
sI51997
S'Novak, Andrew'
p1032
sI35614
S'Killpack, Nick'
p1033
sI27424
S'Wie, Michelle'
p1034
sI35617
S'Trainer, Martin'
p1035
sI35621
S'Smith, Scott K.'
p1036
sI35622
S'Rangel, Jeff'
p1037
sI11048
S'Franco, Angel'
p1038
sI35625
S'Erdmann, Scott'
p1039
sI35626
S'Smith, Stuart'
p1040
sI27436
S'DeLaet, Graham'
p1041
sI34610
S'Schwab, Matthias'
p1042
sI27438
S'Dean, Geoffrey'
p1043
sI27441
S'Rubinson, Adam'
p1044
sI11062
S'Dellostritto, Ron'
p1045
sI27447
S'Ellis, John'
p1046
sI47287
S'Tracy, Ethan'
p1047
sI52035
S'Peacock, Oliver'
p1048
sI27463
S'Loving, Matthew'
p1049
sI27466
S'Levin, Spencer'
p1050
sI27470
S'McLean, Jon'
p1051
sI27474
S'Saxton, Reinier'
p1052
sI35672
S'Loftsson, Olafur'
p1053
sI35675
S'Mauchaza, Nyasha'
p1054
sI27485
S'Rhind, Lee'
p1055
sI27487
S'Danielson, Paul'
p1056
sI46907
S'Evans, Ryan'
p1057
sI52370
S'Andersen, Mason'
p1058
sI27503
S'LeBrun, Steve'
p1059
sI27506
S'Wilson, Oliver'
p1060
sI11123
S'Couch, Chris'
p1061
sI11127
S'Dodd, Stephen'
p1062
sI52372
S'Champ, Cameron'
p1063
sI52091
S'Kennedy, Blake'
p1064
sI11132
S'Gaus, Bob'
p1065
sI27518
S'Kamte, James'
p1066
sI52373
S'Lee, Walker'
p1067
sI35712
S'Byrne, David'
p1068
sI35720
S'Juszczyk, Joseph'
p1069
sI35729
S'Walsh, Billy'
p1070
sI35731
S'Bulle, Kent'
p1071
sI35732
S'Roach, Wes'
p1072
sI27554
S'Harrington, Scott'
p1073
sI27556
S'Potter, Jr., Ted'
p1074
sI27561
S'Flanagan, Nick'
p1075
sI52144
S'Thornberry, Braden'
p1076
sI27569
S'Park, Myung Jun'
p1077
sI27573
S'Flint, Gavin'
p1078
sI27576
S'Haig, Anton'
p1079
sI27577
S'Karmis, Peter'
p1080
sI11195
S'Russell, Terry'
p1081
sI27583
S'Trauwitz, Jose'
p1082
sI27584
S'Bloomfield, Johnny'
p1083
sI27591
S'Norman, Michael J.'
p1084
sI27592
S'Tate, Steven'
p1085
sI27593
S'Wilson, Dean A.'
p1086
sI27596
S'Heintz, Chris'
p1087
sI27597
S'Parun, Tim'
p1088
sI27599
S'Schnider, David'
p1089
sI35794
S'Otte, Preston'
p1090
sI27603
S'Lavery, Mike'
p1091
sI27613
S'Lutterus, David'
p1092
sI27615
S'Nallen, Chris'
p1093
sI27619
S'Leong, Ben'
p1094
sI27624
S'Beisser, Benoit'
p1095
sI27625
S'Bungert, John'
p1096
sI35819
S'India, Vince'
p1097
sI35820
S'Flores, Erik'
p1098
sI11245
S'Skayhan, Ron'
p1099
sI11247
S'Spence, Scott'
p1100
sI34644
S'Persons, Josh'
p1101
sI35834
S'Lee, Hyungjoon'
p1102
sI27644
S'Harman, Brian'
p1103
sI27648
S'Bescansa, Ramon'
p1104
sI27649
S'Snedeker, Brandt'
p1105
sI35844
S'Choi, Phillip'
p1106
sI35845
S'Murray, Tom'
p1107
sI27657
S'Smith, Nathan T.'
p1108
sI27660
S'Dixon, Brian'
p1109
sI27670
S'Noll, David'
p1110
sI27675
S'Osborne, Sam'
p1111
sI27676
S'Alexander, Lonny'
p1112
sI27679
S'Weatherly, Scott'
p1113
sI27682
S'Laing, Jason'
p1114
sI27683
S'Olson, Leif'
p1115
sI35879
S'Kraft, Kelly'
p1116
sI35890
S'Meth, Byron'
p1117
sI35891
S'Smith, Cameron'
p1118
sI34654
S'Hronek, David'
p1119
sI27702
S'Hendrix, Matt'
p1120
sI27708
S'Hartwick, Jason'
p1121
sI35901
S'Haley II, Paul'
p1122
sI27711
S'Woodson, Jay'
p1123
sI35912
S'Porteous, Haydn'
p1124
sI27730
S'Zackheim, Eli'
p1125
sI27731
S'Carter, Pat'
p1126
sI27747
S'Iwata, Hiroshi'
p1127
sI35840
S'Foley, Kevin'
p1128
sI52330
S'Meyer, Dylan'
p1129
sI35947
S'Oda, John'
p1130
sI27759
S'Baker, Shawn'
p1131
sI35957
S'Popovic, Daniel'
p1132
sI27766
S'Bourque, Casey'
p1133
sI27767
S'Carr, David'
p1134
sI27768
S'Mackenzie, Brock'
p1135
sI27769
S'Osborn, Payton'
p1136
sI27770
S'Villegas, Camilo'
p1137
sI25109
S'Greyling, Christo'
p1138
sI27776
S'Edberg, Pelle'
p1139
sI27780
S'Botsford, Chris'
p1140
sI35973
S'Holman, Nathan'
p1141
sI27782
S'Knaub, Brandon'
p1142
sI27783
S'Melton, Brett'
p1143
sI27784
S'Lin, Wen-Tang'
p1144
sI31204
S'Dillow, Chris'
p1145
sI27794
S'Rivera, Miguel'
p1146
sI52371
S'Campbell, Matthew'
p1147
sI27796
S'Affrunti, Joe'
p1148
sI27797
S'Lamely, Derek'
p1149
sI27800
S'Branham, David'
p1150
sI35994
S'Hwang, Jay'
p1151
sI27804
S'Johnson, Neil'
p1152
sI27806
S'Wall, JJ'
p1153
sI27808
S'McClellan, Robert'
p1154
sI27810
S'McElhinney, Brian'
p1155
sI27816
S'McLeary, Jamie'
p1156
sI27817
S'Bradshaw, Paul'
p1157
sI27818
S'Campbell, Lloyd'
p1158
sI27819
S'Millar, Anthony'
p1159
sI27820
S'Sugrue, Daniel'
p1160
sI27821
S'Tiley, Steven'
p1161
sI27822
S'Willey, Andrew'
p1162
sI27823
S'Vecellio, Steve'
p1163
sI27825
S'Evans, Neil'
p1164
sI27826
S'Taylor, Brett'
p1165
sI27833
S'King, Danny'
p1166
sI27836
S'Barrett, Andy'
p1167
sI32105
S'Fung, Nicholas'
p1168
sI45604
S'Scheer, Alan'
p1169
sI27878
S'Heath, James'
p1170
sI27895
S'Blixt, Jonas'
p1171
sI27896
S'Fisher, Ross'
p1172
sI27899
S'Karlberg, Rikard'
p1173
sI27901
S'Griffing, Quinn'
p1174
sI27902
S'Zwemke, Zane'
p1175
sI6016
S'Lardon, Brad'
p1176
sI27910
S'De Vries, Floris'
p1177
sI33465
S'Marshall, Matt'
p1178
sI52497
S'Fisher, Darin'
p1179
sI52498
S'Morton, Tom'
p1180
sI26499
S'Cabrera Bello, Rafa'
p1181
sI27929
S'Kapur, Shiv'
p1182
sI27932
S'Graziosa, Frank'
p1183
sI27933
S'Merrick, John'
p1184
sI1925
S'Pate, Jerry'
p1185
sI27936
S'Laird, Martin'
p1186
sI27938
S'Martin, Jeff'
p1187
sI27939
S'McQuillan, Matt'
p1188
sI27940
S'Vanegas, Diego'
p1189
sI27941
S'Surber, Russell'
p1190
sI27942
S'Oppenheim, Rob'
p1191
sI27943
S'Hansen, Matt'
p1192
sI19755
S'Bennett, Mike'
p1193
sI27953
S'Vana, Frank'
p1194
sI27954
S'Wallace, Darren'
p1195
sI27955
S'Bourgeois, Marc'
p1196
sI27956
S'Doell, Craig'
p1197
sI27958
S'Blaum, Ryan'
p1198
sI27963
S'Stroud, Chris'
p1199
sI19774
S'Greenwood, Chris'
p1200
sI27974
S'Kang, Sung'
p1201
sI27979
S'Kim, Daehyun'
p1202
sI40162
S'Lower, Justin'
p1203
sI52560
S'Lawrence, David'
p1204
sI27985
S'Miller, Brian'
p1205
sI52562
S'Slattery, Kurt'
p1206
sI19795
S'Mitchum, Kelly'
p1207
sI47741
S'McClain, Wesley'
p1208
sI27990
S'Gordon, Scott'
p1209
sI52567
S'Lee, S.M.'
p1210
sI19801
S'Miller, Dennis'
p1211
sI19803
S'Armour, Ryan'
p1212
sI28002
S'Cuzzort, Jeff'
p1213
sI19811
S'Sutter, Tom'
p1214
sI52584
S'Sill, Brad'
p1215
sI19817
S'Muehr, Michael'
p1216
sI19822
S'Cochran, Bobby'
p1217
sI19823
S'Howser, David'
p1218
sI19824
S'Barlow, Craig'
p1219
sI19825
S'Clarke, Darren'
p1220
sI19830
S'Haeggman, Joakim'
p1221
sI28023
S'Smith, Byron'
p1222
sI28024
S'White, Dustin'
p1223
sI28030
S'Nannen, Derek'
p1224
sI34709
S'Pepperell, Eddie'
p1225
sI19843
S'Lucchesi, Dino'
p1226
sI19846
S'Gay, Brian'
p1227
sI28047
S'Reed, Stephen'
p1228
sI28048
S'Watson, Derek'
p1229
sI28050
S'von Hoffmann, David'
p1230
sI52633
S'Beach, Alex'
p1231
sI52634
S'Hansen, Jaysen'
p1232
sI52635
S'Wood, JJ'
p1233
sI28071
S'Schmitz, Sammy'
p1234
sI28072
S'Ming-jie, Huang'
p1235
sI19881
S'Damron, Robert'
p1236
sI19883
S'Daley, Joe'
p1237
sI28087
S'Blanks, Kris'
p1238
sI28088
S'Davidson, Matt'
p1239
sI28089
S'Day, Jason'
p1240
sI28092
S'Lee, D.H.'
p1241
sI28093
S'Carballo, Miguel Angel'
p1242
sI19903
S'Lomas, Jonathan'
p1243
sI19904
S'Lawrie, Paul'
p1244
sI19905
S'Coltart, Andrew'
p1245
sI19906
S'Evans, Gary'
p1246
sI28100
S'Carll, Kevin'
p1247
sI28101
S'Mathias, Jonathan'
p1248
sI28102
S'Hakes, Steven'
p1249
sI28103
S'Smith, Stuart L.'
p1250
sI28104
S'Huber, Tim'
p1251
sI19913
S'Whittaker, Ron'
p1252
sI28106
S'Brovold, Lars'
p1253
sI36299
S'Figueroa, Edward'
p1254
sI28111
S'Roos, Jake'
p1255
sI28114
S'van der Walt, Dawie'
p1256
sI19924
S'Martin, Brad'
p1257
sI28118
S'Tomasulo, Peter'
p1258
sI12393
S'Butcher, Rodney'
p1259
sI28120
S'Podas, David'
p1260
sI19929
S'Bennett, Warren'
p1261
sI28125
S'Geary, Josh'
p1262
sI28129
S'Dodson, Will'
p1263
sI28132
S'Van Aswegen, Tyrone'
p1264
sI36326
S'Lipsky, David'
p1265
sI28135
S'Watkins, Aaron'
p1266
sI23804
S'Tschudin, Andrew'
p1267
sI28138
S'Yarnes, David'
p1268
sI36331
S'Graham, Austin'
p1269
sI36332
S'Mills, Corbin'
p1270
sI28143
S'Nirat, Chapchai'
p1271
sI19954
S'MacKenzie, Malcolm'
p1272
sI19958
S'Jimenez, Miguel Angel'
p1273
sI37460
S'Wooding, Jeremiah'
p1274
sI28155
S'Lima, Jose-Filipe'
p1275
sI28156
S'Yeckes, Jeffrey'
p1276
sI28157
S'Wilson, TJ'
p1277
sI28158
S'Marino, Steve'
p1278
sI19970
S'Karlsson, Robert'
p1279
sI19972
S'Coceres, Jose'
p1280
sI19974
S'Chapman, Roger'
p1281
sI36359
S'Campusano, Juan'
p1282
sI36360
S'Munoz, Alejandro'
p1283
sI52748
S'Wolcott, Ben'
p1284
sI19983
S'Oldcorn, Andy'
p1285
sI19985
S'Luna, Santiago'
p1286
sI28178
S'Adams III, Frank'
p1287
sI28180
S'Willmann, Kyle'
p1288
sI28181
S'Peck, Jeff'
p1289
sI19991
S'Hedblom, Peter'
p1290
sI36673
S'Pugh, Rhys'
p1291
sI28191
S'West, Heath'
p1292
sI36388
S'Garmendia, Alejandro'
p1293
sI36389
S'Calvesbert, Robert'
p1294
sI36390
S'Damesworth, David'
p1295
sI20013
S'Miller, Mark'
p1296
sI20024
S'Gortana, Marco'
p1297
sI20025
S'Walter, Ben'
p1298
sI28220
S'Beckstrom, Colby'
p1299
sI28221
S'Barker, Mickey'
p1300
sI35583
S'Arvidsson, Oskar'
p1301
sI20580
S'Stolz, Andre'
p1302
sI20035
S'McMillan, Rob'
p1303
sI20038
S'DeCorso, Bryan'
p1304
sI20043
S'Fryatt, Edward'
p1305
sI28237
S'McIlroy, Rory'
p1306
sI28239
S'Hessing, Rob'
p1307
sI20050
S'Sutterfield, Brad'
p1308
sI20051
S'Acosta, Jr., Joe'
p1309
sI28246
S'Sato, Achi'
p1310
sI26553
S'Edwards, Simon'
p1311
sI36444
S'Weaver, Michael'
p1312
sI28254
S'Pratt, Andrew'
p1313
sI28255
S'Chartrand, Dan'
p1314
sI36449
S'Irawan, Arie Ahmad'
p1315
sI28258
S'Kim, K.T.'
p1316
sI28259
S'Bae, Sangmoon'
p1317
sI20070
S'Bettencourt, Matt'
p1318
sI36455
S'Osborne, William'
p1319
sI20072
S'Lebeck, David'
p1320
sI22460
S'Kawai, Hiroo'
p1321
sI36459
S'Murchison III, Bill'
p1322
sI20080
S'Robinson, David'
p1323
sI36471
S'Tian Liang, Guan'
p1324
sI20094
S'Kaye, Jonathan'
p1325
sI20095
S'Paulson, Carl'
p1326
sI20098
S'Appleby, Stuart'
p1327
sI20099
S'Barron, Doug'
p1328
sI28294
S'Bump, J.B.'
p1329
sI20103
S'Collins, Bobby'
p1330
sI20104
S'Duke, Ken'
p1331
sI20105
S'Gove, Jeff'
p1332
sI28300
S'Luiten, Joost'
p1333
sI20110
S'Wade, John'
p1334
sI20111
S'Connelly, John'
p1335
sI36496
S'Ricketts, Brian'
p1336
sI28305
S'Brown, Derek'
p1337
sI28306
S'Denham, David'
p1338
sI28307
S'Every, Matt'
p1339
sI28308
S'Kelly, Troy'
p1340
sI28309
S'Soero, Pierre-Henri'
p1341
sI28310
S'Williams, Lee'
p1342
sI20121
S'Fischer, Todd'
p1343
sI20127
S'Riley, Chris'
p1344
sI20128
S'Mason, John'
p1345
sI20133
S'McGrath, Bob'
p1346
sI28326
S'Gasnier, Philippe'
p1347
sI28327
S'Jones, Brett'
p1348
sI36521
S'Song, Young-han'
p1349
sI28331
S'Del Vecchio, Paul'
p1350
sI36528
S'Liu, Yan Wei'
p1351
sI28339
S'Dubuisson, Victor'
p1352
sI20148
S'Meloan, Marcus'
p1353
sI20152
S'Wassem, Heath'
p1354
sI20157
S'Goosen, Retief'
p1355
sI20158
S'Rodriguez, Anthony'
p1356
sI20160
S'Wi, Charlie'
p1357
sI28358
S'Price, Andrew D.'
p1358
sI33399
S'Hadwin, Adam'
p1359
sI52514
S'Crowe, Trace'
p1360
sI28366
S'DeLeon, Daniel'
p1361
sI28369
S'Murray, George'
p1362
sI28370
S'McDonagh, Sean'
p1363
sI28371
S'Ramsay, Eric'
p1364
sI28372
S'Steele, Robert'
p1365
sI28373
S'Saltman, Lloyd'
p1366
sI28377
S'Pollack, Joe'
p1367
sI28379
S'Bisbee, Jeff'
p1368
sI28380
S'Helminen, Ryan'
p1369
sI20200
S'Aber, John'
p1370
sI20212
S'Mitchell, Stiles'
p1371
sI20213
S'Miyamoto, Katsumasa'
p1372
sI23849
S'Kim, Hyung-Tae'
p1373
sI20218
S'Katayama, Shingo'
p1374
sI35578
S'Fernandez, Scott'
p1375
sI20221
S'Weston, Rich'
p1376
sI28419
S'McKay, Billy'
p1377
sI28420
S'Brehm, Ryan'
p1378
sI20229
S'Cink, Stewart'
p1379
sI33409
S'Brock, Josh'
p1380
sI28424
S'Steinmetz, Rich'
p1381
sI10199
S'Esposito, Frank'
p1382
sI20237
S'Henderson, Michael'
p1383
sI20247
S'Brisson, Cortney'
p1384
sI36632
S'Arendell, Connor'
p1385
sI12060
S'Holtby, Paul'
p1386
sI12067
S'Lowe, Mitch'
p1387
sI12069
S'Martin, Mike'
p1388
sI33954
S'Guerrero, Estanislao'
p1389
sI28456
S'Ruthkoski, Andrew'
p1390
sI20270
S'Jack, Billy'
p1391
sI28467
S'Wald, Lucas'
p1392
sI28475
S'Overton, Jeff'
p1393
sI36669
S'Proveaux, Cody'
p1394
sI28478
S'Hadley, Brian'
p1395
sI28480
S'St. Pierre, Jim'
p1396
sI28481
S'Iaciofano, Joey'
p1397
sI28483
S'Hall, Tyler'
p1398
sI23862
S'Lancaster, Todd'
p1399
sI28486
S'Putnam, Michael'
p1400
sI36683
S'Gutgsell, Austin'
p1401
sI36684
S'Morris, Dustin'
p1402
sI36685
S'Wilson, Cameron'
p1403
sI36686
S'McCormick, Mark'
p1404
sI36687
S'Sanchez, Alberto'
p1405
sI36688
S'Sherwood, Nick'
p1406
sI23864
S'Goich, George'
p1407
sI36690
S'Hamrick, Hunter'
p1408
sI28500
S'Flores, Martin'
p1409
sI28503
S'Snyder, Jay'
p1410
sI2020
S'Romero, Eduardo'
p1411
sI36698
S'Zhang, Andy'
p1412
sI36699
S'Rodgers, Patrick'
p1413
sI36700
S'Marshall, Ian'
p1414
sI40250
S'Pendrith, Taylor'
p1415
sI10213
S'Pride, Dicky'
p1416
sI20332
S'Reid, Michael'
p1417
sI28527
S'Zions, Matthew'
p1418
sI20341
S'McCumber, Josh'
p1419
sI36735
S'Fernandez-Valdes, Jorge'
p1420
sI28548
S'Garrison, Jim'
p1421
sI36749
S'Hazen, James'
p1422
sI20367
S'Andersson Hed, Fredrik'
p1423
sI20369
S'Bickerton, John'
p1424
sI36755
S'Potter, Zechariah'
p1425
sI20374
S'Clark, Gary'
p1426
sI20376
S'Gallacher, Stephen'
p1427
sI20378
S'Gronberg, Mathias'
p1428
sI36413
S'Hui, Phillip'
p1429
sI20382
S'Leaney, Stephen'
p1430
sI28578
S'Prugh, Corey'
p1431
sI12195
S'Johnson, Tom'
p1432
sI32070
S'Campos, Rafael'
p1433
sI20393
S'Walton, Philip'
p1434
sI20394
S'Webster, Steve'
p1435
sI23879
S'Call, Matthew'
p1436
sI20396
S'Westwood, Lee'
p1437
sI20400
S'Campbell, Michael'
p1438
sI28593
S'Mueller, Jesse'
p1439
sI36788
S'Fields, Jack'
p1440
sI36789
S'Newcomb, Patrick'
p1441
sI36796
S'Ferrell, Jess'
p1442
sI20415
S'Van Horn, Craig'
p1443
sI36800
S'Black, Chris W.'
p1444
sI36801
S'Hubbard, Mark'
p1445
sI20418
S'Canete, Ariel'
p1446
sI28618
S'Nazareth, Savio'
p1447
sI28620
S'Price, Aron'
p1448
sI28621
S'Muthiya, Madalitso'
p1449
sI28623
S'McMillan, Robert'
p1450
sI20433
S'Hensby, Mark'
p1451
sI20436
S'Willis, Garrett'
p1452
sI20440
S'Savage, Kevin'
p1453
sI28633
S'Abbott, Scott'
p1454
sI20443
S'Park, Jin'
p1455
sI20445
S'Martin, Casey'
p1456
sI24140
S"O'Hair, Sean"
p1457
sI36835
S'Volk, Dustin'
p1458
sI36836
S'Whitsett, Cory'
p1459
sI36837
S'Brun, Julien'
p1460
sI33447
S'Catalioto, Martin'
p1461
sI27986
S'Schutte, Jesse'
p1462
sI36852
S'Knous, Jim'
p1463
sI20471
S'Struver, Sven'
p1464
sI20472
S'Cejka, Alex'
p1465
sI20473
S'Garrido, Ignacio'
p1466
sI20474
S'Price, Phillip'
p1467
sI36689
S'Koepka, Brooks'
p1468
sI20480
S'Ruiz, Marco'
p1469
sI20484
S'Sriroj, Thammanoon'
p1470
sI28677
S'Oriol, Pedro'
p1471
sI21959
S'Purdy, Ted'
p1472
sI28679
S'G\xf3mez, Fabi\xe1n'
p1473
sI20498
S'Baird, Briny'
p1474
sI20499
S'Elliott, Bobby'
p1475
sI36884
S'Kohles, Ben'
p1476
sI12309
S'Sowards, Bob'
p1477
sI20502
S'Long, Michael'
p1478
sI52569
S'Ellis, Harry'
p1479
sI20504
S'Ott, Brad'
p1480
sI28697
S'Bhullar, Gaganjeet'
p1481
sI12330
S'Tucker, Mark'
p1482
sI28719
S'Hu, Mu'
p1483
sI28723
S'Parry, John'
p1484
sI28734
S'Cunliffe, Josh'
p1485
sI20548
S'Tanaka, Hidemichi'
p1486
sI28751
S'Dodt, Andrew'
p1487
sI28753
S'Wood, Timothy'
p1488
sI20566
S'Yokoo, Kaname'
p1489
sI20567
S'Hayashi, Kevin'
p1490
sI20568
S'Painter, Anthony'
p1491
sI20569
S'Green, Richard'
p1492
sI20572
S'Pampling, Rod'
p1493
sI20573
S'Laycock, Scott'
p1494
sI20574
S'Goggin, Mathew'
p1495
sI28771
S'Dottley, Will'
p1496
sI12388
S'Clark II, Michael'
p1497
sI12389
S'Lane, Barry'
p1498
sI12390
S'Roman, Kevin'
p1499
sI28775
S'Lashley, Nate'
p1500
sI20585
S'Fasth, Niclas'
p1501
sI12394
S'Carter, Tom'
p1502
sI28780
S'Thompson, Nicholas'
p1503
sI12397
S'Widener, Jason'
p1504
sI28783
S'Brazel, Sam'
p1505
sI36976
S'Porteous, Garrick'
p1506
sI20593
S'Chalmers, Greg'
p1507
sI20596
S'Jonzon, Michael'
p1508
sI20597
S'Hummel, Steve'
p1509
sI20598
S'Cevaer, Christian'
p1510
sI36983
S'Dobyns, Matt'
p1511
sI36984
S'Frye, Michael'
p1512
sI36985
S'Wade, Doug'
p1513
sI25279
S'Moir, Richard'
p1514
sI47125
S'Atkins, Matt'
p1515
sI20608
S'Howell, David'
p1516
sI28801
S'Giles, Matthew'
p1517
sI20613
S'Hull, Brian'
p1518
sI20623
S'Coles, Gavin'
p1519
sI20624
S'Smail, David'
p1520
sI20628
S'Oberholser, Arron'
p1521
sI20631
S'McKenzie, David'
p1522
sI20634
S'Lonard, Peter'
p1523
sI37022
S'Guillaume, Vaita'
p1524
sI37023
S'Rody, Tyler'
p1525
sI12449
S'Howison, Ryan'
p1526
sI20642
S'Le Vesconte, Adam'
p1527
sI20643
S'Conran, Steven'
p1528
sI20645
S'Senden, John'
p1529
sI12454
S'Tiziani, Mario'
p1530
sI20650
S'Moseley, Jarrod'
p1531
sI12461
S'McGinley, Paul'
p1532
sI20657
S'Spence, Nigel P.'
p1533
sI20663
S'Pappas, Brenden'
p1534
sI22559
S'Butterfield, Andrew'
p1535
sI28860
S'Barbetti, Daniel'
p1536
sI20669
S'Kingston, James'
p1537
sI37056
S'Gonzalez, Geoff'
p1538
sI20676
S'Moore, Patrick'
p1539
sI37061
S'Thompson, Matt'
p1540
sI28871
S'Kehoe, Justin'
p1541
sI37066
S'Forrest, Grant'
p1542
sI20686
S'Singh, Jeev Milkha'
p1543
sI49869
S'Ferrier, Branson'
p1544
sI20691
S'Owen, Greg'
p1545
sI37076
S'Rozo, Marcelo'
p1546
sI20698
S'da Silva, Adilson'
p1547
sI20701
S'Abery, Warren'
p1548
sI12510
S'Campbell, Chad'
p1549
sI12515
S'Wilson, Mike'
p1550
sI37092
S'Kim, Hyung-Sung'
p1551
sI37094
S'Dean, Joseph'
p1552
sI45294
S'Penner, Kevin'
p1553
sI20719
S'Mednick, Adam'
p1554
sI20721
S'Fichardt, Darren'
p1555
sI20726
S'McLean, Alan'
p1556
sI28923
S'Fisher, Oliver'
p1557
sI12540
S'Aguilar, Tony'
p1558
sI28928
S'Wright, Gareth'
p1559
sI12546
S'Baker, Peter'
p1560
sI28937
S'Coetzee, George'
p1561
sI28938
S'Harding, Justin'
p1562
sI20747
S'Muller, Grant'
p1563
sI45324
S'Littrell, Don'
p1564
sI28942
S'Rodriguez, Miguel'
p1565
sI28943
S'Choe, Jay'
p1566
sI28946
S'Kavanagh, Jeremy'
p1567
sI20763
S'Fulke, Pierre'
p1568
sI20764
S'Botes, Desvonde'
p1569
sI20766
S'Harrington, Padraig'
p1570
sI47610
S'Light, Tyler'
p1571
sI20771
S'Alker, Steven'
p1572
sI20773
S'Teshima, Taichi'
p1573
sI26675
S'Turcott, Jon'
p1574
sI20791
S'Johnson, Mark W.'
p1575
sI12602
S'Wilson, Dean'
p1576
sI12603
S'Lemon, Jim'
p1577
sI20802
S'Hugo, Jean'
p1578
sI12611
S'McDonald, Bruce'
p1579
sI37189
S'Varner III, Harold'
p1580
sI20812
S'van der Walt, Tjaart'
p1581
sI24425
S'Groom, Adam'
p1582
sI20820
S'Sjoland, Patrik'
p1583
sI37206
S'Downs, Dennis'
p1584
sI20823
S'Emerson, Gary'
p1585
sI37214
S'Russell, Jordan'
p1586
sI20832
S'Jacquelin, Raphael'
p1587
sI45409
S'Zhang, Huilin'
p1588
sI20835
S'Tunnicliff, Miles'
p1589
sI12645
S'Geiberger, Brent'
p1590
sI12652
S'Beckman, Cameron'
p1591
sI20848
S'Cabrera, \xc1ngel'
p1592
sI20850
S'Chopra, Daniel'
p1593
sI12660
S'Parnevik, Jesper'
p1594
sI12661
S'Barranger, Todd'
p1595
sI12662
S'Levet, Thomas'
p1596
sI12663
S'Tataurangi, Phil'
p1597
sI20856
S'Eriksson, Klas'
p1598
sI20859
S'Hansen, Anders'
p1599
sI33974
S'Burmester, Dean'
p1600
sI37250
S'Langasque, Romain'
p1601
sI12676
S'Smith, Brian K.'
p1602
sI29063
S'Denison, Danny'
p1603
sI12680
S'Maruyama, Shigeki'
p1604
sI29065
S'Stockton, Brady'
p1605
sI12682
S'Miyase, Hirofumi'
p1606
sI30786
S'Schnell, Brady'
p1607
sI12692
S'Chin, David'
p1608
sI12694
S'Yokomoto, Beau'
p1609
sI12695
S'Floyd, Robert'
p1610
sI37273
S'Ernst, Derek'
p1611
sI37275
S'Ryder, Sam'
p1612
sI37278
S'Lindheim, Nicholas'
p1613
sI12705
S'Kresge, Cliff'
p1614
sI12710
S'Leibovich, Rick'
p1615
sI12714
S'Tidland, Chris'
p1616
sI12716
S'Hoffman, Charley'
p1617
sI45486
S'Niemann, Joaquin'
p1618
sI53681
S'Bell, Ross'
p1619
sI40181
S'Sordet, Clement'
p1620
sI12726
S'Larsson, Dean'
p1621
sI20929
S'Kuwabara, Katsunori'
p1622
sI20933
S'Idoki, Kohki'
p1623
sI20935
S'Taniguchi, Toru'
p1624
sI20939
S'Fukabori, Keiichiro'
p1625
sI20940
S'Kuboya, Kenichi'
p1626
sI12750
S'Pyman, Iain'
p1627
sI12751
S'Gleaton, Todd'
p1628
sI12753
S'Morland IV, David'
p1629
sI12755
S'Veazey, Vance'
p1630
sI23225
S'Earnest, Paul'
p1631
sI45526
S'Ancer, Abraham'
p1632
sI12759
S'Prince, Patrick'
p1633
sI12760
S'Ellis, Danny'
p1634
sI37338
S'Dou, Marty'
p1635
sI37340
S'Wright, Chase'
p1636
sI37341
S'Mitchell, Jordan'
p1637
sI45534
S'Gunn, Jimmy'
p1638
sI45535
S'Hebert, Michael'
p1639
sI37351
S'Goss, Oliver'
p1640
sI12781
S'Medlin, Scott'
p1641
sI12782
S'Herron, Tim'
p1642
sI10323
S'Shawver, John'
p1643
sI32655
S'Lederer, Brett'
p1644
sI37365
S'Watt, Brady'
p1645
sI12794
S'Weinhart, Tim'
p1646
sI20992
S'Hosokawa, Kazuhiko'
p1647
sI7595
S'Moss, Rob'
p1648
sI37380
S'Luck, Curtis'
p1649
sI20997
S'Cotner, Keoke'
p1650
sI29192
S'Campbell, Chris'
p1651
sI12809
S'Faidley, John'
p1652
sI21002
S'Serna, Oscar'
p1653
sI45582
S'Sawada, Jared'
p1654
sI21007
S'Hjertstedt, Gabriel'
p1655
sI40072
S'McCoy, Michael'
p1656
sI12823
S'Franco, Carlos'
p1657
sI12826
S'Claxton, Paul'
p1658
sI29212
S'Poncino, Vinnie'
p1659
sI29218
S'Burt, Keith'
p1660
sI29220
S'Kelly, Dave'
p1661
sI29221
S'Simpson, Webb'
p1662
sI29222
S'Hurley III, Billy'
p1663
sI29223
S'Saunders, Sam'
p1664
sI29224
S'Dougherty, Dillon'
p1665
sI45609
S'Duncan, Tyler'
p1666
sI29226
S'Jacobs, Hal'
p1667
sI29227
S'Avret, Clint'
p1668
sI37426
S'Esteve, Jeronimo'
p1669
sI29236
S'Stieren, Tim'
p1670
sI29237
S'George, Larry'
p1671
sI29238
S'Lockerbie, Gary'
p1672
sI21047
S'Deuel, Mike'
p1673
sI29253
S'Curl, Jeff'
p1674
sI29255
S'Gray, Chris'
p1675
sI29256
S'Morrison, James'
p1676
sI37450
S'Constable, Donald'
p1677
sI52663
S'Corfee, Ben'
p1678
sI37452
S'Hall, Ashley'
p1679
sI37454
S'Kim, Whee'
p1680
sI37455
S'Kim, Si Woo'
p1681
sI52664
S'Moody, Chris'
p1682
sI37459
S'Sullivan, Ryan'
p1683
sI29268
S'Burgoon, Bronson'
p1684
sI29269
S'Goodwin, Shaun'
p1685
sI29271
S'Johnson, Jamie R.'
p1686
sI45657
S'Chang, Derek'
p1687
sI29282
S'Hayes, Ben'
p1688
sI29285
S'Delahoussaye, Brent'
p1689
sI29289
S'Noh, Seung-Yul'
p1690
sI21098
S'Henderson, Scott'
p1691
sI21099
S'Lynn, David'
p1692
sI45676
S'Janneck, Frederick'
p1693
sI45694
S'Wilson, Patrick'
p1694
sI45702
S'Cazaub\xf3n, Rodolfo'
p1695
sI29331
S'Haas, Jr., Jay'
p1696
sI25782
S'Wilson, Stuart'
p1697
sI29334
S'Ahlers, Jaco'
p1698
sI25369
S'Donaldson, Jamie'
p1699
sI45720
S'Lee, Ki Taek'
p1700
sI45721
S'Westerlund, Jay'
p1701
sI26735
S'Jertson, Marty'
p1702
sI29342
S'Park, Jae-bum'
p1703
sI45729
S'Nesbitt, Drew'
p1704
sI45733
S'Truslow, Austen'
p1705
sI21159
S'Nieporte, John'
p1706
sI29353
S'Hickman, Joey'
p1707
sI19911
S'Downes, Billy'
p1708
sI29365
S'Webber, Kane'
p1709
sI29378
S'Kataoka, Daisuke'
p1710
sI21187
S'Hoshino, Hidemasa'
p1711
sI21188
S'Takahashi, Tatsuhiko'
p1712
sI29381
S'McGreal, Simon'
p1713
sI21201
S'Sugai, Noboru'
p1714
sI21207
S'Lara, Jose Manuel'
p1715
sI21209
S'Garcia, Sergio'
p1716
sI29406
S'Lamielle, Joey'
p1717
sI45862
S'Cornellier, Jean-Philip'
p1718
sI29415
S'Baca, Ryan'
p1719
sI29416
S'Bare, Andy'
p1720
sI29417
S'Coe, Alex'
p1721
sI29418
S'Derminio, Michael'
p1722
sI29419
S'Fujikawa, Tadd'
p1723
sI29420
S'Horschel, Billy'
p1724
sI29421
S'Koskinen, John'
p1725
sI29422
S'Moore, Jonathan'
p1726
sI29423
S'Nagle, Patrick'
p1727
sI29424
S'Posey, Ryan'
p1728
sI29425
S'Svoboda, Andrew'
p1729
sI29426
S'Wood, Taylor'
p1730
sI21253
S'Ichihara, Tatsuhiko'
p1731
sI28119
S'Ruda, J.R.'
p1732
sI45836
S'Bland, Richard'
p1733
sI29454
S'Wiesberger, Bernd'
p1734
sI21293
S'Eliasson, Mattias'
p1735
sI8073
S'Kokott, Bill'
p1736
sI29459
S'Ruddo, Tim'
p1737
sI29460
S'Rokisky, Jody'
p1738
sI29461
S'Lovemark, Jamie'
p1739
sI45854
S'Birdsey, Thomas'
p1740
sI21284
S'Fujita, Hiroyuki'
p1741
sI29478
S'Kisner, Kevin'
p1742
sI29479
S'Brown, Scott'
p1743
sI21290
S'Igarashi, Yuji'
p1744
sI29484
S'Uihlein, Peter'
p1745
sI29485
S'Stegmaier, Brett'
p1746
sI29491
S'Bushka, John'
p1747
sI29492
S'Webb, Brennan'
p1748
sI21310
S'Nakamura, Tatsuaki'
p1749
sI21325
S'Amershadian, Jeff'
p1750
sI29518
S'Steele, Brendan'
p1751
sI29519
S'Reilly, Steven'
p1752
sI29520
S'Panek, John'
p1753
sI29521
S'Baines, Scott'
p1754
sI29522
S'Schachner, Michael'
p1755
sI29531
S'Ramsay, Richie'
p1756
sI29532
S'Mahoney, Korey'
p1757
sI29533
S'Dadey, Sean'
p1758
sI29535
S'Garnett, Brice'
p1759
sI29539
S'Ledbetter, Doyle'
p1760
sI29540
S'Ziska, Ian'
p1761
sI29541
S'Thorp, Marius'
p1762
sI21350
S'Imada, Ryuji'
p1763
sI29544
S'Norman, Joe'
p1764
sI29545
S'Sanchez, David'
p1765
sI29546
S'Schultz, Dave'
p1766
sI28139
S'Eaton III, Austin'
p1767
sI45961
S'Kinkopf, Michael'
p1768
sI5014
S'Austin, Mike'
p1769
sI21406
S'Alexander, Carl'
p1770
sI21407
S'Atwal, Arjun'
p1771
sI21409
S'Evans, Chris'
p1772
sI45988
S'Coletta, Brett'
p1773
sI29638
S'Gilchrist, Nate'
p1774
sI29639
S'Hutchins, Jesse'
p1775
sI21449
S'Edstrom, Reid'
p1776
sI21452
S'Scott, Steve'
p1777
sI46030
S'Puetz, Timothy'
p1778
sI46031
S'Olsen, Zachary'
p1779
sI46035
S'Shinkwin, Callum'
p1780
sI21461
S'Ferrie, Kenneth'
p1781
sI46045
S'Miller, Mike'
p1782
sI21470
S'Maruyama, Daisuke'
p1783
sI29664
S'Bisconti, Gregory'
p1784
sI46049
S'Lee, Chang-woo'
p1785
sI29670
S'Larrazabal, Pablo'
p1786
sI29675
S'McCarthy, Dan'
p1787
sI21489
S'Sato, Nobuhito'
p1788
sI21498
S'Tanihara, Hideto'
p1789
sI29700
S'Burke, James'
p1790
sI21514
S'Doyle, Matt'
p1791
sI21522
S'Heath, Rick'
p1792
sI29716
S'Welch, Mike'
p1793
sI29717
S'Carbone, Michael'
p1794
sI29718
S'Kim, Anthony'
p1795
sI46103
S'Kim, Daniel'
p1796
sI21528
S'Stenson, Henrik'
p1797
sI29723
S'Halpen, Todd'
p1798
sI29725
S'Finau, Tony'
p1799
sI46110
S'Madigan, Timothy'
p1800
sI46113
S'McCormick, Ryan'
p1801
sI21547
S'Hull, Jeff'
p1802
sI29740
S'Fritsch, Brad'
p1803
sI29741
S'Ciesielski, Victor'
p1804
sI29745
S'Aldridge, Tyler'
p1805
sI29762
S'Lepak, John'
p1806
sI29764
S'Itzen, Justin'
p1807
sI19980
S'Payne, Jim'
p1808
sI46154
S'Chang, Yi Keun'
p1809
sI10423
S'Weir, Mike'
p1810
sI29772
S'Lorenzo-Vera, Michael'
p1811
sI21581
S'Ayers, Dirk'
p1812
sI21584
S'Coughlan, Richie'
p1813
sI29780
S'Kim, Do-Hoon X.'
p1814
sI21590
S'McGrane, Damian'
p1815
sI21592
S'Murphy, Gary'
p1816
sI29792
S'Marcano, Ross'
p1817
sI29542
S'Day, Gary'
p1818
sI21608
S'Hatch, Terry'
p1819
sI30908
S'Matthews, Llewellyn'
p1820
sI2239
S'Verplank, Scott'
p1821
sI21633
S'Allan, Steve'
p1822
sI21634
S'Bladon, Warren'
p1823
sI29833
S'Fujimoto, Yoshinori'
p1824
sI51394
S'McInerney, A.J.'
p1825
sI21646
S'Branshaw, David'
p1826
sI22724
S'Maritz, Martin'
p1827
sI29851
S'Lee, Seong Ho'
p1828
sI21660
S'Schultz, Jason'
p1829
sI26822
S'Guetz, Bret'
p1830
sI46256
S'Green, Hunter'
p1831
sI21691
S'Derksen, Robert-Jan'
p1832
sI21695
S'Lafeber, Maarten'
p1833
sI29891
S'Arnold, Scott'
p1834
sI29892
S'Dartnall, Steve'
p1835
sI30924
S'Davies, Rhys'
p1836
sI21709
S'Wiemers, Chris'
p1837
sI46290
S'Binfield, Wade'
p1838
sI46292
S'Dunlap, Ty'
p1839
sI30926
S'Kirk, Chris'
p1840
sI29910
S'Adams, Blake'
p1841
sI46302
S'Kinnear, Paul'
p1842
sI21727
S'Erlandsson, Martin'
p1843
sI29920
S'Batty, Doug'
p1844
sI21730
S'Olander, Marten'
p1845
sI21731
S'Jacobson, Freddie'
p1846
sI28198
S'Bray, Dustin'
p1847
sI29926
S'Lee, Danny'
p1848
sI21736
S'Zhang, Lian-Wei'
p1849
sI29930
S'Hendry, Mike'
p1850
sI21739
S'Barber, Aaron'
p1851
sI29936
S'Fox, Ryan'
p1852
sI29938
S'Wagner, Alan'
p1853
sI29939
S'Zanotti, Fabrizio'
p1854
sI21753
S'Davis, Brian'
p1855
sI30933
S'Sorenson, Jeff'
p1856
sI29954
S'Dinwiddie, Robert'
p1857
sI46340
S'Smalley, Alex'
p1858
sI51414
S'Grant, Brent'
p1859
sI50526
S'Lovelady, Tom'
p1860
sI29970
S'Frittelli, Dylan'
p1861
sI29974
S'Grace, Branden'
p1862
sI29981
S'Mariano, Abe'
p1863
sI29982
S'Schultze, Bobby'
p1864
sI29983
S'Pellegrine, Steve'
p1865
sI29985
S'Ahokas, Antti'
p1866
sI29988
S'Harper, Kevin'
p1867
sI29989
S'Jensen, Lasse'
p1868
sI46375
S'Hemmerich, Chris'
p1869
sI21805
S'Frazar, Harrison'
p1870
sI21806
S'Gow, Paul'
p1871
sI30004
S'McGowan, Ross'
p1872
sI30005
S'Schietekat, Neil'
p1873
sI30008
S"Kruger, Jbe'"
p1874
sI22752
S'Gregory, Greg'
p1875
sI46402
S'Gooch, Talor'
p1876
sI46405
S'Soderberg, Sebastian'
p1877
sI30945
S'Pettitt, Jr., Philip'
p1878
sI21836
S'Flynn, Michael'
p1879
sI46414
S'Rai, Aaron'
p1880
sI21841
S'Jewell, Vince'
p1881
sI30947
S'Ureta, Mart\xedn'
p1882
sI30040
S'Saavedra, Sebastian L.'
p1883
sI21850
S'Griff, Darren'
p1884
sI30044
S'Costilla, Cesar'
p1885
sI30046
S'Figueroa, Fernando'
p1886
sI30050
S'Jacklin, Sean'
p1887
sI46435
S'Cook, Austin'
p1888
sI46439
S'Grimmer, Will'
p1889
sI46440
S'Kaufman, Smylie'
p1890
sI46441
S'Shelton, Robby'
p1891
sI46442
S'McNealy, Maverick'
p1892
sI46443
S'Campbell, Brian'
p1893
sI20029
S'Begay III, Notah'
p1894
sI21878
S'Wilson, Mark'
p1895
sI30074
S'Conway, Steve'
p1896
sI46459
S'Love, Sam'
p1897
sI46460
S'Jang, Dong-Kyu'
p1898
sI30079
S'Kurmel, Chad'
p1899
sI46464
S'Smith, Jordan L'
p1900
sI21893
S'Kortan, Brian'
p1901
sI21894
S'Kalinowski, Bobby'
p1902
sI30098
S'Alveiro, Max'
p1903
sI21907
S'Hazelden, Matthew'
p1904
sI46487
S'McIver, Brandon'
p1905
sI46488
S'Rainaud, Adam'
p1906
sI30106
S'Espinoza, Efren Serna'
p1907
sI23714
S'Rodiles, Carlos'
p1908
sI30109
S'Rummings, Mark'
p1909
sI30110
S'Stanley, Kyle'
p1910
sI30111
S'Regner, Mike'
p1911
sI46501
S'Schniederjans, Ollie'
p1912
sI21927
S'Wayment, Brett'
p1913
sI46504
S'Chesters, Ashley'
p1914
sI46507
S'Wyatt, Bobby'
p1915
sI46508
S'Anania, Brian'
p1916
sI46523
S'Garber, Joey'
p1917
sI21949
S'Ogilvie, Joe'
p1918
sI21951
S'Snyder III, Joey'
p1919
sI30144
S'Watabu, Casey'
p1920
sI30145
S'Womack, Dave'
p1921
sI30146
S'Smith, Michael J.'
p1922
sI24463
S'Fisher Jr, Trevor'
p1923
sI30150
S'Kelly, John M.'
p1924
sI30151
S'Mechereffe, Fernando'
p1925
sI21961
S'Howell III, Charles'
p1926
sI21969
S'Little, Euan'
p1927
sI30163
S'Norlander, Henrik'
p1928
sI46550
S'Hagy, Brandon'
p1929
sI46564
S'Moyers, Mikey'
p1930
sI46565
S'Agee, Brian'
p1931
sI46567
S'Dunne, Paul'
p1932
sI46568
S'Singleton, John'
p1933
sI46569
S'Neil, Bradley'
p1934
sI21998
S'Lawrie, Peter'
p1935
sI30191
S'Etulain, Juli\xe1n'
p1936
sI22000
S'Wood, Chris'
p1937
sI46580
S'Knoll, Raymond'
p1938
sI46581
S'Lenahan, Ryan'
p1939
sI46584
S'Lucas, Kevin'
p1940
sI46585
S'Norman, Brian'
p1941
sI46586
S'Williamson, Eric'
p1942
sI46594
S'Gouveia, Ricardo'
p1943
sI22019
S'Schwamkrug, Victor'
p1944
sI46601
S'Mullinax, Trey'
p1945
sI46606
S'Cole, Eli'
p1946
sI22032
S'Kondo, Tomohiro'
p1947
sI22034
S'Imano, Yasuharu'
p1948
sI22038
S'Perske, Wayne'
p1949
sI30237
S'Renfrew, Cory'
p1950
sI22046
S'Ogilvy, Geoff'
p1951
sI22048
S'Barr, Scott'
p1952
sI22051
S'Ferguson, Ben'
p1953
sI22056
S'Percy, Cameron'
p1954
sI28252
S'Power, Seamus'
p1955
sI30258
S'King, Corbin'
p1956
sI30261
S'Yip, Ryan'
p1957
sI47369
S'Gilley, Chris'
p1958
sI22075
S'Gonzalez, Ricardo'
p1959
sI22078
S'Lundberg, Mikael'
p1960
sI46655
S'Eggers, Jacob'
p1961
sI22080
S'Marksaeng, Prayad'
p1962
sI22081
S'Molina, Mauricio'
p1963
sI32354
S'Baek, Seuk-hyun'
p1964
sI22110
S'Wiratchant, Thaworn'
p1965
sI22114
S'Yates, Simon'
p1966
sI22115
S'Mamat, Mardan'
p1967
sI22117
S'Randhawa, Jyoti'
p1968
sI22122
S'McLardy, Andrew'
p1969
sI48102
S'Schaake, Carson'
p1970
sI46732
S'Lamb, Rick'
p1971
sI46736
S'James, Austin'
p1972
sI24178
S'Doak, Chris'
p1973
sI24179
S'Drysdale, David'
p1974
sI6431
S'Van de Velde, Jean'
p1975
sI22212
S'Lile, Craig'
p1976
sI39201
S'Elvira, Nacho'
p1977
sI22224
S'Walters, Euan'
p1978
sI35107
S'Zunic, Jordan'
p1979
sI30434
S'Urquizu, Inigo'
p1980
sI22253
S'Kiyota, Taichiro'
p1981
sI22261
S'Morales, Wilfredo'
p1982
sI22268
S'Gleeson, David'
p1983
sI46037
S'Stewart, Hunter'
p1984
sI22272
S'Lamb, Brad'
p1985
sI22275
S'Pilkadaris, Terry'
p1986
sI22276
S'Diaz, David'
p1987
sI45478
S'Suri, Julian'
p1988
sI22290
S'Bradley, Rob'
p1989
sI22293
S'Slocum, Heath'
p1990
sI22294
S'Smock, Brian'
p1991
sI22295
S'Stiles, Darron'
p1992
sI22300
S'Vomacka, Dean'
p1993
sI22313
S'Brown, Mark R.'
p1994
sI22320
S'Heaven, Bradley'
p1995
sI46046
S'Scheffler, Scottie'
p1996
sI36489
S'Collins, Will'
p1997
sI22328
S'Cayeux, Marc'
p1998
sI47662
S'DeMoss, Mookie'
p1999
sI46908
S'Anguiano, Mark'
p2000
sI36478
S'Arp, Riley'
p2001
sI46048
S'Niebrugge, Jordan'
p2002
sI46915
S'Ruiz, Gerardo'
p2003
sI22348
S"O'Hern, Nick"
p2004
sI10837
S'Burton, Kevin'
p2005
sI46932
S'Yang, Gunn'
p2006
sI28302
S'Richardson, Matthew'
p2007
sI22363
S'Yrene, Don'
p2008
sI22368
S'Gaunt, Daniel'
p2009
sI24208
S'Urquhart, Murray'
p2010
sI22371
S'Baddeley, Aaron'
p2011
sI22378
S'Immelman, Trevor'
p2012
sI22379
S'Foster, Mark B.'
p2013
sI22380
S'Worroll, Mike'
p2014
sI22388
S'Leary, John Ray'
p2015
sI6006
S'Anderson, JC'
p2016
sI22393
S'Fergin, Michael'
p2017
sI46970
S'Rahm, Jon'
p2018
sI6012
S'Kraft, Greg'
p2019
sI22400
S'Otto, Hennie'
p2020
sI21483
S'Spencer, Ian'
p2021
sI22405
S'Rose, Justin'
p2022
sI46985
S'McCullen, Haydn'
p2023
sI22414
S'Pineo, Warren'
p2024
sI50157
S'Barbaree, Philip'
p2025
sI22416
S'Beard, Michael'
p2026
sI22417
S'Choi, Jay'
p2027
sI6034
S'Dawson, Marco'
p2028
sI6036
S'Dunlap, Scott'
p2029
sI6044
S'Gump, Scott'
p2030
sI26949
S'Broadaway, Josh'
p2031
sI30626
S'Pullen, Craig'
p2032
sI6052
S'Morse, Andy'
p2033
sI22437
S'Boisvert, Robert'
p2034
sI6054
S'Pacetti, Sean'
p2035
sI6056
S'Estes, Jim'
p2036
sI22441
S'Nelson, John C.'
p2037
sI35143
S'Paolucci, Anthony'
p2038
sI30637
S'Benson, Yohann'
p2039
sI6064
S'Gallagher, Jeff'
p2040
sI6070
S'Weston, Wes'
p2041
sI6076
S'Schuman, Jim'
p2042
sI6078
S'Toledo, Esteban'
p2043
sI6080
S'Manning, Eric'
p2044
sI47041
S'Backel, Camden'
p2045
sI6088
S'Gotsche, Steve'
p2046
sI22473
S'Flinton, Kyle'
p2047
sI6090
S'McGovern, Jim'
p2048
sI22475
S'Wilson, Steve'
p2049
sI30669
S'Puska, Jeff'
p2050
sI7843
S'Seitz, Matt'
p2051
sI47061
S'Gana, Toto'
p2052
sI6102
S'Castillo, Ron'
p2053
sI30680
S'Weintraub, Isaac'
p2054
sI30683
S'Schneider, Cory'
p2055
sI30685
S'Abel, Derek'
p2056
sI30692
S'Stallings, Scott'
p2057
sI22508
S'Behr, Stephen'
p2058
sI6128
S'Lamontagne, Steve'
p2059
sI47443
S'Lee, Junghwan'
p2060
sI6132
S'Skinner, Sonny'
p2061
sI30711
S'Knost, Colt'
p2062
sI6136
S'Schuchart, Mike'
p2063
sI6140
S'Murphy, Sean'
p2064
sI6142
S'Adcock, Mitch'
p2065
sI6150
S'Cooper, Carl'
p2066
sI22540
S'Wall, Anthony'
p2067
sI30736
S'Fraustro, Oscar'
p2068
sI39256
S'Stoltz, John'
p2069
sI22548
S'Sheehan, Patrick'
p2070
sI30741
S'Lowry, Randy'
p2071
sI47126
S'McConnell, Paul'
p2072
sI47127
S'Pastore, David'
p2073
sI47128
S'Werenski, Richy'
p2074
sI47131
S'Crouch, Timothy'
p2075
sI47133
S'Geyer, Ben'
p2076
sI30750
S'Gainey, Tommy'
p2077
sI30751
S'Leon, Tyler'
p2078
sI30756
S'Pavan, Andrea'
p2079
sI6197
S'Allen, Michael'
p2080
sI22582
S'Thompson, Kyle'
p2081
sI22584
S'Shacklady, David'
p2082
sI28340
S'Guerrier, Julien'
p2083
sI6208
S'Bartoletti, Louis'
p2084
sI6210
S'Bauman, Doug'
p2085
sI33803
S'Bjerregaard, Lucas'
p2086
sI6214
S'Boros, Guy'
p2087
sI38985
S'Fox, Steven'
p2088
sI6220
S'Brigman, Jaxon'
p2089
sI30798
S'Takeya, Yoshitaka'
p2090
sI39004
S'Love, Dru'
p2091
sI22621
S'Curtis, Ben'
p2092
sI22624
S'Kribel, Joel'
p2093
sI30819
S'Riu, Victor'
p2094
sI22628
S'Sutcliffe, Nevin'
p2095
sI30824
S'Choi, Andy G.'
p2096
sI30826
S"O'Leary, John"
p2097
sI6251
S'DiMarco, Chris'
p2098
sI39021
S'Hattori, Richard'
p2099
sI47225
S'Kennedy, Ryan B.'
p2100
sI39040
S'Griffith, Glen'
p2101
sI47234
S'Suppa, Kyle'
p2102
sI47235
S'Okamura, Garrett'
p2103
sI30852
S'Ishikawa, Ryo'
p2104
sI47238
S'Janewattananond, Jazz'
p2105
sI47239
S'Khongwatmai, Phachara'
p2106
sI12757
S'Genovese, Mike'
p2107
sI30860
S'Sonoda, Shunsuke'
p2108
sI29720
S'Gonzales, Andres'
p2109
sI51567
S'Cannon, Will'
p2110
sI47472
S'Maguire, MJ'
p2111
sI6306
S'Jacklin, Tony'
p2112
sI39075
S'Villarreal, Armando'
p2113
sI39281
S'Wonnell, Clayton'
p2114
sI6315
S'Jordan, Pete'
p2115
sI6320
S'Kelley, Tony'
p2116
sI6322
S'Keymont, Mike'
p2117
sI6323
S'King, Kevin'
p2118
sI30901
S'Burgin, Kelvin'
p2119
sI22711
S'Haverland, Butch'
p2120
sI30907
S'Enoch, Rhys'
p2121
sI6332
S'Lancaster, Neal'
p2122
sI30909
S'Horsey, David'
p2123
sI30911
S'Fleetwood, Tommy'
p2124
sI30913
S'Hanson, Chris'
p2125
sI30916
S'Laskey, Mark'
p2126
sI22732
S'Rowell, Brian'
p2127
sI30925
S'Johnson, Dustin'
p2128
sI6350
S'May, Bob'
p2129
sI30927
S'Todd, Brendon'
p2130
sI30930
S'Harris, Ty'
p2131
sI6357
S'Meade, Charlie'
p2132
sI22742
S'Irwin, Steve'
p2133
sI22746
S'Young, Steven'
p2134
sI30940
S'Berg, Michael'
p2135
sI30941
S'Condello, Chris'
p2136
sI30942
S'Golden, Jeff'
p2137
sI30943
S'Harrell, Mark'
p2138
sI30944
S'Kokrak, Jason'
p2139
sI22753
S'Fauchier, Ryan'
p2140
sI30946
S'Prugh, Alex'
p2141
sI22755
S'Faught, David'
p2142
sI6373
S'Olaz\xe1bal, Jos\xe9 Mar\xeda'
p2143
sI47336
S'Hopper, Michael'
p2144
sI22764
S'Block, Michael'
p2145
sI30957
S'Kieffer, Maximilian'
p2146
sI30958
S'Saltman, Elliot'
p2147
sI47347
S'Schenk, Adam'
p2148
sI30964
S'Corfield, Lee'
p2149
sI47353
S'Olson, Blake'
p2150
sI39295
S'Gilman, Chris'
p2151
sI6401
S'Schiene, Marty'
p2152
sI30978
S'Aphibarnrat, Kiradech'
p2153
sI47363
S'Tree, Toby'
p2154
sI22789
S'Cairns, Brian'
p2155
sI22792
S'Hanson, Peter'
p2156
sI6409
S'Sherfy, Brad'
p2157
sI30996
S'Baldwin, Mark'
p2158
sI22806
S'LaBelle II, Doug'
p2159
sI31007
S'Parr, Andrew'
p2160
sI1072
S'Beck, Chip'
p2161
sI31111
S'Coupland, David'
p2162
sI22830
S'Smith, Mark'
p2163
sI47420
S'Knapp, Jake'
p2164
sI22849
S'DeVoll, Casey'
p2165
sI22850
S'Guetz, Brian'
p2166
sI31115
S'Matsumura, Michio'
p2167
sI31044
S'Harmon, Matt'
p2168
sI6475
S'Klein, Jeff'
p2169
sI35213
S'Echavarria, Andres'
p2170
sI39251
S'Ruffels, Ryan'
p2171
sI6488
S'Patton, Chris'
p2172
sI22876
S'Dully, Frank'
p2173
sI22878
S'Marsh, Kevin'
p2174
sI47504
S'Burns, Sam'
p2175
sI6498
S'Peterson, Matt'
p2176
sI47461
S'Kozan, Andrew'
p2177
sI33223
S'Han, Chang-won'
p2178
sI31121
S'Henson, Berry'
p2179
sI22892
S'Gore, Jason'
p2180
sI47470
S'Sorensen, Chad'
p2181
sI22896
S'Havret, Gregory'
p2182
sI6513
S'Allard, Ken'
p2183
sI6514
S'Johnson, Kevin'
p2184
sI6515
S'Micheel, Shaun'
p2185
sI22585
S'Wesselingh, Paul'
p2186
sI6522
S'Els, Ernie'
p2187
sI47483
S'Zalatoris, Will'
p2188
sI6526
S'Henley, Kip'
p2189
sI6527
S'Stricker, Steve'
p2190
sI22913
S'Rollins, John'
p2191
sI31108
S'Mulder, Brock'
p2192
sI31109
S'Lee, Richard T.'
p2193
sI6535
S'Bermel, John'
p2194
sI31113
S'Waring, Paul'
p2195
sI31114
S'Weaver, Drew'
p2196
sI6539
S'Price, Rick'
p2197
sI31120
S'Baker, Mark'
p2198
sI22929
S'Welborn, Ryan'
p2199
sI22932
S'Ray, Conrad'
p2200
sI35225
S'Stone, Brandon'
p2201
sI39324
S'Spaun, J.J.'
p2202
sI39327
S'Silverman, Ben'
p2203
sI39328
S'Shindler, Conrad'
p2204
sI22946
S'Bjornstad, Henrik'
p2205
sI31141
S'Maybin, Gareth'
p2206
sI6566
S'Gomez, Jaime'
p2207
sI6567
S'Singh, Vijay'
p2208
sI47528
S'Golding, Kevin'
p2209
sI47516
S'Beale, James'
p2210
sI6573
S'Jobe, Brandt'
p2211
sI6575
S'Hart, Dudley'
p2212
sI22961
S'Mathis, David'
p2213
sI6581
S'Sutherland, David'
p2214
sI39356
S'Moon, Alex'
p2215
sI31166
S'Amundsen, William'
p2216
sI39359
S'Miller, Brad'
p2217
sI6593
S'Ulrich, Gus'
p2218
sI6595
S'Sutherland, Kevin'
p2219
sI22983
S'Dredge, Bradley'
p2220
sI22986
S'Kjeldsen, S\xf8ren'
p2221
sI48887
S'Wallace, Matt'
p2222
sI31138
S'Jamieson, Scott'
p2223
sI47567
S'Polland, Ben'
p2224
sI47568
S'Reed, Curtis'
p2225
sI7585
S'Evenson, Mark'
p2226
sI27043
S'Devlin, Chris'
p2227
sI6613
S'Tolles, Tommy'
p2228
sI31190
S'Williamson, Peter'
p2229
sI39384
S'Kang, Alex'
p2230
sI6617
S'Henninger, Brian'
p2231
sI1103
S'Bolling, Charles'
p2232
sI6621
S'Durant, Joe'
p2233
sI31202
S'McGirt, William'
p2234
sI31203
S'Taylor, Chris'
p2235
sI20952
S'Golding, Philip'
p2236
sI6631
S'McCorkle, Todd'
p2237
sI22951
S'Yano, Azuma'
p2238
sI28413
S'Chestnut, Jimmy'
p2239
sI6643
S'Goydos, Paul'
p2240
sI39412
S'Fischer, Zack'
p2241
sI39337
S'Rende, Derek'
p2242
sI31225
S'Sjoholm, Joel'
p2243
sI23034
S'Schwarzrock, Brent'
p2244
sI23036
S'Anderson, Chris'
p2245
sI23037
S'Robertson, John'
p2246
sI6655
S'Sisk, Geoffrey'
p2247
sI23042
S'Felton, Kim'
p2248
sI23043
S'Sheehan, Paul'
p2249
sI47622
S'Robledo, Roman'
p2250
sI23048
S'Axley, Eric'
p2251
sI23063
S'Hend, Scott'
p2252
sI35233
S'Messer, Kevin'
p2253
sI47643
S'Lopez, Lance'
p2254
sI47644
S'Harvey, Scott'
p2255
sI39460
S'Bouniol, Cyril'
p2256
sI1116
S'Bradley, Michael'
p2257
sI28423
S'Long, Travis'
p2258
sI51634
S'Theegala, Sahith'
p2259
sI39470
S'Jung, Richard'
p2260
sI47663
S'Dougherty, Kevin'
p2261
sI23089
S'Anderson, Billy'
p2262
sI47666
S'Edmondson, Zachary'
p2263
sI23091
S'Morin, Alan'
p2264
sI39480
S'Vogel, T.J.'
p2265
sI23097
S'Parel, Scott'
p2266
sI39489
S'Massa, Bobby'
p2267
sI23108
S'Kuchar, Matt'
p2268
sI23110
S'Sanday, Jeff'
p2269
sI6729
S'Marrello, Fran'
p2270
sI6731
S'Roth, Jeff'
p2271
sI23122
S'Castillo, Jr., Ron'
p2272
sI23123
S'Nutt, Bret'
p2273
sI23125
S'Elder, Brad'
p2274
sI31319
S'Bertoni, Travis'
p2275
sI6745
S'Hungate, Cary'
p2276
sI31323
S'Woodland, Gary'
p2277
sI6749
S'Vucinich, Roy'
p2278
sI23135
S'Clark, Tim'
p2279
sI23141
S'Neher, Jamie'
p2280
sI47721
S'Howard, Paul'
p2281
sI39531
S'Looper, Ken'
p2282
sI39537
S'Naegel, Chris'
p2283
sI23157
S'Johnson, Richard'
p2284
sI50281
S'Robbins, Kyle'
p2285
sI23162
S'Wakefield, Simon'
p2286
sI23165
S'Kamiyama, Takashi'
p2287
sI47742
S'Schoolcraft, Michael'
p2288
sI23167
S'Chand, Dinesh'
p2289
sI47745
S'Steffen, Zach'
p2290
sI6787
S'Norris, Paul'
p2291
sI35142
S'Saka, David'
p2292
sI23174
S'Narro, Jake'
p2293
sI6791
S'Wurtz, Mark'
p2294
sI23177
S'Staton, Kenneth'
p2295
sI6795
S'Freeman, Jeff'
p2296
sI6799
S'Hogarth, Tim'
p2297
sI6809
S'Burns, Bob'
p2298
sI23204
S'Christian, Gary'
p2299
sI23208
S'Larrazabal, Alejandro'
p2300
sI31401
S'Miller, Zack'
p2301
sI6599
S'Elliott, John'
p2302
sI35234
S'Bardgett, Justin'
p2303
sI47791
S'Howe, T.J.'
p2304
sI23217
S'Maness, Michael'
p2305
sI23218
S'Summerhays, Joseph'
p2306
sI6835
S'Blean, Bob'
p2307
sI31416
S'Fathauer, Derek'
p2308
sI31417
S'Fathauer, Daryl'
p2309
sI31420
S'Lahiri, Anirban'
p2310
sI6847
S'Synkelma, Jay'
p2311
sI23236
S'Streeter, Paul'
p2312
sI31433
S'Garrity, Ryan'
p2313
sI33911
S'Smith, Nate'
p2314
sI31437
S'Rogers, Chris'
p2315
sI47565
S'Myers II, Clay'
p2316
sI23250
S'Parris, Darren'
p2317
sI47828
S'Lim, Thomas'
p2318
sI23255
S'Johnson, Audie'
p2319
sI31449
S'Corr, Jeff'
p2320
sI29819
S'Dresser, Andrew'
p2321
sI23269
S'George, Andrew'
p2322
sI35281
S'Panzeri, Joe'
p2323
sI28455
S'Claxton, Will'
p2324
sI23290
S'Johnson, Andrew'
p2325
sI47574
S'Strohmeyer, Scott'
p2326
sI23305
S'Bensel, Frank'
p2327
sI23307
S'Tambellini, Roger'
p2328
sI31193
S'Renner, Jim'
p2329
sI23320
S'Palmer, Ryan'
p2330
sI23322
S'Wetterich, Brett'
p2331
sI23324
S'Allen, Jason'
p2332
sI23325
S'Taylor, Vaughn'
p2333
sI47906
S'Connelly, Austin'
p2334
sI31525
S'Ormand, Robby'
p2335
sI23338
S'Gossett, David'
p2336
sI23349
S'Warren, Charles'
p2337
sI23351
S'MacKellar, Bryant'
p2338
sI35148
S'Smith, Brandon'
p2339
sI23353
S'Henry, J.J.'
p2340
sI23364
S'Ueda, Yui'
p2341
sI31557
S'Herman, Jim'
p2342
sI23366
S'Gaffney, Brian'
p2343
sI31559
S'Osborn, Garrett'
p2344
sI31560
S'Stuard, Brian'
p2345
sI23373
S'Hoey, Michael'
p2346
sI23376
S'Kamin, Chris'
p2347
sI47953
S'Yates, Greg'
p2348
sI47958
S"O'Dell, Sam"
p2349
sI47959
S'DeChambeau, Bryson'
p2350
sI7001
S'Sneve, J.B.'
p2351
sI23386
S'Roesch, David'
p2352
sI7003
S'Berganio, Jr., David'
p2353
sI31587
S'Alverio, Max'
p2354
sI23397
S'Sutton, Fred'
p2355
sI31590
S'Cabrera, Federico'
p2356
sI47983
S'Ramey, Chad'
p2357
sI23409
S'Driscoll, James'
p2358
sI47986
S'Berberian, Jr., Rich'
p2359
sI47987
S'Hammer, Cole'
p2360
sI47988
S'Hardy, Nick'
p2361
sI36670
S'Fly, Jonathan'
p2362
sI47990
S'Jones, Kyle'
p2363
sI47992
S'Mabrey, Matt'
p2364
sI7033
S'Prowse, Dean'
p2365
sI47994
S'McCoy, Lee'
p2366
sI47995
S'Riley, Davis'
p2367
sI47996
S'Maguire, Jack'
p2368
sI20289
S'Deruntz, Robert'
p2369
sI31627
S'Baek, Todd'
p2370
sI7053
S'Fleming, Tim'
p2371
sI39826
S'Jin, Cheng'
p2372
sI36675
S'Yamamoto, Yoshio'
p2373
sI27118
S'Muto, Toshinori'
p2374
sI31640
S'Boyd, Gary'
p2375
sI48026
S'Vervaecke, Zack'
p2376
sI35311
S'Bigley, Bryan'
p2377
sI23452
S'Colsaerts, Nicolas'
p2378
sI31646
S'Grillo, Emiliano'
p2379
sI32581
S'Dean, Brad'
p2380
sI31652
S'Cocha, Tommy'
p2381
sI7077
S'Marchand, David'
p2382
sI31654
S'Estevez, Joaquin'
p2383
sI23465
S'Gustafsson, Peter'
p2384
sI23466
S'Hultman, Anders'
p2385
sI35314
S'Sullivan, Andy'
p2386
sI48052
S'Rottluff, Max'
p2387
sI23477
S'Hebert, Scott'
p2388
sI31670
S'Griffin, Matthew'
p2389
sI31672
S'Nisbet, Daniel'
p2390
sI7097
S'Harding, Tom'
p2391
sI7101
S'Stockton, Jr., Dave'
p2392
sI31678
S'Bekker, Oliver'
p2393
sI31686
S'Ching, Alex'
p2394
sI31688
S'Kim, Kenny'
p2395
sI23497
S'Ridings, Tag'
p2396
sI39882
S'Kim, Alex'
p2397
sI23501
S'Doan, Cameron'
p2398
sI48081
S'Schauffele, Xander'
p2399
sI48083
S'Green, Garland'
p2400
sI48084
S'Bryan, Wesley'
p2401
sI23517
S'Jensen, Clint'
p2402
sI48095
S'Rank, Garrett'
p2403
sI7139
S'Girouard, Marc'
p2404
sI23526
S'Senecal, Kevin'
p2405
sI28497
S'Pare, Troy'
p2406
sI25767
S"O'Hara, Steven"
p2407
sI23532
S'PomArleau, Kevin'
p2408
sI23533
S'Kang, Anthony'
p2409
sI23540
S'Allred, Jason'
p2410
sI23541
S'Crane, Ben'
p2411
sI23542
S'Biershenk, Tommy'
p2412
sI48119
S'Taylor, Ben'
p2413
sI48120
S'Young, Mark'
p2414
sI23548
S'Lunde, Bill'
p2415
sI23552
S'Kuehne, Hank'
p2416
sI48135
S'Hamilton, Blair'
p2417
sI48137
S'Venezio, Daniel'
p2418
sI48138
S'Snyder, Brent'
p2419
sI48139
S'Peters, Austin'
p2420
sI23568
S'Ming, Chris'
p2421
sI39953
S'Seiffert, Chase'
p2422
sI39954
S'Gribble, Cody'
p2423
sI7187
S'Philo, Jr., Ron'
p2424
sI23573
S'Tanner, Todd'
p2425
sI39958
S'Wang, Jeunghun'
p2426
sI48153
S'Pavon, Matthieu'
p2427
sI23580
S'Hiratsuka, Tetsuji'
p2428
sI33968
S'Olesen, Thorbj\xf8rn'
p2429
sI7205
S'Simonsen, Henrik'
p2430
sI39974
S'Ihm, Steven'
p2431
sI39975
S'Kim, Michael'
p2432
sI39976
S'McElyea, Cory'
p2433
sI39977
S'Homa, Max'
p2434
sI39978
S'Hahn, John'
p2435
sI23598
S'Kohut, J.T.'
p2436
sI47624
S'Ruiz, Johnny'
p2437
sI33971
S'Sanchez, Isaac'
p2438
sI39990
S'Bilodeau, Kyle'
p2439
sI7223
S'Bateman, Brian'
p2440
sI20468
S'Bossert, Andre'
p2441
sI23612
S'McGuigan, Doug'
p2442
sI23613
S'Barcelo, Rich'
p2443
sI23614
S'Beem, Rich'
p2444
sI23616
S'Hietala, Ryan'
p2445
sI7233
S'Boyle, Bob'
p2446
sI7235
S'Morse, John'
p2447
sI23621
S'Sabbatini, Rory'
p2448
sI23623
S'Van Pelt, Bo'
p2449
sI23624
S'Hansen, Soren'
p2450
sI40009
S'Bozzelli, Dominic'
p2451
sI40010
S'Brewbaker, Fielding'
p2452
sI40011
S'Millard, Jason'
p2453
sI23633
S'Schmitt, Phil'
p2454
sI23638
S'de Jonge, Brendon'
p2455
sI40026
S'Berger, Daniel'
p2456
sI40028
S'Shin, Justin'
p2457
sI7267
S'Doyle, Allen'
p2458
sI7271
S'Muntz, Rolf'
p2459
sI23656
S'Caron, Jason'
p2460
sI40055
S'Obremski, Daniel'
p2461
sI40056
S'Zylstra, Ryan'
p2462
sI23673
S'Connell, Michael'
p2463
sI40058
S'Blair, Zac'
p2464
sI1215
S'Coody, Charles'
p2465
sI23688
S'Drummond, Scott'
p2466
sI23692
S'Raitt, Andrew'
p2467
sI7309
S'Bryan, George'
p2468
sI20702
S'Higgins, David'
p2469
sI23699
S'Chia, Danny'
p2470
sI23706
S'Ismail, Rashid'
p2471
sI23712
S'Pilkington, Mark'
p2472
sI40098
S'Fitzpatrick, Matthew'
p2473
sI39451
S'Redfield, Alex'
p2474
sI23718
S'Green, Nathan'
p2475
sI40104
S'Stalter, Joel'
p2476
sI40105
S'Rau, Nathaniel'
p2477
sI53164
S'Lee, Gyu Min'
p2478
sI23725
S'Jones, Brendan'
p2479
sI40115
S'Svensson, Adam'
p2480
sI10883
S'Rudosky, Micah'
p2481
sI29897
S'Blizard, Rohan'
p2482
sI23739
S'Dillon, Ryan'
p2483
sI48319
S'Whitney, Tom'
p2484
sI7363
S'Bowden, Craig'
p2485
sI29291
S'Chun, Eric'
p2486
sI29901
S'Stewart, Tim'
p2487
sI40148
S'Banks, Eric'
p2488
sI23770
S'Moore, Will'
p2489
sI7393
S'Toulson, Chris'
p2490
sI23778
S'Adamonis, Brad'
p2491
sI36799
S'Jaeger, Stephan'
p2492
sI23783
S'Aguilar, Felipe'
p2493
sI23788
S'Trahan, D.J.'
p2494
sI23790
S'De La Riva, Eduardo'
p2495
sI23795
S'Masuda, Nobuhiro'
p2496
sI23797
S'Rumford, Brett'
p2497
sI31273
S'Green, Gavin Kyle'
p2498
sI23800
S'Molder, Bryce'
p2499
sI29908
S'Pan, C.T.'
p2500
sI23802
S'Kennedy, Brad'
p2501
sI40188
S'McNabb, David'
p2502
sI40189
S'Muttitt, David'
p2503
sI40190
S'Polzin, Ryan'
p2504
sI26707
S'Elson, Jamie'
p2505
sI50390
S'Cutler, Steve'
p2506
sI23814
S'Molinari, Edoardo'
p2507
sI23821
S'Miyazato, Yusaku'
p2508
sI23824
S'Thomson, Oliver'
p2509
sI7445
S'Schultz, Dirk'
p2510
sI40216
S'Brown, Hunter'
p2511
sI23834
S'Lucquin, Jean-Francois'
p2512
sI23835
S'Ludwell, Nick'
p2513
sI1242
S'Curl, Rod'
p2514
sI47985
S'Becher, Jared'
p2515
sI7457
S'Flesch, Steve'
p2516
sI23844
S'Frayne, Adam'
p2517
sI23848
S'Iredell, Tom'
p2518
sI7465
S'Kase, Hideki'
p2519
sI7467
S'Gilmore, Mike'
p2520
sI23857
S'Cheetham, Neil'
p2521
sI6707
S'Casagranda, Greg'
p2522
sI32054
S'Hicks, Justin B.'
p2523
sI32055
S'Kodama, Mathew'
p2524
sI32056
S'Campbell, Peter'
p2525
sI32058
S'Rodr\xedguez, Jos\xe9 de Jes\xfas'
p2526
sI23874
S'Schuster, Tino'
p2527
sI8075
S'Kelly, Jerry'
p2528
sI23878
S'Barnes, Andrew'
p2529
sI34017
S'Hack, Jhared'
p2530
sI23885
S'Challen, Charles'
p2531
sI49037
S'Mazzoli, Stefano'
p2532
sI32080
S'Cavanagh, Santiago'
p2533
sI32081
S'Scott, Drew'
p2534
sI31289
S'Alvarado, Benjamin'
p2535
sI15704
S'Holmes, David'
p2536
sI23899
S'Mulhearn, Danny'
p2537
sI23903
S'Gangluff, Stephen'
p2538
sI32101
S'Olive, Patrick'
p2539
sI32102
S'Fowler, Rickie'
p2540
sI32103
S'Stoltz, Drew'
p2541
sI23913
S'Kobayashi, Masanori'
p2542
sI7531
S'Wallace, Harold'
p2543
sI32115
S'Brooks, Daniel'
p2544
sI23926
S'Cantwell, Jr., Tim'
p2545
sI23929
S'Scaletta, Paul'
p2546
sI7547
S'Kanada, Craig'
p2547
sI23933
S'Boyd, Michael'
p2548
sI32139
S'Willett, Danny'
p2549
sI7569
S'Carnevale, Mark'
p2550
sI7571
S'Grisette, Uly'
p2551
sI32150
S'Thompson, Michael'
p2552
sI32152
S'Hart, Adam'
p2553
sI32154
S'Ellebye, Peter'
p2554
sI23969
S'Storm, Graeme'
p2555
sI23979
S'Gibb, Judd'
p2556
sI23980
S'Winkel, Chris'
p2557
sI1266
S'Dennis, Clark'
p2558
sI23982
S'Bevan, Jon'
p2559
sI23983
S'Donald, Luke'
p2560
sI23984
S'Scotland, Zane'
p2561
sI27765
S'Alvarez, Oscar'
p2562
sI32190
S'Smith, Jesse'
p2563
sI32193
S'Im, Daniel'
p2564
sI32199
S'Borchert, Matthew'
p2565
sI32200
S'Castro, Roberto'
p2566
sI32210
S'Murphy, Trevor'
p2567
sI32215
S'Garcia Pinto, Jordi'
p2568
sI24024
S'Johnson, Zach'
p2569
sI10831
S'Meyer, Greg'
p2570
sI35408
S'Wheeldon, Riley'
p2571
sI24039
S'Meesawat, Prom'
p2572
sI32235
S'Kim, Gi-Whan'
p2573
sI25351
S'Rodgers, Chris'
p2574
sI32249
S'Mitchell, Daniel'
p2575
sI7677
S'Mucha, Bob'
p2576
sI32254
S'Zhang, Xinjun'
p2577
sI6741
S'Fieger, Gene'
p2578
sI32257
S'Dvorak, Doug'
p2579
sI32260
S'Long, David'
p2580
sI32262
S'Brown, Mark'
p2581
sI7687
S'Kealey, Craig'
p2582
sI7689
S'Dell, David'
p2583
sI35415
S'Cornelson, Adam'
p2584
sI24077
S'Millar, Matthew'
p2585
sI24080
S'Strange, Scott'
p2586
sI24083
S'Fraser, Marcus'
p2587
sI7701
S'Baker, Mike'
p2588
sI23129
S'Bain, Ross'
p2589
sI29956
S'Garcia, Federico'
p2590
sI7707
S'Small, Mike'
p2591
sI7721
S'Bates, Pat'
p2592
sI10845
S'Oakley, Pete'
p2593
sI24115
S'Inoue, Makoto'
p2594
sI32310
S'Moran, Scott'
p2595
sI32312
S'Hampshire, Travis'
p2596
sI24121
S'Matthews, Andy'
p2597
sI24122
S'Rossetti, Todd'
p2598
sI48705
S'Ward, Dalton'
p2599
sI48707
S'Wolfes, Scott'
p2600
sI7749
S'Quigley, Brett'
p2601
sI32329
S'Poole, Stephen'
p2602
sI24138
S'Poulter, Ian'
p2603
sI32331
S'Blakefield, Mark'
p2604
sI32332
S'Larsen, Kevin'
p2605
sI32333
S'Tway, Kevin'
p2606
sI32334
S'Beljan, Charlie'
p2607
sI32335
S'Bergstol, Brian'
p2608
sI32336
S'Silva, Kevin'
p2609
sI32337
S'Bors, Jeffrey'
p2610
sI32338
S'Quagliano, Michael'
p2611
sI7763
S'Dunakey, Doug'
p2612
sI32340
S'Henderson, Jimmy'
p2613
sI32341
S'Chaussard, Garrett'
p2614
sI32342
S'Wilson, Jeff'
p2615
sI32343
S'Cox, Jordan'
p2616
sI24155
S'Hogue, Ryan'
p2617
sI24162
S'Kai, Shintaro'
p2618
sI8123
S'Brehaut, Jeff'
p2619
sI7781
S'Armstrong, Ty'
p2620
sI32366
S'Chappell, Kevin'
p2621
sI32367
S'Campillo, Jorge'
p2622
sI32369
S'Kim, Sihwan'
p2623
sI32370
S'Gruss, Andrew'
p2624
sI7795
S'Massey, Richard'
p2625
sI32373
S'Haylock, Thomas'
p2626
sI24184
S'Forsyth, Alastair'
p2627
sI7801
S'Lamb, Brian'
p2628
sI7803
S'McDonald, Bill'
p2629
sI24191
S'Marshall, Andrew'
p2630
sI30812
S'Hebert, Benjamin'
p2631
sI32406
S'Gross, Stephan'
p2632
sI24218
S'Lee, Han'
p2633
sI24219
S'Heffernan, Wes'
p2634
sI7837
S'Nelson, Kirk'
p2635
sI32416
S'Fox, Benjamin'
p2636
sI24227
S'Bolli, Justin'
p2637
sI32421
S'Wattel, Romain'
p2638
sI24236
S'Dougherty, Nick'
p2639
sI24237
S'Griffiths, David'
p2640
sI24238
S'Tateyama, Mitsuhiro'
p2641
sI35443
S'Patterson, Brett'
p2642
sI24245
S'Woods, Jim'
p2643
sI48822
S'Mu\xf1oz, Sebasti\xe1n'
p2644
sI24247
S'Huber, Keith'
p2645
sI7867
S'Austin, Woody'
p2646
sI32448
S'Hahn, James'
p2647
sI32455
S'Knight, Michael'
p2648
sI20429
S'Summerhays, Boyd'
p2649
sI20431
S'Brown, Charlie'
p2650
sI39546
S'Mitchell, Keith'
p2651
sI24289
S'Sellers, Kelly'
p2652
sI24290
S'Brigman, D.J.'
p2653
sI35451
S'Pinckney, Scott'
p2654
sI32485
S'Dougherty, Sean'
p2655
sI32493
S'Stal, Gary'
p2656
sI32495
S'Grube, Rob'
p2657
sI32496
S'Rask, Clayton'
p2658
sI25896
S'Benzel, Ryan'
p2659
sI32503
S'Slover, Cody'
p2660
sI32505
S'Williams, Ryan'
p2661
sI32507
S'Carroll, Brian'
p2662
sI32508
S'Proehl, Chad'
p2663
sI32509
S'Appleyard, Peter'
p2664
sI32510
S'Howarth, Jamie'
p2665
sI32511
S'Sherreard, Thomas'
p2666
sI32512
S'Woltman, Dan'
p2667
sI24321
S'Ichihara, Kodai'
p2668
sI7939
S'Olsen, Dan'
p2669
sI7941
S'Grob, Mike'
p2670
sI32526
S'Esler, Josh'
p2671
sI7951
S'Chipokas, Scott'
p2672
sI32528
S'Tyler, Nathan'
p2673
sI36824
S'Peterson, Paul'
p2674
sI32530
S'Johnston, Mike'
p2675
sI32531
S'Landreville, Eric'
p2676
sI32532
S'Villegas, Manuel'
p2677
sI32543
S'Woo, Charlie'
p2678
sI32544
S'Scriven, Jacob'
p2679
sI24356
S'Buha, Jason'
p2680
sI24357
S'Choi, K.J.'
p2681
sI24358
S'Garrigus, Robert'
p2682
sI34097
S'Shinaut, Tyson'
p2683
sI24361
S'Perez, Pat'
p2684
sI23175
S"O'Neal, Timothy"
p2685
sI24364
S'Little, Sam'
p2686
sI24368
S'Yeh, Wei-Tze'
p2687
sI34099
S'English, Harris'
p2688
sI31363
S'Colomo, Javier'
p2689
sI39563
S'Davan, Michael'
p2690
sI24389
S'Remesy, Jean-Francois'
p2691
sI32582
S'Dugas, Eric'
p2692
sI24398
S'Johnson, Rob'
p2693
sI24399
S'Gardiner, Scott'
p2694
sI32594
S'Farr, Oliver'
p2695
sI32616
S'Graham, Wesley'
p2696
sI32617
S'Turner, Jerod'
p2697
sI32618
S'Gibson, Rhein'
p2698
sI24427
S'Downes, Chris'
p2699
sI32620
S'Peck, Cameron'
p2700
sI8045
S'Moss, Perry'
p2701
sI32622
S'Baldwin, Matthew'
p2702
sI24435
S'Doyle, Martin'
p2703
sI32630
S'Smith, Robin'
p2704
sI8057
S'Wilson, Brian'
p2705
sI1343
S'Fiedler, Jon'
p2706
sI8063
S'Grunewald, Kelly'
p2707
sI32640
S'Merritt, Troy'
p2708
sI24449
S'McLachlin, Parker'
p2709
sI8067
S'Gibson, John'
p2710
sI24452
S'Douma, John'
p2711
sI32647
S'Boudreau, Ben'
p2712
sI24457
S'Van Zyl, Jaco'
p2713
sI24459
S'Sterne, Richard'
p2714
sI24460
S'Wellington, Ross'
p2715
sI24461
S'Aiken, Thomas'
p2716
sI49038
S'Cianchetti, Luca'
p2717
sI8079
S'March, Gary'
p2718
sI8083
S'Combs, Michael'
p2719
sI32662
S'Gligic, Michael'
p2720
sI8089
S'Sheehan, Butch'
p2721
sI32666
S'Baillargeon, Graham'
p2722
sI32667
S'Doherty, Greg'
p2723
sI24486
S'Short, Adam'
p2724
sI32753
S'Huang, Wenyi'
p2725
sI24490
S'McNeill, George'
p2726
sI24491
S'Pearson, Michael'
p2727
sI24494
S'Compton, Erik'
p2728
sI10909
S'Crowder, Rett'
p2729
sI24496
S'Hauer, Brad'
p2730
sI24502
S'Scott, Adam'
p2731
sI24503
S'Klauk, Jeff'
p2732
sI24505
S'Boner, Brett'
p2733
sI32698
S'Gates, Bobby'
p2734
sI24507
S'Bohn, Jason'
p2735
sI32701
S'Burke, Cam'
p2736
sI24511
S'Jaidee, Thongchai'
p2737
sI24512
S'Dyson, Simon'
p2738
sI49091
S'Solomon, David'
p2739
sI34126
S'Vincent, Scott'
p2740
sI24536
S'Summers, Anthony'
p2741
sI24537
S'Archer, Philip'
p2742
sI24540
S'Rogers, Jacob'
p2743
sI32741
S'McCabe, Michael'
p2744
sI35461
S'Hossler, Beau'
p2745
sI24561
S'Corcoran, Rob'
p2746
sI24562
S'Ouellette, Ryan'
p2747
sI32757
S'Kizzire, Patton'
p2748
sI32758
S'Mawjii, Abs'
p2749
sI49147
S'Hallberg, Eric'
p2750
sI49149
S'Giacomazzi, Dino'
p2751
sI8191
S'Broadhurst, Paul'
p2752
s.