(dp0
I8193
S'Weir, Ben'
p1
sI40099
S'Mullen, Jimmy'
p2
sI32775
S'Imahira, Shugo'
p3
sI24586
S'Barham, Benn'
p4
sI8215
S'Schneiter, Steve'
p5
sI24604
S'Haas, Hunter'
p6
sI32800
S'Corpening, Franklin'
p7
sI24610
S'Deane, Stuart'
p8
sI49191
S'Cooper, Cory'
p9
sI24617
S'Gomez, Rafael'
p10
sI36871
S'NeSmith, Matthew'
p11
sI32815
S'Kawamura, Masahiro'
p12
sI32816
S'Kodaira, Satoshi'
p13
sI34142
S'Ring, Willis'
p14
sI32831
S'Goldberg, Aaron'
p15
sI32838
S'Kohn, Matthew'
p16
sI32839
S'Matsuyama, Hideki'
p17
sI24663
S'Yang, Y.E.'
p18
sI6004
S'Ames, Stephen'
p19
sI24671
S'Bradshaw, David S.'
p20
sI35515
S'Maurer, Brian'
p21
sI32868
S'Brown, Brandon'
p22
sI32871
S'Duncan, Brian'
p23
sI22917
S'Reader, Jeff'
p24
sI35516
S'Hinton, Craig'
p25
sI32874
S'Justesen, Erick'
p26
sI32876
S'Piller, Martin'
p27
sI32878
S'Jeong, Jin'
p28
sI32881
S'Leon, Hugo'
p29
sI36883
S'Reeves, Zack'
p30
sI35518
S'McGuirk, Francis'
p31
sI32888
S'Lee, Lucas'
p32
sI36885
S'Couture, Rob'
p33
sI35520
S'Wootton, Adam'
p34
sI32791
S'Lee, Kyoung-Hoon'
p35
sI8337
S'Heinen, Mike'
p36
sI49298
S'Hickok, Kramer'
p37
sI8339
S'McRoy, Spike'
p38
sI24725
S'Finch, Richard'
p39
sI24727
S'Hutsell, David'
p40
sI24730
S'Jamerson, Faber'
p41
sI49314
S'Lu, Shawn'
p42
sI24742
S'Smith, Bruce'
p43
sI24748
S'Liang, WC'
p44
sI8375
S'Stankowski, Paul'
p45
sI32960
S'Cabrera, Jr., Angel F.'
p46
sI8385
S'Uresti, Omar'
p47
sI24773
S'Whitehouse, Tom'
p48
sI24781
S'Mahan, Hunter'
p49
sI8463
S'Smith, Anthony'
p50
sI24786
S'Burns, Jeff'
p51
sI32982
S'Covello, Vince'
p52
sI46458
S'Dorn, Andrew'
p53
sI8419
S'Kelly, Shawn'
p54
sI24804
S'Frank, Garrett'
p55
sI24808
S'Shields, Kevin'
p56
sI47527
S'Dominguez, Matias'
p57
sI25982
S'Griffiths, Simon'
p58
sI33015
S'Chan, Lorens'
p59
sI33016
S'Anderson, Josh'
p60
sI27348
S'Floren, Oscar'
p61
sI33020
S'Lloyd, Darryn'
p62
sI35541
S'Peterson, John'
p63
sI49413
S'Bullington, Brian'
p64
sI24840
S'Dobbs, Kyle'
p65
sI49421
S'Gabriel, Tye'
p66
sI24846
S'Barnes, Ricky'
p67
sI24847
S'Harris, Michael'
p68
sI8465
S'Sanchez, Javier'
p69
sI33046
S'Lowe, Cortland'
p70
sI33047
S'Main, Gregor'
p71
sI8473
S'Bland, Rich'
p72
sI33052
S'Azcue, Mauricio'
p73
sI33053
S'Johnson, Vincent'
p74
sI24865
S'Cable, GW'
p75
sI24866
S'Broce, Jamie'
p76
sI24875
S'Tims, Tim'
p77
sI24876
S'Gealy, Elliot'
p78
sI24878
S'Parra, Chris'
p79
sI33077
S'McLoughlin, Eamonn'
p80
sI33102
S'Roets, Jason'
p81
sI24912
S'MacKenzie, Will'
p82
sI33107
S'Arnaud, Michael'
p83
sI33108
S'Kittleson, Drew'
p84
sI33109
S'Newman, Jack'
p85
sI33110
S'Smith, Michael'
p86
sI8535
S'Nicklaus, Gary'
p87
sI8537
S'Hayes, J.P.'
p88
sI24922
S'Habig, Josh'
p89
sI24924
S'Haas, Bill'
p90
sI24925
S'Byrd, Jonathan'
p91
sI33120
S'Anderson, Mark'
p92
sI8545
S'Hnatiuk, Glen'
p93
sI24930
S'Sanders, Curt'
p94
sI8547
S'Maginnes, John'
p95
sI24940
S'Loar, Edward'
p96
sI8563
S'Vaughan, Bruce'
p97
sI33140
S'Hamilton, Alex'
p98
sI33141
S'Bradley, Keegan'
p99
sI24956
S'Ilonen, Mikko'
p100
sI24957
S'Khan, Simon'
p101
sI33157
S'Davila, Guillermo'
p102
sI33168
S"O'Neal, Michael"
p103
sI33169
S'Paylor, Elliott'
p104
sI24980
S'Gutschewski, Scott'
p105
sI33173
S'Serna, Jr., Efren'
p106
sI24985
S'Schauman, Wilhelm'
p107
sI24989
S'McDougall, Matt'
p108
sI24992
S'Elliott, Jamie'
p109
sI49575
S'Bard, Derek'
p110
sI49576
S'Chaplet, Paul'
p111
sI25005
S'Walker, Mark'
p112
sI33199
S'Manassero, Matteo'
p113
sI33204
S'Lowry, Shane'
p114
sI49590
S'Capan, Frankie'
p115
sI8633
S'Johansson, Per-Ulrik'
p116
sI8635
S'Montgomerie, Colin'
p117
sI25031
S'Miller, Andy'
p118
sI25034
S'McLean, James H.'
p119
sI10381
S'Thompson, Curtis'
p120
sI25041
S'Rose, Todd'
p121
sI25044
S'Henderson, Mike'
p122
sI25045
S'Ruiz, Mike'
p123
sI29476
S'Reifers, Kyle'
p124
sI33241
S'Stamey, Nathan'
p125
sI25052
S'Gillespie, Derek'
p126
sI35578
S'Fernandez, Scott'
p127
sI25056
S'Levesque, Dave'
p128
sI49633
S'Danielson, Charlie'
p129
sI25074
S'Rominger, Martin'
p130
sI35582
S'Broberg, Kristoffer'
p131
sI25083
S'Anderson, Jeremy'
p132
sI33293
S'Pieters, Thomas'
p133
sI25108
S'Deason, Chip'
p134
sI8725
S'Gillis, Tom'
p135
sI25114
S'Meichtry, Eric'
p136
sI49752
S'Jordan, Austin'
p137
sI8793
S'Woods, Tiger'
p138
sI25190
S'Quinney, Jeff'
p139
sI25191
S'Fdez-Castano, Gonzalo'
p140
sI39301
S'Bova, Matt'
p141
sI25198
S'Molinari, Francesco'
p142
sI25203
S'Chawrasia, SSP'
p143
sI8823
S'Bailey, Cliff'
p144
sI33404
S'Baker, Chris'
p145
sI33407
S'Garland, Rob'
p146
sI33408
S'Alexander, Tyson'
p147
sI8833
S'Sanders, Derek'
p148
sI33410
S'Landry, Andrew'
p149
sI8835
S'Cox, Kris'
p150
sI33412
S'Klaasen, Clark'
p151
sI33413
S'Martin, Ben'
p152
sI33414
S'Nagy, Matt'
p153
sI33415
S'Peterman, Kyle'
p154
sI33416
S'Snyder, Vaughn'
p155
sI33417
S'Spears, Ryan'
p156
sI33418
S'Stefani, Shawn'
p157
sI33419
S'Tringale, Cameron'
p158
sI8845
S'Sterling, Scott'
p159
sI33422
S'Lewis, Scott'
p160
sI25234
S'Knutzon, Jason'
p161
sI25237
S'Muncrief, Kevin'
p162
sI25240
S'Points, D.A.'
p163
sI33433
S'Surry, Steve'
p164
sI25242
S'Rogers, Jamie'
p165
sI49826
S'Dalke, Brad'
p166
sI33444
S'Erdy, David'
p167
sI33445
S'Wilkes-Krier, Patrick'
p168
sI28785
S'Francis, Philip'
p169
sI33448
S'Thomas, Justin'
p170
sI33449
S'Sucher, Zack'
p171
sI33450
S'Van Sickle, Mike'
p172
sI33451
S'Hill, Matt'
p173
sI25264
S'Keenan, Ian'
p174
sI8881
S'Isenhour, Tripp'
p175
sI33461
S'Hoffmann, Morgan'
p176
sI33463
S'Krueger, Aaron'
p177
sI33464
S'Wax, Danny'
p178
sI25273
S'Buckle, Andrew'
p179
sI25274
S'Bowditch, Steven'
p180
sI33467
S'Evanecz, Mitch'
p181
sI39394
S'Holland, Charlie'
p182
sI33471
S'Brodell, Brian'
p183
sI36982
S'Sarnoff, Jake'
p184
sI25289
S'Jeffress, Steven'
p185
sI25290
S'Barnes, Kurt'
p186
sI25293
S'Bingham, Brett'
p187
sI33486
S'Sloan, Roger'
p188
sI33490
S'Hoag, Bo'
p189
sI33492
S'German, Kyle'
p190
sI20601
S'Orr, Gary'
p191
sI33498
S'Kearney, Thomas'
p192
sI34255
S'Bramlett, Joseph'
p193
sI34395
S'Ross, Christopher'
p194
sI8931
S'Day, Glen'
p195
sI25321
S'Slattery, Lee'
p196
sI33520
S'Hutchison, Randall'
p197
sI33521
S'Cashell, Scott'
p198
sI25330
S'Bohn, Douglas'
p199
sI8947
S'Stanley, Jon'
p200
sI25336
S'Presnell, Alistair'
p201
sI33536
S'Lewis, Randal'
p202
sI25345
S'Pettersson, Carl'
p203
sI25349
S'Wilkinson, Tim'
p204
sI33543
S'Dicciani, Keith'
p205
sI33544
S'Sheftic, Mark'
p206
sI33545
S'Sturgeon, Grant'
p207
sI34263
S'Martin, Alex'
p208
sI25364
S'Casey, Paul'
p209
sI33561
S'LaBarge, Parker'
p210
sI49947
S'Moore, Taylor'
p211
sI25373
S'Lippert, Eric'
p212
sI8993
S'Langham, Franklin'
p213
sI49954
S'Raber, Tyler'
p214
sI33578
S'Greenwell, Robbie'
p215
sI49964
S'Wise, Aaron'
p216
sI9011
S'Duval, David'
p217
sI25396
S'Na, Kevin'
p218
sI25398
S'Oda, Ryuichi'
p219
sI33592
S'Pope, Andy'
p220
sI9019
S'Wolstenholme, Gary'
p221
sI33606
S'Chuayprako, Thitiphan'
p222
sI28670
S'Lee, Won Joon'
p223
sI25431
S'Labritz, Rob'
p224
sI50012
S'Worthington II, Wyatt'
p225
sI25437
S'Vargas, James'
p226
sI25441
S'Park, Unho'
p227
sI25444
S'Hicks, Justin'
p228
sI34278
S'Bierkan, John'
p229
sI25449
S'Peters, Justin'
p230
sI25450
S'Tryon, Ty'
p231
sI9067
S'Isley, Steve'
p232
sI25454
S'Quiroz, Alex'
p233
sI25457
S'Rocha, Alexandre'
p234
sI25459
S'Capone, Mike'
p235
sI25461
S'Walker, Sam'
p236
sI25469
S'Atkinson, Lewis'
p237
sI33667
S'Ortiz, Carlos'
p238
sI25478
S'Miyazato, Kiyoshi'
p239
sI33680
S'Markle, David'
p240
sI25493
S'Taylor, Nick'
p241
sI31558
S'Killeen, J.J.'
p242
sI36311
S'Gardner, Tom'
p243
sI25514
S'Healey, James'
p244
sI50092
S'Wright, Zach'
p245
sI25522
S'Whiffin, Sean'
p246
sI12447
S'English, Sean'
p247
sI25534
S'Carranza, Clodomiro'
p248
sI25537
S'Coceres, Roberto'
p249
sI25539
S'Echenique, Rafael'
p250
sI25541
S'Hale, Damian'
p251
sI45860
S'Cochran, Case'
p252
sI25562
S'Romero, Andres'
p253
sI25572
S'McDowell, Graeme'
p254
sI1001
S'Aaron, Tommy'
p255
sI1003
S'Ackerman, Bob'
p256
sI1005
S'Adams, Adam'
p257
sI1006
S'Adams, John'
p258
sI25583
S'Kullberg, Mike'
p259
sI25586
S'Taniguchi, Takuya'
p260
sI33780
S'Cullen, Nick'
p261
sI1014
S'Allem, Fulton'
p262
sI25594
S'Perkins, Travis'
p263
sI33788
S'Trimble, Blake D.'
p264
sI1024
S'Andrade, Billy'
p265
sI33800
S'Harto, Andreas'
p266
sI1035
S'Armour III, Tommy'
p267
sI1039
S'Arthur, Perry'
p268
sI25617
S'Worley, Jr., Carl'
p269
sI1042
S'Azinger, Paul'
p270
sI30211
S'Jarosch, Barrett'
p271
sI31577
S'Goya, Tano'
p272
sI1049
S'Baker-Finch, Ian'
p273
sI33818
S'Snedeker, Haymes'
p274
sI1051
S'Ballesteros, Seve'
p275
sI25629
S'Paquet, Brett'
p276
sI25632
S'Walker, Jimmy'
p277
sI25633
S'Touma, Ricky'
p278
sI1063
S'Bates, Ben'
p279
sI1068
S'Bean, Andy'
p280
sI33838
S'Tomimura, Shinji'
p281
sI33839
S'Gatto, CJ'
p282
sI25648
S'Cobb, Brandon'
p283
sI25649
S'Bradford, George'
p284
sI25653
S'Tsukada, Yoshinobu'
p285
sI1078
S'Benepe, Jim'
p286
sI25661
S'Parry, Bryn'
p287
sI1086
S'Biancalana, Roy'
p288
sI1092
S'Black, Mark'
p289
sI1093
S'Black, Ronnie'
p290
sI1095
S'Blackburn, Woody'
p291
sI1096
S'Blackmar, Phil'
p292
sI1098
S'Blake, Jay Don'
p293
sI33869
S'Meierdierks, Eric'
p294
sI33870
S'Wu, Ashun'
p295
sI25679
S'Staten, B.J.'
p296
sI7011
S'Kaufman, Chris'
p297
sI25686
S'Dufner, Jason'
p298
sI1114
S'Boyd, Bob'
p299
sI25692
S'Sadakata, Akio'
p300
sI7013
S'Short, Jr., Wes'
p301
sI29225
S'Ogden, Clay'
p302
sI1127
S'Briggs, Danny'
p303
sI1129
S'Britton, Bill'
p304
sI1132
S'Brooks, Mark'
p305
sI33904
S'Leaver, Grant'
p306
sI33905
S'Peffley, Blaine'
p307
sI1139
S'Browne, Olin'
p308
sI1142
S'Bryant, Bart'
p309
sI1143
S'Bryant, Brad'
p310
sI25720
S'Collins, Chad'
p311
sI25722
S'Link IV, William'
p312
sI1150
S'Burns, George'
p313
sI1155
S'Byman, Bob'
p314
sI25732
S'Ho, S.K.'
p315
sI1157
S'Byrum, Tom'
p316
sI25734
S'Moriarty, Colm'
p317
sI33927
S'Macpherson, Bryden'
p318
sI1161
S'Calcavecchia, Mark'
p319
sI1162
S'Caldwell, Rex'
p320
sI33931
S'Georgiou, Andrew'
p321
sI25741
S'Gilliam, Nick'
p322
sI33935
S'Kua, T.J.'
p323
sI33936
S'Wiebe, Gunner'
p324
sI25745
S'Peck, Brad'
p325
sI33941
S'Mason, Nick'
p326
sI1175
S'Carter, Jim'
p327
sI25752
S'Friesen, Steve'
p328
sI33947
S'Wooding, Joshua'
p329
sI33948
S'An, Byeong Hun'
p330
sI33951
S'Santos, Julio'
p331
sI33952
S'Morales, Erick'
p332
sI1185
S'Chamblee, Brandel'
p333
sI25762
S'Colligan, Dennis'
p334
sI33956
S'Templeton, Jeff'
p335
sI1191
S'Cheesman, Barry'
p336
sI25768
S'Lam, Chih-Bing'
p337
sI1196
S'Claar, Brian'
p338
sI1197
S'Clampett, Bobby'
p339
sI1200
S'Clearwater, Keith'
p340
sI1203
S'Cochran, Russ'
p341
sI1206
S'Cole, Bobby'
p342
sI1215
S'Coody, Charles'
p343
sI1219
S'Cook, John'
p344
sI25799
S'Lemke, Niklas'
p345
sI1224
S'Coston, Jeff'
p346
sI1226
S'Couples, Fred'
p347
sI25803
S'Ping, David'
p348
sI25804
S'Watson, Bubba'
p349
sI25808
S'Northern, Mike'
p350
sI25810
S'Wightman, Paul'
p351
sI1235
S'Crenshaw, Ben'
p352
sI34006
S'Marquez, Braxton'
p353
sI47993
S'McCarthy, Denny'
p354
sI25816
S'Durkin, Kevin'
p355
sI1241
S'Curiel, Scott'
p356
sI25818
S'Piercy, Scott'
p357
sI25823
S'Madison, Brian'
p358
sI1249
S'Daly, John'
p359
sI34021
S'Cauley, Bud'
p360
sI34023
S'Benjamin, Brad'
p361
sI25834
S'Summerhays, Daniel'
p362
sI25836
S'Hume, Barry'
p363
sI1261
S'Delsing, Jay'
p364
sI25841
S'Warren, Marc'
p365
sI25842
S'Mills, Jon'
p366
sI25847
S'Rashell, Rob'
p367
sI34046
S'Spieth, Jordan'
p368
sI34047
S'Little II, John C.'
p369
sI1282
S'Dodds, Trevor'
p370
sI1283
S'Doig, Ian'
p371
sI1284
S'Donald, Mike'
p372
sI25861
S'Nelson, Ryan'
p373
sI25863
S'Perry, Rod'
p374
sI1288
S'Dougherty, Ed'
p375
sI25867
S'Burns, Steve'
p376
sI34064
S'Imondi, Paul'
p377
sI34072
S'Strickler, Will'
p378
sI34073
S'Honeck, Creighton'
p379
sI1306
S'Edwards, David'
p380
sI1307
S'Edwards, Joel'
p381
sI34076
S'Dahmen, Joel'
p382
sI1310
S'Eichelberger, Dave'
p383
sI1313
S'Elkington, Steve'
p384
sI25892
S'Wheatcroft, Steve'
p385
sI25893
S'Woodard, Stephen'
p386
sI34087
S'Sainz Jr, Carlos'
p387
sI1320
S'Estes, Bob'
p388
sI1323
S'Fabel, Brad'
p389
sI25900
S'Glover, Lucas'
p390
sI1326
S'Faldo, Nick'
p391
sI34096
S'Fast, Matt'
p392
sI1329
S'Faxon, Brad'
p393
sI34098
S'Henley, Russell'
p394
sI1331
S'Fehr, Rick'
p395
sI50484
S'Springer, Hayden'
p396
sI25909
S'Wolf, Erik'
p397
sI1334
S'Fergus, Keith'
p398
sI50488
S'Crawford, Chris'
p399
sI50489
S'Mueller, Kyle'
p400
sI50490
S'Parker, Chase'
p401
sI50491
S'Schembechler II, Richard'
p402
sI50492
S'Stachler, Ryan'
p403
sI50493
S'Suh, Justin'
p404
sI25919
S'Vranesh, Brian'
p405
sI25920
S'Perez, Mike'
p406
sI1346
S'Fiori, Ed'
p407
sI25923
S'Heyn, Scott'
p408
sI1355
S'Floyd, Raymond'
p409
sI1358
S'Ford, Bob'
p410
sI25935
S'Engler, Jr., John'
p411
sI25936
S'Aragon, Alex'
p412
sI1361
S'Forsman, Dan'
p413
sI34130
S'Park, S.J.'
p414
sI25939
S'Cassini, Nick'
p415
sI1364
S'Fowler, Peter'
p416
sI34133
S'Tsukada, Yosuke'
p417
sI34136
S'Favela, Armando'
p418
sI50523
S'Otis, Ray'
p419
sI25948
S'McEvoy, Richard'
p420
sI1374
S'Freeman, Robin'
p421
sI50527
S'du Toit, Jared'
p422
sI1376
S'Friend, Bob'
p423
sI1378
S'Frost, David'
p424
sI1381
S'Funk, Fred'
p425
sI1385
S'Gallagher, Jr., Jim'
p426
sI1388
S'Gamez, Robert'
p427
sI35235
S'Renfro, Danny'
p428
sI11155
S'Tomori, Katsuyoshi'
p429
sI25972
S'Martin Benavides, Pablo'
p430
sI34167
S'Garcia, Jorge'
p431
sI1405
S'Giancola, Kevin'
p432
sI34174
S'Huh, John'
p433
sI1408
S'Gibson, Kelly'
p434
sI34185
S'Geminiani, Domenico'
p435
sI1418
S'Glasson, Bill'
p436
sI1419
S'Gleeton, Tom'
p437
sI34191
S'Williams, Gene'
p438
sI1425
S'Gonzalez, Ernie'
p439
sI34195
S'Brown, Christopher'
p440
sI1435
S'Grady, Wayne'
p441
sI1444
S'Green, Ken'
p442
sI34213
S'Murray, Grayson'
p443
sI34214
S'Hutcherson, Bobby'
p444
sI1457
S'Haas, Jay'
p445
sI1458
S'Haas, Jerry'
p446
sI1468
S'Hallberg, Gary'
p447
sI1469
S'Halldorson, Dan'
p448
sI1473
S'Hamilton, Todd'
p449
sI34242
S'Johnston, Andrew'
p450
sI1475
S'Hammond, Donnie'
p451
sI1478
S'Hanefeld, Kirk'
p452
sI1482
S'Harmon, Mike'
p453
sI34253
S'Trappel, Manuel'
p454
sI34254
S'Schultz, David'
p455
sI1487
S'Hart, Jeff'
p456
sI34256
S'Putnam, Andrew'
p457
sI34257
S'Preeo, Jason'
p458
sI34258
S'Phelan, Kevin'
p459
sI34259
S'Silvers, Mark'
p460
sI34260
S'Blakeman, Bennett'
p461
sI34261
S'Langley, Scott'
p462
sI34262
S'Curran, Jon'
p463
sI1495
S'Hatalsky, Morris'
p464
sI34264
S'Swafford, Hudson'
p465
sI34265
S'Wilcox, Will'
p466
sI1499
S'Hayes, Mark'
p467
sI34277
S'Garza, Dustin'
p468
sI1510
S'Henke, Nolan'
p469
sI50666
S'Gilchrest, Matt'
p470
sI1522
S'Hinkle, Lon'
p471
sI34387
S'Balin, Daniel'
p472
sI1527
S'Hoch, Scott'
p473
sI34296
S'Homan, Wes'
p474
sI1533
S'Horgan III, P.H.'
p475
sI34305
S'Miernicki, Daniel'
p476
sI34306
S'Chin, John'
p477
sI34308
S'Crick, Brandon'
p478
sI34311
S'Karlsson, Jeff'
p479
sI34314
S'Cappelen, Sebastian'
p480
sI1547
S'Hughes, Reed'
p481
sI1549
S'Hulbert, Mike'
p482
sI1553
S'Huston, John'
p483
sI1554
S'Hutton, Brian'
p484
sI1555
S'Ingraham, Stu'
p485
sI1557
S'Inman, John'
p486
sI10963
S'Green, Jimmy'
p487
sI1559
S'Irwin, Hale'
p488
sI1560
S'Ishii, David'
p489
sI50717
S'Speight, Josh'
p490
sI50718
S'Sharp, Tommy'
p491
sI1569
S'Jacobsen, Peter'
p492
sI1571
S'Jaeckel, Barry'
p493
sI1577
S'Janzen, Lee'
p494
sI1582
S'Johnson, Chip'
p495
sI50735
S'Gregory, Scott'
p496
sI50737
S'Lee, Soomin'
p497
sI34357
S'Olson, Jeff'
p498
sI34358
S'Randolph, Jonathan'
p499
sI34359
S'Velasquez, Diego'
p500
sI34360
S'Reed, Patrick'
p501
sI34361
S'Abbott, Jamie'
p502
sI34362
S'Canter, Laurie'
p503
sI34363
S'Hatton, Tyrrell'
p504
sI1599
S'Jones, Steve'
p505
sI50757
S'Bernard, Hugo'
p506
sI1609
S'Kane, Jim'
p507
sI34382
S'Concha, Carlos'
p508
sI34383
S'Kesterson, Tanner'
p509
sI34384
S'Wong, Eugene'
p510
sI34385
S'Bunker, Dave'
p511
sI1618
S'Kelley, Ken'
p512
sI1619
S'Kendall, Skip'
p513
sI34388
S'Ohr, Keith'
p514
sI23481
S'Siem, Marcel'
p515
sI1624
S'Kestner, Darrell'
p516
sI33039
S'Schmuhl, Jason'
p517
sI34396
S'Lee, Beon Yeong'
p518
sI1633
S'Kite, Tom'
p519
sI1639
S'Knox, Kenny'
p520
sI34408
S'Bartlett, Jonathan'
p521
sI34409
S'Lingmerth, David'
p522
sI31677
S'Younan, Jake'
p523
sI34431
S'Streb, Robert'
p524
sI34432
S'Hall, Gavin'
p525
sI1666
S'Langer, Bernhard'
p526
sI1668
S'Lankford, Jeffrey'
p527
sI1672
S'Lawrence, Mike'
p528
sI34443
S'Dunbar, Alan'
p529
sI1677
S'Lehman, Tom'
p530
sI31599
S'Godoy, Maximiliano'
p531
sI34448
S'Gielow, Brendan'
p532
sI1682
S'Levi, Wayne'
p533
sI1684
S'Lewallen, Rick'
p534
sI1685
S'Lewis, J.L.'
p535
sI34459
S'Whitekiller, Trent'
p536
sI50844
S'McClintock, Ryan'
p537
sI34466
S'Malnati, Peter'
p538
sI1700
S'Loeffler, Bill'
p539
sI1701
S'Lohr, Bob'
p540
sI1706
S'Love III, Davis'
p541
sI1707
S'Lowery, Steve'
p542
sI26284
S'Holmes, Steve'
p543
sI34478
S'Richardson, Jr., Jerry'
p544
sI26287
S'Thatcher, Roland'
p545
sI26288
S'Walker, Andy'
p546
sI26289
S'Weekley, Boo'
p547
sI1717
S'Lyle, Sandy'
p548
sI1723
S'Magee, Andrew'
p549
sI26300
S'Jones, Matt'
p550
sI26301
S'Nitties, James'
p551
sI1727
S'Mahlberg, Scott'
p552
sI1736
S'Maltbie, Roger'
p553
sI1737
S'Maness, Mark'
p554
sI26314
S'Ota, Jonathan'
p555
sI26327
S'Lilly, Simon'
p556
sI26329
S'Oosthuizen, Louis'
p557
sI26331
S'Schwartzel, Charl'
p558
sI1756
S'Matsuo, Hiroshi'
p559
sI34525
S'Nagy, Corey'
p560
sI37157
S'Paratore, Renato'
p561
sI1761
S'Mattiace, Len'
p562
sI26341
S'Ormsby, Wade'
p563
sI1766
S'Mayfair, Billy'
p564
sI1768
S'Mazza, John'
p565
sI26345
S'Porter, Ewan'
p566
sI1771
S'McCallister, Blaine'
p567
sI27602
S'Townsend, Aaron'
p568
sI1783
S'McCumber, Mark'
p569
sI26360
S'Dickerson, Bubba'
p570
sI26362
S'McCann, Brian'
p571
sI26366
S'Gormley, Jim'
p572
sI26371
S'Oh, James'
p573
sI1796
S'McNulty, Mark'
p574
sI1797
S'Mediate, Rocco'
p575
sI26380
S'Parry, Steven'
p576
sI1810
S'Mickelson, Phil'
p577
sI34579
S'Levy, Alexander'
p578
sI1813
S'Miles, Mike'
p579
sI26392
S'Wilson, Chris'
p580
sI1817
S'Miller, Lindy'
p581
sI10013
S'Patten, Zeb'
p582
sI1823
S'Mize, Larry'
p583
sI1825
S'Moe, Kris'
p584
sI10021
S'Personett, Loren'
p585
sI10027
S'Kuehne, Trip'
p586
sI34609
S'Wadkins, Travis'
p587
sI26418
S'Bland, Adam'
p588
sI34611
S'Palmer, Jason'
p589
sI26420
S'Johnson, Richard S.'
p590
sI10041
S'DeFrancesco, Wayne'
p591
sI10047
S'Cichra, Jim'
p592
sI26434
S'Lascuna, Antonio'
p593
sI26435
S'Que, Angelo'
p594
sI1864
S'Nelson, Larry'
p595
sI26444
S'Pagunsan, Juvic'
p596
sI1869
S'Nicklaus, Jack'
p597
sI34641
S'Cleland, Rocky'
p598
sI34642
S'Payne, Jordan'
p599
sI34643
S'Johnson, Michael'
p600
sI1876
S'Norman, Greg'
p601
sI1878
S'North, Andy'
p602
sI34650
S'Baldwin, Chase'
p603
sI1884
S"O'Grady, Mac"
p604
sI1886
S"O'Malley, Peter"
p605
sI1887
S"O'Meara, Mark"
p606
sI1891
S'Ogrin, David'
p607
sI39910
S'Carrigan, Kevin'
p608
sI34665
S"O'Mahony, Greg"
p609
sI34667
S'Marin, Chris'
p610
sI26476
S'Reavie, Chez'
p611
sI1901
S'Overton, Jay'
p612
sI26483
S'Sanders, Andy'
p613
sI26485
S'Cline, Kelsey'
p614
sI1910
S'Palmer, Arnold'
p615
sI26487
S'Joyner, Randy'
p616
sI26488
S'Crain, Andy'
p617
sI26489
S'Yancey, Cameron'
p618
sI10107
S'Pappas, Deane'
p619
sI26494
S'Schouller, Jr., Jim'
p620
sI1920
S'Parry, Craig'
p621
sI26497
S'Wittenberg, Casey'
p622
sI26498
S'Weibring, Matt'
p623
sI10115
S'Rosinia, Billy'
p624
sI26500
S'Canizares, Alejandro'
p625
sI10117
S'Heintz, Bob'
p626
sI1926
S'Pate, Steve'
p627
sI1927
S'Paulson, Dennis'
p628
sI1928
S'Pavin, Corey'
p629
sI34697
S'Cao, Yi'
p630
sI1933
S'Peddicord, Chris'
p631
sI34702
S'Olson, Eddie'
p632
sI27629
S'Cheetham, Jonathan'
p633
sI1938
S'Peoples, David'
p634
sI34707
S'Rahman, Siddikur'
p635
sI34708
S'Senior, Jack'
p636
sI1941
S'Pernice Jr., Tom'
p637
sI1943
S'Perry, Chris'
p638
sI1945
S'Perry, Kenny'
p639
sI1948
S'Petrovic, Tim'
p640
sI26525
S'Bourdy, Gregory'
p641
sI26527
S'Gonnet, Jean Baptiste'
p642
sI26530
S'Schleicher, Troy'
p643
sI1955
S'Player, Gary'
p644
sI10149
S'Thomas, Craig'
p645
sI1958
S'Pohl, Dan'
p646
sI1960
S'Pooley, Don'
p647
sI26539
S'Rock, Robert'
p648
sI26540
S'Wardrop, Daniel'
p649
sI1966
S'Price, Anthony'
p650
sI1968
S'Price, Nick'
p651
sI10163
S'Hickson, John'
p652
sI1975
S'Purtzer, Tom'
p653
sI48116
S'Schlottman, Ben'
p654
sI1978
S'Quinn, Fran'
p655
sI1984
S'Randolph, Sam'
p656
sI48118
S'Balcombe, Alister'
p657
sI1996
S'Reid, Mike'
p658
sI1998
S'Renner, Jack'
p659
sI10193
S'Berry, Don'
p660
sI2002
S'Riegger, John'
p661
sI10195
S'Conley, Tim'
p662
sI2007
S'Rinker, Larry'
p663
sI2008
S'Rinker, Lee'
p664
sI10201
S'Gogel, Matt'
p665
sI2010
S'Roberts, Loren'
p666
sI34469
S'McLister, Joey'
p667
sI26595
S'Tolan, Derek'
p668
sI26596
S'Moore, Ryan'
p669
sI26597
S'Portie, Ben'
p670
sI26598
S'Speirs, Adam'
p671
sI2023
S'Rose, Clarence'
p672
sI10217
S'Schutte, Warren'
p673
sI2033
S'Rummells, Dave'
p674
sI2036
S'Rutledge, Jim'
p675
sI2040
S'San Filippo, Mike'
p676
sI2046
S'Saraceno, Tony'
p677
sI2049
S'Sauers, Gene'
p678
sI2054
S'Schall, Ken'
p679
sI26631
S'Freeman, Cody'
p680
sI2065
S'Schuller, Rick'
p681
sI2066
S'Schulte, Alan'
p682
sI2067
S'Schulz, Ted'
p683
sI27652
S'Kok, Johan'
p684
sI34479
S'Shriver, Eric'
p685
sI2076
S'Senior, Peter'
p686
sI1713
S'Lundstrom, David'
p687
sI26668
S'Turnesa, Marc'
p688
sI26670
S'Fritz, Nathan'
p689
sI33117
S'Whitnell, Dale'
p690
sI26672
S'Brauer, Scott'
p691
sI26673
S'Sokol, Steve'
p692
sI2099
S'Simpson, Scott'
p693
sI2101
S'Sindelar, Joey'
p694
sI26679
S'Stadler, Kevin'
p695
sI2104
S'Sluman, Jeff'
p696
sI2106
S'Smith, Chris'
p697
sI26683
S'Haefner, Kevin'
p698
sI2110
S'Smith, Jerry'
p699
sI2113
S'Smith, Scott'
p700
sI26695
S'Letzig, Michael'
p701
sI2123
S'Soli, Mick'
p702
sI33122
S'Knox, Russell'
p703
sI2128
S'Spengler, Dave'
p704
sI2131
S'Springer, Mike'
p705
sI2133
S'Stadler, Craig'
p706
sI2135
S'Standly, Mike'
p707
sI2136
S'Starkjohann, Chris'
p708
sI2138
S'Stauffer, Kent'
p709
sI2145
S'Stevens, Craig'
p710
sI26724
S'Evans, Barry'
p711
sI26725
S'Farren, Sean'
p712
sI1724
S'Maggert, Jeff'
p713
sI26733
S'Kimbell, John'
p714
sI2159
S'Strange, Curtis'
p715
sI2160
S'Streck, Ron'
p716
sI2166
S'Sullivan, Chip'
p717
sI2167
S'Sullivan, Mike'
p718
sI2170
S'Sutton, Hal'
p719
sI26755
S'Dechert, Charleton'
p720
sI26757
S'Sonnier, Greg'
p721
sI26758
S'Hearn, David'
p722
sI10375
S'McCarty, Sean'
p723
sI2185
S'Ten Broeck, Lance'
p724
sI2187
S'Tentis, Dave'
p725
sI26765
S'Williamson, Lee M.'
p726
sI2190
S'Tewell, Doug'
p727
sI2191
S'Thelen, Tim'
p728
sI26770
S'Lepp, James'
p729
sI10387
S'Thompson, Chris'
p730
sI2196
S'Thompson, Robert'
p731
sI2202
S'Tinning, Steen'
p732
sI2206
S'Toms, David'
p733
sI10399
S'Laudien, Mike'
p734
sI2210
S'Traub, John'
p735
sI2214
S'Triplett, Kirk'
p736
sI2215
S'Trittler, Paul'
p737
sI26793
S'Nosler, Brian'
p738
sI2218
S'Tryba, Ted'
p739
sI2223
S'Tway, Bob'
p740
sI2224
S'Twiggs, Greg'
p741
sI2225
S'Twitty, Howard'
p742
sI2229
S'Upper, Brett'
p743
sI2230
S'Utley, Stan'
p744
sI26807
S'Klauk, John'
p745
sI26808
S'Takayama, Tadahiro'
p746
sI10425
S'Williamson, Jay'
p747
sI26815
S'Martens, Gibby'
p748
sI2241
S'Wadkins, Bobby'
p749
sI2242
S'Wadkins, Lanny'
p750
sI2244
S'Wadsworth, Fred'
p751
sI2245
S'Waite, Grant'
p752
sI2246
S'Waldorf, Duffy'
p753
sI2255
S'Watson, Denis'
p754
sI2256
S'Watson, Tom'
p755
sI2257
S'Watts, Brian'
p756
sI32694
S'Madsen, Morten Orum'
p757
sI26838
S'Rohlik, Tony'
p758
sI26840
S'Yurkiewicz, Jeff'
p759
sI2267
S'Weibring, D.A.'
p760
sI2268
S'Weiskopf, Tom'
p761
sI26848
S'Arvidson, Anthony'
p762
sI26851
S'Leishman, Marc'
p763
sI23590
S'Maxon, Joey'
p764
sI2279
S'Wiebe, Mark'
p765
sI37447
S'Lombard, Zander'
p766
sI2291
S'Wise, Paul'
p767
sI2292
S'Wolcott, Bob'
p768
sI2294
S'Wood, Willie'
p769
sI2300
S'Woosnam, Ian'
p770
sI26877
S'Tampion, Andrew'
p771
sI26881
S'Lyle, Jarrod'
p772
sI26882
S'Sim, Michael'
p773
sI26883
S'Bunny, Ben'
p774
sI10505
S'Bertsch, Shane'
p775
sI35084
S'Brandt, Jimmy'
p776
sI35086
S'Epperson, Chris'
p777
sI35087
S'Kim, Bio'
p778
sI2321
S'Zoeller, Fuzzy'
p779
sI2322
S'Zokol, Richard'
p780
sI20868
S'Coles, Robert'
p781
sI26908
S'Ikeda, Yuta'
p782
sI35104
S'Lewis, Tom'
p783
sI1755
S'Mast, Dick'
p784
sI26919
S'Reynolds, Greg'
p785
sI35112
S'Murdaca, Anthony'
p786
sI26924
S'Blyth, Adam'
p787
sI35139
S'Lee, Richard H.'
p788
sI26948
S'Benedetti, Camilo'
p789
sI10565
S'Leggatt, Ian'
p790
sI26950
S'Morgan, John E.'
p791
sI26951
S'Wagner, Johnson'
p792
sI35144
S'Carpenter, Alex'
p793
sI26956
S"La'Cassie, Bronson"
p794
sI26965
S'Kulacz, Rick'
p795
sI26968
S'Phengsavath, Joe'
p796
sI10585
S'McCarron, Scott'
p797
sI26970
S'Duty, Patrick'
p798
sI26975
S'Veenstra, Grant'
p799
sI26976
S'Lee, Regan'
p800
sI26977
S'Heirakuji, Royden'
p801
sI35174
S'Southgate, Matthew'
p802
sI35179
S'Shadbolt, Tom'
p803
sI35181
S'van Tonder, Danie'
p804
sI39997
S'Conners, Corey'
p805
sI10613
S'Demattia, Constant'
p806
sI27015
S'Witherall, John D.'
p807
sI27016
S'Sessler, Chris'
p808
sI35210
S'Riley, George'
p809
sI35211
S'Chung, David'
p810
sI35212
S'Kim, Lion'
p811
sI27021
S'Wood, Jeff'
p812
sI27022
S'Beyer, Cody'
p813
sI27024
S'Wright, Michael'
p814
sI31997
S'Lewton, Steve'
p815
sI27028
S'Saathoff, Curt'
p816
sI27030
S'Whiteford, Peter'
p817
sI27032
S'McKechnie, Paul'
p818
sI10649
S'Scherrer, Tom'
p819
sI35228
S'Hrynkiw, Jason'
p820
sI27037
S'Spallone, Sal'
p821
sI35230
S'Ledesma, Nelson'
p822
sI35232
S'Cordova, Javier'
p823
sI27041
S'Zahringer, George'
p824
sI27042
S'Lynch, John'
p825
sI33907
S'Kim, Sunny'
p826
sI35236
S'Yelverton, Tim'
p827
sI35239
S'Arizabaleta, Alvaro Tote'
p828
sI33181
S'Frost, Charles'
p829
sI27058
S'Sorenstam, Annika'
p830
sI27060
S'Mallinger, John'
p831
sI27064
S'Vegas, Jhonattan'
p832
sI27065
S'Zyroll, Tate'
p833
sI18874
S'Suarez, Miguel'
p834
sI35260
S'Day, Kelvin'
p835
sI35261
S'Tabuena, Miguel'
p836
sI27072
S'Quiros, Alvaro'
p837
sI10699
S'Bateman, Ahmad'
p838
sI10703
S'Cranford, Jeffrey'
p839
sI27088
S'Edfors, Johan'
p840
sI10705
S'Dietsche, Paul'
p841
sI27090
S'Takayama, Junpei'
p842
sI27094
S'Case, Ben'
p843
sI27095
S'Watney, Nick'
p844
sI34554
S'Hwang, Jung-gon'
p845
sI35296
S'Li, Hao Tong'
p846
sI35299
S'Camplin, Todd'
p847
sI35300
S'Loupe, Andrew'
p848
sI27109
S'Zarlengo, Rick'
p849
sI27110
S'Payne, Brian'
p850
sI27114
S'Willman, Ben'
p851
sI35307
S'Broussard, Anthony'
p852
sI10733
S'Jones, Kent'
p853
sI35310
S'Griffin, Lanto'
p854
sI27119
S'Oda, Koumei'
p855
sI27120
S'Matteson, Troy'
p856
sI27122
S'Malm, Curtis'
p857
sI27124
S'Baryla, Chris'
p858
sI27125
S'Glissmeyer, Tom'
p859
sI27126
S'Hiller, Greg'
p860
sI27127
S'Reinsberg, Rick'
p861
sI27128
S'Seppanen, Matt'
p862
sI27129
S'List, Luke'
p863
sI35330
S'Olivo, Nate'
p864
sI27139
S'Skinns, David'
p865
sI27140
S'Walters, Justin'
p866
sI27141
S'Holmes, J.B.'
p867
sI27144
S'Fitzgerald, Caine'
p868
sI27146
S'Meyer, Adam'
p869
sI27147
S'Oh, David'
p870
sI27151
S'Reilly, Mike'
p871
sI27152
S'Hoffhine, Ben'
p872
sI34563
S'Hadley, Chesson'
p873
sI27171
S'McLuen, Jay'
p874
sI35364
S'Smith, Sam'
p875
sI35376
S'Diaz, Roberto'
p876
sI35378
S'Lee, Jun Hak'
p877
sI35384
S'Hudson, Bobby'
p878
sI10809
S'Furyk, Jim'
p879
sI10815
S'Kalinowski, Tom'
p880
sI45642
S'Ajubita, Neal'
p881
sI10821
S'Izawa, Toshi'
p882
sI27211
S'Gibson, Scott'
p883
sI27213
S'McNerney, Mike'
p884
sI27214
S'Streelman, Kevin'
p885
sI27215
S'Damron, Patrick'
p886
sI27216
S'LoCicero, Paul'
p887
sI27217
S'Arvold, Tony'
p888
sI35413
S'Stinson, Kevin'
p889
sI10838
S'Godwin, John'
p890
sI25017
S'Hamilton, Robert'
p891
sI10841
S'Nelson, John'
p892
sI10844
S'Mielke, Mark'
p893
sI10845
S'Oakley, Pete'
p894
sI10860
S'Leonard, Justin'
p895
sI35439
S'Lee, Steve'
p896
sI35440
S'Richardson, Clark'
p897
sI35443
S'Patterson, Brett'
p898
sI35444
S'DeForest, Christopher'
p899
sI35445
S'Barbosa, Michael'
p900
sI35447
S'Tobiason, Jr., Michael'
p901
sI35448
S'May, David'
p902
sI35449
S'Long, Adam'
p903
sI35450
S'Cantlay, Patrick'
p904
sI10875
S'Demsey, Todd'
p905
sI35452
S'Edwards, Matthew'
p906
sI35455
S'Locke, Brian'
p907
sI35456
S'Whitehead, Michael'
p908
sI10881
S'Kontak, Brian'
p909
sI35459
S'Williams, Chris'
p910
sI10885
S'Allenby, Robert'
p911
sI35466
S'Byrd, Zack'
p912
sI35468
S'Howard, Cole'
p913
sI35469
S'Vazquez, Sebastian'
p914
sI27293
S'Nash, Simon'
p915
sI10912
S'Perks, Craig'
p916
sI35490
S'Bateman, Wil'
p917
sI27300
S'Gallo, Kyle'
p918
sI10917
S'Church, David'
p919
sI27302
S'Mulroy, Garth'
p920
sI27304
S'Crim, Rich'
p921
sI8647
S'Kop, Brandan'
p922
sI27308
S'Walewski, Trey'
p923
sI27309
S'Deuel, Mike'
p924
sI35503
S'Pesta, Matt'
p925
sI35506
S'Hughes, Mackenzie'
p926
sI27318
S'Brown, Ted'
p927
sI27319
S'Sierak, Mark'
p928
sI27320
S'Smith, Christopher'
p929
sI27321
S'Godfrey, Scott'
p930
sI27322
S'Sproston, Anthony'
p931
sI27323
S'Whaley, Suzy'
p932
sI27324
S'Han, Seung-su'
p933
sI27326
S'Arnold, Sam'
p934
sI35519
S'Smith, Andy'
p935
sI10944
S'Bjorn, Thomas'
p936
sI27329
S'Hall, Kevin'
p937
sI27330
S'Teater, Josh'
p938
sI27332
S'Meola, Charles'
p939
sI35532
S'Hoge, Tom'
p940
sI27341
S'Scott, Kasey'
p941
sI27342
S'Kuhlman, Erich'
p942
sI10960
S'Ponchock, Del'
p943
sI10962
S'Hughes, Bradley'
p944
sI35539
S'Guthrie, Luke'
p945
sI35540
S'Choi, Albin'
p946
sI27349
S'Noren, Alexander'
p947
sI27351
S'Guyton, John'
p948
sI27352
S'Collins, Steve'
p949
sI35545
S'Barber, Blayne'
p950
sI27355
S'Porter, Scott'
p951
sI27356
S'Sciorra, Cary'
p952
sI35549
S'Huxman, Greg'
p953
sI35550
S'Swan, Matthew'
p954
sI35552
S'Kennerly, Billy'
p955
sI33232
S'Lee, Sang-hee'
p956
sI27363
S'Haastrup, Mark F.'
p957
sI20945
S'Brier, Markus'
p958
sI27368
S'Hurst, Travis'
p959
sI35572
S'Brand, Christian'
p960
sI27381
S'Wiegele, Martin'
p961
sI27382
S'Collins, Wil'
p962
sI27383
S'Jones, Nickolas'
p963
sI27386
S'Risdon, Dustin'
p964
sI27388
S'Seavey, Jeff'
p965
sI27389
S'Swanson, Tyler'
p966
sI11006
S'Woodson, Rick'
p967
sI27391
S'Love, James'
p968
sI27393
S'Eger, Kent'
p969
sI11011
S'Sposa, Mike'
p970
sI27399
S'Scott, Richard'
p971
sI27400
S'Laws, Peter'
p972
sI27402
S'Anderson, Stuart'
p973
sI27408
S'Kaymer, Martin'
p974
sI27409
S'Bogle, Scott'
p975
sI27410
S'Bernakevitch, Lindsay'
p976
sI27413
S'Miller, Scott'
p977
sI27415
S'Tucker, Jeremy'
p978
sI11032
S'Lickliter II, Frank'
p979
sI35612
S'Hurley, John'
p980
sI35614
S'Killpack, Nick'
p981
sI27424
S'Wie, Michelle'
p982
sI35617
S'Trainer, Martin'
p983
sI35621
S'Smith, Scott K.'
p984
sI35622
S'Rangel, Jeff'
p985
sI11048
S'Franco, Angel'
p986
sI35625
S'Erdmann, Scott'
p987
sI35626
S'Smith, Stuart'
p988
sI27436
S'DeLaet, Graham'
p989
sI27438
S'Dean, Geoffrey'
p990
sI27441
S'Rubinson, Adam'
p991
sI11062
S'Dellostritto, Ron'
p992
sI27447
S'Ellis, John'
p993
sI47287
S'Tracy, Ethan'
p994
sI27463
S'Loving, Matthew'
p995
sI27466
S'Levin, Spencer'
p996
sI27470
S'McLean, Jon'
p997
sI27474
S'Saxton, Reinier'
p998
sI35672
S'Loftsson, Olafur'
p999
sI35675
S'Mauchaza, Nyasha'
p1000
sI27485
S'Rhind, Lee'
p1001
sI27487
S'Danielson, Paul'
p1002
sI27503
S'LeBrun, Steve'
p1003
sI27506
S'Wilson, Oliver'
p1004
sI11123
S'Couch, Chris'
p1005
sI11127
S'Dodd, Stephen'
p1006
sI11132
S'Gaus, Bob'
p1007
sI27518
S'Kamte, James'
p1008
sI35712
S'Byrne, David'
p1009
sI35720
S'Juszczyk, Joseph'
p1010
sI35729
S'Walsh, Billy'
p1011
sI35731
S'Bulle, Kent'
p1012
sI35732
S'Roach, Wes'
p1013
sI27554
S'Harrington, Scott'
p1014
sI27556
S'Potter, Jr., Ted'
p1015
sI27561
S'Flanagan, Nick'
p1016
sI27569
S'Park, Myung Jun'
p1017
sI27573
S'Flint, Gavin'
p1018
sI27576
S'Haig, Anton'
p1019
sI27577
S'Karmis, Peter'
p1020
sI11195
S'Russell, Terry'
p1021
sI27583
S'Trauwitz, Jose'
p1022
sI27584
S'Bloomfield, Johnny'
p1023
sI27591
S'Norman, Michael J.'
p1024
sI27592
S'Tate, Steven'
p1025
sI27593
S'Wilson, Dean A.'
p1026
sI27596
S'Heintz, Chris'
p1027
sI27597
S'Parun, Tim'
p1028
sI27599
S'Schnider, David'
p1029
sI35794
S'Otte, Preston'
p1030
sI27603
S'Lavery, Mike'
p1031
sI27613
S'Lutterus, David'
p1032
sI27615
S'Nallen, Chris'
p1033
sI27619
S'Leong, Ben'
p1034
sI27624
S'Beisser, Benoit'
p1035
sI27625
S'Bungert, John'
p1036
sI35819
S'India, Vince'
p1037
sI35820
S'Flores, Erik'
p1038
sI11245
S'Skayhan, Ron'
p1039
sI11247
S'Spence, Scott'
p1040
sI34644
S'Persons, Josh'
p1041
sI27642
S'Murakami, Artemio'
p1042
sI27644
S'Harman, Brian'
p1043
sI27648
S'Bescansa, Ramon'
p1044
sI27649
S'Snedeker, Brandt'
p1045
sI35844
S'Choi, Phillip'
p1046
sI35845
S'Murray, Tom'
p1047
sI27657
S'Smith, Nathan T.'
p1048
sI27660
S'Dixon, Brian'
p1049
sI27670
S'Noll, David'
p1050
sI27675
S'Osborne, Sam'
p1051
sI27676
S'Alexander, Lonny'
p1052
sI27679
S'Weatherly, Scott'
p1053
sI27682
S'Laing, Jason'
p1054
sI27683
S'Olson, Leif'
p1055
sI35879
S'Kraft, Kelly'
p1056
sI35890
S'Meth, Byron'
p1057
sI35891
S'Smith, Cameron'
p1058
sI34654
S'Hronek, David'
p1059
sI27702
S'Hendrix, Matt'
p1060
sI27708
S'Hartwick, Jason'
p1061
sI35901
S'Haley II, Paul'
p1062
sI27711
S'Woodson, Jay'
p1063
sI35912
S'Porteous, Haydn'
p1064
sI27730
S'Zackheim, Eli'
p1065
sI27731
S'Carter, Pat'
p1066
sI27747
S'Iwata, Hiroshi'
p1067
sI35840
S'Foley, Kevin'
p1068
sI35947
S'Oda, John'
p1069
sI27759
S'Baker, Shawn'
p1070
sI35957
S'Popovic, Daniel'
p1071
sI27766
S'Bourque, Casey'
p1072
sI27767
S'Carr, David'
p1073
sI27768
S'Mackenzie, Brock'
p1074
sI27769
S'Osborn, Payton'
p1075
sI27770
S'Villegas, Camilo'
p1076
sI25109
S'Greyling, Christo'
p1077
sI27776
S'Edberg, Pelle'
p1078
sI27780
S'Botsford, Chris'
p1079
sI35973
S'Holman, Nathan'
p1080
sI27782
S'Knaub, Brandon'
p1081
sI27783
S'Melton, Brett'
p1082
sI27784
S'Lin, Wen-Tang'
p1083
sI31204
S'Dillow, Chris'
p1084
sI27794
S'Rivera, Miguel'
p1085
sI27796
S'Affrunti, Joe'
p1086
sI27797
S'Lamely, Derek'
p1087
sI27800
S'Branham, David'
p1088
sI35994
S'Hwang, Jay'
p1089
sI27806
S'Wall, JJ'
p1090
sI27808
S'McClellan, Robert'
p1091
sI27810
S'McElhinney, Brian'
p1092
sI27816
S'McLeary, Jamie'
p1093
sI27817
S'Bradshaw, Paul'
p1094
sI27818
S'Campbell, Lloyd'
p1095
sI27819
S'Millar, Anthony'
p1096
sI27820
S'Sugrue, Daniel'
p1097
sI27821
S'Tiley, Steven'
p1098
sI27822
S'Willey, Andrew'
p1099
sI27823
S'Vecellio, Steve'
p1100
sI27825
S'Evans, Neil'
p1101
sI27826
S'Taylor, Brett'
p1102
sI27833
S'King, Danny'
p1103
sI27836
S'Barrett, Andy'
p1104
sI32105
S'Fung, Nicholas'
p1105
sI45604
S'Scheer, Alan'
p1106
sI27878
S'Heath, James'
p1107
sI27895
S'Blixt, Jonas'
p1108
sI27896
S'Fisher, Ross'
p1109
sI27899
S'Karlberg, Rikard'
p1110
sI27901
S'Griffing, Quinn'
p1111
sI27902
S'Zwemke, Zane'
p1112
sI6016
S'Lardon, Brad'
p1113
sI27910
S'De Vries, Floris'
p1114
sI33465
S'Marshall, Matt'
p1115
sI26499
S'Cabrera Bello, Rafa'
p1116
sI27929
S'Kapur, Shiv'
p1117
sI27932
S'Graziosa, Frank'
p1118
sI27933
S'Merrick, John'
p1119
sI1925
S'Pate, Jerry'
p1120
sI27936
S'Laird, Martin'
p1121
sI27938
S'Martin, Jeff'
p1122
sI27939
S'McQuillan, Matt'
p1123
sI27940
S'Vanegas, Diego'
p1124
sI27941
S'Surber, Russell'
p1125
sI27942
S'Oppenheim, Rob'
p1126
sI27943
S'Hansen, Matt'
p1127
sI19755
S'Bennett, Mike'
p1128
sI27953
S'Vana, Frank'
p1129
sI27954
S'Wallace, Darren'
p1130
sI27955
S'Bourgeois, Marc'
p1131
sI27956
S'Doell, Craig'
p1132
sI27958
S'Blaum, Ryan'
p1133
sI27963
S'Stroud, Chris'
p1134
sI19774
S'Greenwood, Chris'
p1135
sI27974
S'Kang, Sung'
p1136
sI27979
S'Kim, Daehyun'
p1137
sI40162
S'Lower, Justin'
p1138
sI27985
S'Miller, Brian'
p1139
sI27986
S'Schutte, Jesse'
p1140
sI19795
S'Mitchum, Kelly'
p1141
sI27990
S'Gordon, Scott'
p1142
sI19801
S'Miller, Dennis'
p1143
sI19803
S'Armour, Ryan'
p1144
sI28002
S'Cuzzort, Jeff'
p1145
sI19811
S'Sutter, Tom'
p1146
sI19817
S'Muehr, Michael'
p1147
sI19822
S'Cochran, Bobby'
p1148
sI19823
S'Howser, David'
p1149
sI19824
S'Barlow, Craig'
p1150
sI19825
S'Clarke, Darren'
p1151
sI19830
S'Haeggman, Joakim'
p1152
sI28023
S'Smith, Byron'
p1153
sI28024
S'White, Dustin'
p1154
sI28030
S'Nannen, Derek'
p1155
sI34709
S'Pepperell, Eddie'
p1156
sI19843
S'Lucchesi, Dino'
p1157
sI19846
S'Gay, Brian'
p1158
sI28047
S'Reed, Stephen'
p1159
sI28048
S'Watson, Derek'
p1160
sI28050
S'von Hoffmann, David'
p1161
sI28071
S'Schmitz, Sammy'
p1162
sI28072
S'Ming-jie, Huang'
p1163
sI19881
S'Damron, Robert'
p1164
sI19883
S'Daley, Joe'
p1165
sI28087
S'Blanks, Kris'
p1166
sI28088
S'Davidson, Matt'
p1167
sI28089
S'Day, Jason'
p1168
sI28092
S'Lee, D.H.'
p1169
sI28093
S'Carballo, Miguel Angel'
p1170
sI19903
S'Lomas, Jonathan'
p1171
sI19904
S'Lawrie, Paul'
p1172
sI19905
S'Coltart, Andrew'
p1173
sI19906
S'Evans, Gary'
p1174
sI28100
S'Carll, Kevin'
p1175
sI28101
S'Mathias, Jonathan'
p1176
sI28102
S'Hakes, Steven'
p1177
sI28103
S'Smith, Stuart L.'
p1178
sI28104
S'Huber, Tim'
p1179
sI19913
S'Whittaker, Ron'
p1180
sI28106
S'Brovold, Lars'
p1181
sI36299
S'Figueroa, Edward'
p1182
sI28111
S'Roos, Jake'
p1183
sI28114
S'van der Walt, Dawie'
p1184
sI19924
S'Martin, Brad'
p1185
sI28118
S'Tomasulo, Peter'
p1186
sI12393
S'Butcher, Rodney'
p1187
sI28120
S'Podas, David'
p1188
sI19929
S'Bennett, Warren'
p1189
sI28125
S'Geary, Josh'
p1190
sI28129
S'Dodson, Will'
p1191
sI28132
S'Van Aswegen, Tyrone'
p1192
sI36326
S'Lipsky, David'
p1193
sI28135
S'Watkins, Aaron'
p1194
sI23804
S'Tschudin, Andrew'
p1195
sI28138
S'Yarnes, David'
p1196
sI36331
S'Graham, Austin'
p1197
sI36332
S'Mills, Corbin'
p1198
sI28143
S'Nirat, Chapchai'
p1199
sI19954
S'MacKenzie, Malcolm'
p1200
sI19958
S'Jimenez, Miguel Angel'
p1201
sI37460
S'Wooding, Jeremiah'
p1202
sI28155
S'Lima, Jose-Filipe'
p1203
sI28156
S'Yeckes, Jeffrey'
p1204
sI28157
S'Wilson, TJ'
p1205
sI28158
S'Marino, Steve'
p1206
sI19970
S'Karlsson, Robert'
p1207
sI19972
S'Coceres, Jose'
p1208
sI19974
S'Chapman, Roger'
p1209
sI36359
S'Campusano, Juan'
p1210
sI36360
S'Munoz, Alejandro'
p1211
sI19980
S'Payne, Jim'
p1212
sI19983
S'Oldcorn, Andy'
p1213
sI19985
S'Luna, Santiago'
p1214
sI28178
S'Adams III, Frank'
p1215
sI28180
S'Willmann, Kyle'
p1216
sI28181
S'Peck, Jeff'
p1217
sI19991
S'Hedblom, Peter'
p1218
sI36673
S'Pugh, Rhys'
p1219
sI28191
S'West, Heath'
p1220
sI36388
S'Garmendia, Alejandro'
p1221
sI36389
S'Calvesbert, Robert'
p1222
sI36390
S'Damesworth, David'
p1223
sI20013
S'Miller, Mark'
p1224
sI20024
S'Gortana, Marco'
p1225
sI20025
S'Walter, Ben'
p1226
sI28220
S'Beckstrom, Colby'
p1227
sI28221
S'Barker, Mickey'
p1228
sI35583
S'Arvidsson, Oskar'
p1229
sI20580
S'Stolz, Andre'
p1230
sI20035
S'McMillan, Rob'
p1231
sI20038
S'DeCorso, Bryan'
p1232
sI20043
S'Fryatt, Edward'
p1233
sI28237
S'McIlroy, Rory'
p1234
sI28239
S'Hessing, Rob'
p1235
sI20050
S'Sutterfield, Brad'
p1236
sI20051
S'Acosta, Jr., Joe'
p1237
sI28246
S'Sato, Achi'
p1238
sI26553
S'Edwards, Simon'
p1239
sI36444
S'Weaver, Michael'
p1240
sI28254
S'Pratt, Andrew'
p1241
sI28255
S'Chartrand, Dan'
p1242
sI36449
S'Irawan, Arie Ahmad'
p1243
sI28258
S'Kim, K.T.'
p1244
sI28259
S'Bae, Sangmoon'
p1245
sI20070
S'Bettencourt, Matt'
p1246
sI36455
S'Osborne, William'
p1247
sI20072
S'Lebeck, David'
p1248
sI22460
S'Kawai, Hiroo'
p1249
sI36459
S'Murchison III, Bill'
p1250
sI20080
S'Robinson, David'
p1251
sI36471
S'Tian Liang, Guan'
p1252
sI20094
S'Kaye, Jonathan'
p1253
sI20095
S'Paulson, Carl'
p1254
sI20098
S'Appleby, Stuart'
p1255
sI20099
S'Barron, Doug'
p1256
sI28294
S'Bump, J.B.'
p1257
sI20103
S'Collins, Bobby'
p1258
sI20104
S'Duke, Ken'
p1259
sI20105
S'Gove, Jeff'
p1260
sI28300
S'Luiten, Joost'
p1261
sI20110
S'Wade, John'
p1262
sI20111
S'Connelly, John'
p1263
sI36496
S'Ricketts, Brian'
p1264
sI28305
S'Brown, Derek'
p1265
sI28306
S'Denham, David'
p1266
sI28307
S'Every, Matt'
p1267
sI28308
S'Kelly, Troy'
p1268
sI28309
S'Soero, Pierre-Henri'
p1269
sI28310
S'Williams, Lee'
p1270
sI20121
S'Fischer, Todd'
p1271
sI20127
S'Riley, Chris'
p1272
sI20128
S'Mason, John'
p1273
sI20133
S'McGrath, Bob'
p1274
sI28326
S'Gasnier, Philippe'
p1275
sI28327
S'Jones, Brett'
p1276
sI36521
S'Song, Young-han'
p1277
sI28331
S'Del Vecchio, Paul'
p1278
sI36528
S'Liu, William'
p1279
sI28339
S'Dubuisson, Victor'
p1280
sI20148
S'Meloan, Marcus'
p1281
sI20152
S'Wassem, Heath'
p1282
sI20157
S'Goosen, Retief'
p1283
sI20158
S'Rodriguez, Anthony'
p1284
sI20160
S'Wi, Charlie'
p1285
sI28358
S'Price, Andrew D.'
p1286
sI33399
S'Hadwin, Adam'
p1287
sI28366
S'DeLeon, Daniel'
p1288
sI28369
S'Murray, George'
p1289
sI28370
S'McDonagh, Sean'
p1290
sI28371
S'Ramsay, Eric'
p1291
sI28372
S'Steele, Robert'
p1292
sI28373
S'Saltman, Lloyd'
p1293
sI28377
S'Pollack, Joe'
p1294
sI28379
S'Bisbee, Jeff'
p1295
sI28380
S'Helminen, Ryan'
p1296
sI20200
S'Aber, John'
p1297
sI20212
S'Mitchell, Stiles'
p1298
sI20213
S'Miyamoto, Katsumasa'
p1299
sI23849
S'Kim, Hyung-Tae'
p1300
sI20218
S'Katayama, Shingo'
p1301
sI20221
S'Weston, Rich'
p1302
sI28419
S'McKay, Billy'
p1303
sI28420
S'Brehm, Ryan'
p1304
sI20229
S'Cink, Stewart'
p1305
sI28423
S'Long, Travis'
p1306
sI28424
S'Steinmetz, Rich'
p1307
sI10199
S'Esposito, Frank'
p1308
sI20237
S'Henderson, Michael'
p1309
sI20247
S'Brisson, Cortney'
p1310
sI36632
S'Arendell, Connor'
p1311
sI12060
S'Holtby, Paul'
p1312
sI12067
S'Lowe, Mitch'
p1313
sI12069
S'Martin, Mike'
p1314
sI33954
S'Guerrero, Estanislao'
p1315
sI28456
S'Ruthkoski, Andrew'
p1316
sI20270
S'Jack, Billy'
p1317
sI28467
S'Wald, Lucas'
p1318
sI33409
S'Brock, Joshua'
p1319
sI28475
S'Overton, Jeff'
p1320
sI36669
S'Proveaux, Cody'
p1321
sI28478
S'Hadley, Brian'
p1322
sI28480
S'St. Pierre, Jim'
p1323
sI28481
S'Iaciofano, Joey'
p1324
sI28483
S'Hall, Tyler'
p1325
sI23862
S'Lancaster, Todd'
p1326
sI28486
S'Putnam, Michael'
p1327
sI36683
S'Gutgsell, Austin'
p1328
sI36684
S'Morris, Dustin'
p1329
sI36685
S'Wilson, Cameron'
p1330
sI36686
S'McCormick, Mark'
p1331
sI36687
S'Sanchez, Alberto'
p1332
sI36688
S'Sherwood, Nick'
p1333
sI23864
S'Goich, George'
p1334
sI36690
S'Hamrick, Hunter'
p1335
sI28500
S'Flores, Martin'
p1336
sI28503
S'Snyder, Jay'
p1337
sI2020
S'Romero, Eduardo'
p1338
sI36698
S'Zhang, Andy'
p1339
sI36699
S'Rodgers, Patrick'
p1340
sI36700
S'Marshall, Ian'
p1341
sI40250
S'Pendrith, Taylor'
p1342
sI10213
S'Pride, Dicky'
p1343
sI20332
S'Reid, Michael'
p1344
sI28527
S'Zions, Matthew'
p1345
sI20341
S'McCumber, Josh'
p1346
sI36735
S'Fernandez-Valdes, Jorge'
p1347
sI28548
S'Garrison, Jim'
p1348
sI36749
S'Hazen, James'
p1349
sI20367
S'Andersson Hed, Fredrik'
p1350
sI20369
S'Bickerton, John'
p1351
sI36755
S'Potter, Zechariah'
p1352
sI20374
S'Clark, Gary'
p1353
sI20376
S'Gallacher, Stephen'
p1354
sI20378
S'Gronberg, Mathias'
p1355
sI36413
S'Hui, Phillip'
p1356
sI20382
S'Leaney, Stephen'
p1357
sI28578
S'Prugh, Corey'
p1358
sI12195
S'Johnson, Tom'
p1359
sI32070
S'Campos, Rafael'
p1360
sI20393
S'Walton, Philip'
p1361
sI20394
S'Webster, Steve'
p1362
sI23879
S'Call, Matthew'
p1363
sI20396
S'Westwood, Lee'
p1364
sI20400
S'Campbell, Michael'
p1365
sI28593
S'Mueller, Jesse'
p1366
sI36788
S'Fields, Jack'
p1367
sI36789
S'Newcomb, Patrick'
p1368
sI36796
S'Ferrell, Jess'
p1369
sI20415
S'Van Horn, Craig'
p1370
sI36800
S'Black, Chris W.'
p1371
sI36801
S'Hubbard, Mark'
p1372
sI20418
S'Canete, Ariel'
p1373
sI28618
S'Nazareth, Savio'
p1374
sI28620
S'Price, Aron'
p1375
sI28621
S'Muthiya, Madalitso'
p1376
sI28623
S'McMillan, Robert'
p1377
sI20433
S'Hensby, Mark'
p1378
sI20436
S'Willis, Garrett'
p1379
sI20440
S'Savage, Kevin'
p1380
sI28633
S'Abbott, Scott'
p1381
sI20443
S'Park, Jin'
p1382
sI20445
S'Martin, Casey'
p1383
sI24140
S"O'Hair, Sean"
p1384
sI36835
S'Volk, Dustin'
p1385
sI36836
S'Whitsett, Cory'
p1386
sI36837
S'Brun, Julien'
p1387
sI33447
S'Catalioto, Martin'
p1388
sI20468
S'Bossert, Andre'
p1389
sI20471
S'Struver, Sven'
p1390
sI20472
S'Cejka, Alex'
p1391
sI20473
S'Garrido, Ignacio'
p1392
sI20474
S'Price, Phillip'
p1393
sI36689
S'Koepka, Brooks'
p1394
sI20480
S'Ruiz, Marco'
p1395
sI20484
S'Sriroj, Thammanoon'
p1396
sI28677
S'Oriol, Pedro'
p1397
sI21959
S'Purdy, Ted'
p1398
sI28679
S'Gomez, Fabian'
p1399
sI20498
S'Baird, Briny'
p1400
sI20499
S'Elliott, Bobby'
p1401
sI36884
S'Kohles, Ben'
p1402
sI12309
S'Sowards, Bob'
p1403
sI20502
S'Long, Michael'
p1404
sI20504
S'Ott, Brad'
p1405
sI28697
S'Bhullar, Gaganjeet'
p1406
sI12330
S'Tucker, Mark'
p1407
sI28719
S'Hu, Mu'
p1408
sI28723
S'Parry, John'
p1409
sI28734
S'Cunliffe, Josh'
p1410
sI20548
S'Tanaka, Hidemichi'
p1411
sI28751
S'Dodt, Andrew'
p1412
sI28753
S'Wood, Timothy'
p1413
sI20566
S'Yokoo, Kaname'
p1414
sI20567
S'Hayashi, Kevin'
p1415
sI20568
S'Painter, Anthony'
p1416
sI20569
S'Green, Richard'
p1417
sI20572
S'Pampling, Rod'
p1418
sI20573
S'Laycock, Scott'
p1419
sI20574
S'Goggin, Mathew'
p1420
sI28771
S'Dottley, Will'
p1421
sI12388
S'Clark II, Michael'
p1422
sI12389
S'Lane, Barry'
p1423
sI12390
S'Roman, Kevin'
p1424
sI28775
S'Lashley, Nate'
p1425
sI20585
S'Fasth, Niclas'
p1426
sI12394
S'Carter, Tom'
p1427
sI28780
S'Thompson, Nicholas'
p1428
sI36973
S'Stow, Ben'
p1429
sI36976
S'Porteous, Garrick'
p1430
sI20593
S'Chalmers, Greg'
p1431
sI20596
S'Jonzon, Michael'
p1432
sI20597
S'Hummel, Steve'
p1433
sI20598
S'Cevaer, Christian'
p1434
sI36983
S'Dobyns, Matt'
p1435
sI36984
S'Frye, Michael'
p1436
sI36985
S'Wade, Doug'
p1437
sI25279
S'Moir, Richard'
p1438
sI47125
S'Atkins, Matt'
p1439
sI20608
S'Howell, David'
p1440
sI28801
S'Giles, Matthew'
p1441
sI20613
S'Hull, Brian'
p1442
sI20623
S'Coles, Gavin'
p1443
sI20624
S'Smail, David'
p1444
sI20628
S'Oberholser, Arron'
p1445
sI20631
S'McKenzie, David'
p1446
sI20634
S'Lonard, Peter'
p1447
sI37022
S'Guillaume, Vaita'
p1448
sI37023
S'Rody, Tyler'
p1449
sI12449
S'Howison, Ryan'
p1450
sI20642
S'Le Vesconte, Adam'
p1451
sI20643
S'Conran, Steven'
p1452
sI20645
S'Senden, John'
p1453
sI12454
S'Tiziani, Mario'
p1454
sI20650
S'Moseley, Jarrod'
p1455
sI12461
S'McGinley, Paul'
p1456
sI20657
S'Spence, Nigel P.'
p1457
sI20663
S'Pappas, Brenden'
p1458
sI22559
S'Butterfield, Andrew'
p1459
sI28860
S'Barbetti, Daniel'
p1460
sI20669
S'Kingston, James'
p1461
sI37056
S'Gonzalez, Geoff'
p1462
sI20676
S'Moore, Patrick'
p1463
sI37061
S'Thompson, Matt'
p1464
sI28871
S'Kehoe, Justin'
p1465
sI37066
S'Forrest, Grant'
p1466
sI20686
S'Singh, Jeev Milkha'
p1467
sI49869
S'Ferrier, Branson'
p1468
sI20691
S'Owen, Greg'
p1469
sI37076
S'Rozo, Marcelo'
p1470
sI20698
S'da Silva, Adilson'
p1471
sI20701
S'Abery, Warren'
p1472
sI12510
S'Campbell, Chad'
p1473
sI12515
S'Wilson, Mike'
p1474
sI37092
S'Kim, Hyung-Sung'
p1475
sI45294
S'Penner, Kevin'
p1476
sI20719
S'Mednick, Adam'
p1477
sI20721
S'Fichardt, Darren'
p1478
sI20726
S'McLean, Alan'
p1479
sI28923
S'Fisher, Oliver'
p1480
sI12540
S'Aguilar, Tony'
p1481
sI28928
S'Wright, Gareth'
p1482
sI12546
S'Baker, Peter'
p1483
sI28937
S'Coetzee, George'
p1484
sI28938
S'Harding, Justin'
p1485
sI20747
S'Muller, Grant'
p1486
sI45324
S'Littrell, Don'
p1487
sI28942
S'Rodriguez, Miguel'
p1488
sI28943
S'Choe, Jay'
p1489
sI28946
S'Kavanagh, Jeremy'
p1490
sI20763
S'Fulke, Pierre'
p1491
sI20764
S'Botes, Desvonde'
p1492
sI20766
S'Harrington, Padraig'
p1493
sI20771
S'Alker, Steven'
p1494
sI20773
S'Teshima, Taichi'
p1495
sI26675
S'Turcott, Jon'
p1496
sI20791
S'Johnson, Mark W.'
p1497
sI12602
S'Wilson, Dean'
p1498
sI12603
S'Lemon, Jim'
p1499
sI20802
S'Hugo, Jean'
p1500
sI12611
S'McDonald, Bruce'
p1501
sI37189
S'Varner III, Harold'
p1502
sI20812
S'van der Walt, Tjaart'
p1503
sI24425
S'Groom, Adam'
p1504
sI20820
S'Sjoland, Patrik'
p1505
sI37206
S'Downs, Dennis'
p1506
sI20823
S'Emerson, Gary'
p1507
sI20832
S'Jacquelin, Raphael'
p1508
sI20835
S'Tunnicliff, Miles'
p1509
sI12645
S'Geiberger, Brent'
p1510
sI12652
S'Beckman, Cameron'
p1511
sI20848
S'Cabrera, Angel'
p1512
sI20850
S'Chopra, Daniel'
p1513
sI12660
S'Parnevik, Jesper'
p1514
sI12661
S'Barranger, Todd'
p1515
sI12662
S'Levet, Thomas'
p1516
sI12663
S'Tataurangi, Phil'
p1517
sI20856
S'Eriksson, Klas'
p1518
sI20859
S'Hansen, Anders'
p1519
sI33974
S'Burmester, Dean'
p1520
sI37250
S'Langasque, Romain'
p1521
sI12676
S'Smith, Brian K.'
p1522
sI29063
S'Denison, Danny'
p1523
sI12680
S'Maruyama, Shigeki'
p1524
sI29065
S'Stockton, Brady'
p1525
sI12682
S'Miyase, Hirofumi'
p1526
sI30786
S'Schnell, Brady'
p1527
sI12692
S'Chin, David'
p1528
sI12694
S'Yokomoto, Beau'
p1529
sI12695
S'Floyd, Robert'
p1530
sI37273
S'Ernst, Derek'
p1531
sI37278
S'Lindheim, Nicholas'
p1532
sI12705
S'Kresge, Cliff'
p1533
sI12710
S'Leibovich, Rick'
p1534
sI12714
S'Tidland, Chris'
p1535
sI12716
S'Hoffman, Charley'
p1536
sI40181
S'Sordet, Clement'
p1537
sI12726
S'Larsson, Dean'
p1538
sI20929
S'Kuwabara, Katsunori'
p1539
sI20933
S'Idoki, Kohki'
p1540
sI20935
S'Taniguchi, Toru'
p1541
sI20939
S'Fukabori, Keiichiro'
p1542
sI20940
S'Kuboya, Kenichi'
p1543
sI12750
S'Pyman, Iain'
p1544
sI12751
S'Gleaton, Todd'
p1545
sI12753
S'Morland IV, David'
p1546
sI12755
S'Veazey, Vance'
p1547
sI45526
S'Ancer, Abraham'
p1548
sI12759
S'Prince, Patrick'
p1549
sI12760
S'Ellis, Danny'
p1550
sI37338
S'Dou, Zecheng'
p1551
sI37340
S'Wright, Chase'
p1552
sI37341
S'Mitchell, Jordan'
p1553
sI45534
S'Gunn, Jimmy'
p1554
sI45535
S'Hebert, Michael'
p1555
sI37351
S'Goss, Oliver'
p1556
sI12781
S'Medlin, Scott'
p1557
sI12782
S'Herron, Tim'
p1558
sI10323
S'Shawver, John'
p1559
sI32655
S'Lederer, Brett'
p1560
sI37365
S'Watt, Brady'
p1561
sI12794
S'Weinhart, Tim'
p1562
sI20992
S'Hosokawa, Kazuhiko'
p1563
sI7595
S'Moss, Rob'
p1564
sI20997
S'Cotner, Keoke'
p1565
sI29192
S'Campbell, Chris'
p1566
sI12809
S'Faidley, John'
p1567
sI21002
S'Serna, Oscar'
p1568
sI45582
S'Sawada, Jared'
p1569
sI21007
S'Hjertstedt, Gabriel'
p1570
sI40072
S'McCoy, Michael'
p1571
sI12823
S'Franco, Carlos'
p1572
sI12826
S'Claxton, Paul'
p1573
sI29212
S'Poncino, Vinnie'
p1574
sI29218
S'Burt, Keith'
p1575
sI29220
S'Kelly, Dave'
p1576
sI29221
S'Simpson, Webb'
p1577
sI29222
S'Hurley III, Billy'
p1578
sI29223
S'Saunders, Sam'
p1579
sI29224
S'Dougherty, Dillon'
p1580
sI45609
S'Duncan, Tyler'
p1581
sI29226
S'Jacobs, Hal'
p1582
sI29227
S'Avret, Clint'
p1583
sI37426
S'Esteve, Jeronimo'
p1584
sI29236
S'Stieren, Tim'
p1585
sI29237
S'George, Larry'
p1586
sI29238
S'Lockerbie, Gary'
p1587
sI21047
S'Deuel, Mike'
p1588
sI29253
S'Curl, Jeff'
p1589
sI29255
S'Gray, Chris'
p1590
sI29256
S'Morrison, James'
p1591
sI37450
S'Constable, Donald'
p1592
sI37452
S'Hall, Ashley'
p1593
sI37454
S'Kim, Whee'
p1594
sI37455
S'Kim, Si Woo'
p1595
sI37459
S'Sullivan, Ryan'
p1596
sI29268
S'Burgoon, Bronson'
p1597
sI29269
S'Goodwin, Shaun'
p1598
sI29271
S'Johnson, Jamie R.'
p1599
sI45657
S'Chang, Derek'
p1600
sI29282
S'Hayes, Ben'
p1601
sI29285
S'Delahoussaye, Brent'
p1602
sI29289
S'Noh, Seung-Yul'
p1603
sI21098
S'Henderson, Scott'
p1604
sI21099
S'Lynn, David'
p1605
sI45676
S'Janneck, Frederick'
p1606
sI45694
S'Wilson, Patrick'
p1607
sI45702
S'Cazaubon, Rodolfo'
p1608
sI29331
S'Haas, Jr., Jay'
p1609
sI25782
S'Wilson, Stuart'
p1610
sI29334
S'Ahlers, Jaco'
p1611
sI25369
S'Donaldson, Jamie'
p1612
sI45720
S'Lee, Ki Taek'
p1613
sI45721
S'Westerlund, Jay'
p1614
sI26735
S'Jertson, Marty'
p1615
sI29342
S'Park, Jae-bum'
p1616
sI45733
S'Truslow, Austen'
p1617
sI21159
S'Nieporte, John'
p1618
sI29353
S'Hickman, Joey'
p1619
sI29365
S'Webber, Kane'
p1620
sI29378
S'Kataoka, Daisuke'
p1621
sI21187
S'Hoshino, Hidemasa'
p1622
sI21188
S'Takahashi, Tatsuhiko'
p1623
sI29381
S'McGreal, Simon'
p1624
sI21201
S'Sugai, Noboru'
p1625
sI21207
S'Lara, Jose Manuel'
p1626
sI21209
S'Garcia, Sergio'
p1627
sI29406
S'Lamielle, Joey'
p1628
sI45862
S'Cornellier, Jean-Philip'
p1629
sI29415
S'Baca, Ryan'
p1630
sI29416
S'Bare, Andy'
p1631
sI29417
S'Coe, Alex'
p1632
sI29418
S'Derminio, Michael'
p1633
sI29419
S'Fujikawa, Tadd'
p1634
sI29420
S'Horschel, Billy'
p1635
sI29421
S'Koskinen, John'
p1636
sI29422
S'Moore, Jonathan'
p1637
sI29423
S'Nagle, Patrick'
p1638
sI29424
S'Posey, Ryan'
p1639
sI29425
S'Svoboda, Andrew'
p1640
sI29426
S'Wood, Taylor'
p1641
sI21253
S'Ichihara, Tatsuhiko'
p1642
sI28119
S'Ruda, J.R.'
p1643
sI29454
S'Wiesberger, Bernd'
p1644
sI21293
S'Eliasson, Mattias'
p1645
sI8073
S'Kokott, Bill'
p1646
sI29459
S'Ruddo, Tim'
p1647
sI29460
S'Rokisky, Jody'
p1648
sI29461
S'Lovemark, Jamie'
p1649
sI45854
S'Birdsey, Thomas'
p1650
sI21284
S'Fujita, Hiroyuki'
p1651
sI29478
S'Kisner, Kevin'
p1652
sI29479
S'Brown, Scott'
p1653
sI21290
S'Igarashi, Yuji'
p1654
sI29484
S'Uihlein, Peter'
p1655
sI29485
S'Stegmaier, Brett'
p1656
sI29491
S'Bushka, John'
p1657
sI29492
S'Webb, Brennan'
p1658
sI21310
S'Nakamura, Tatsuaki'
p1659
sI21325
S'Amershadian, Jeff'
p1660
sI29518
S'Steele, Brendan'
p1661
sI29519
S'Reilly, Steven'
p1662
sI29520
S'Panek, John'
p1663
sI29521
S'Baines, Scott'
p1664
sI29522
S'Schachner, Michael'
p1665
sI29531
S'Ramsay, Richie'
p1666
sI29532
S'Mahoney, Korey'
p1667
sI29533
S'Dadey, Sean'
p1668
sI29535
S'Garnett, Brice'
p1669
sI29539
S'Ledbetter, Doyle'
p1670
sI29540
S'Ziska, Ian'
p1671
sI29541
S'Thorp, Marius'
p1672
sI21350
S'Imada, Ryuji'
p1673
sI29544
S'Norman, Joe'
p1674
sI29545
S'Sanchez, David'
p1675
sI29546
S'Schultz, Dave'
p1676
sI28139
S'Eaton III, Austin'
p1677
sI45961
S'Kinkopf, Michael'
p1678
sI5014
S'Austin, Mike'
p1679
sI21406
S'Alexander, Carl'
p1680
sI21407
S'Atwal, Arjun'
p1681
sI29638
S'Gilchrist, Nate'
p1682
sI29639
S'Hutchins, Jesse'
p1683
sI21449
S'Edstrom, Reid'
p1684
sI21452
S'Scott, Steve'
p1685
sI46030
S'Puetz, Timothy'
p1686
sI46031
S'Olsen, Zachary'
p1687
sI46035
S'Shinkwin, Callum'
p1688
sI21461
S'Ferrie, Kenneth'
p1689
sI46045
S'Miller, Mike'
p1690
sI21470
S'Maruyama, Daisuke'
p1691
sI29664
S'Bisconti, Gregory'
p1692
sI46049
S'Lee, Chang-woo'
p1693
sI29670
S'Larrazabal, Pablo'
p1694
sI29675
S'McCarthy, Dan'
p1695
sI21489
S'Sato, Nobuhito'
p1696
sI21498
S'Tanihara, Hideto'
p1697
sI29700
S'Burke, James'
p1698
sI21514
S'Doyle, Matt'
p1699
sI21522
S'Heath, Rick'
p1700
sI29716
S'Welch, Mike'
p1701
sI29717
S'Carbone, Michael'
p1702
sI29718
S'Kim, Anthony'
p1703
sI21528
S'Stenson, Henrik'
p1704
sI29723
S'Halpen, Todd'
p1705
sI29725
S'Finau, Tony'
p1706
sI46110
S'Madigan, Timothy'
p1707
sI21547
S'Hull, Jeff'
p1708
sI29740
S'Fritsch, Brad'
p1709
sI29741
S'Ciesielski, Victor'
p1710
sI29745
S'Aldridge, Tyler'
p1711
sI29762
S'Lepak, John'
p1712
sI29764
S'Itzen, Justin'
p1713
sI10423
S'Weir, Mike'
p1714
sI21581
S'Ayers, Dirk'
p1715
sI21584
S'Coughlan, Richie'
p1716
sI29780
S'Kim, Do-Hoon X.'
p1717
sI21590
S'McGrane, Damian'
p1718
sI21592
S'Murphy, Gary'
p1719
sI29792
S'Marcano, Ross'
p1720
sI29542
S'Day, Gary'
p1721
sI21608
S'Hatch, Terry'
p1722
sI30908
S'Matthews, Llewellyn'
p1723
sI2239
S'Verplank, Scott'
p1724
sI21633
S'Allan, Steve'
p1725
sI21634
S'Bladon, Warren'
p1726
sI29833
S'Fujimoto, Yoshinori'
p1727
sI21646
S'Branshaw, David'
p1728
sI22724
S'Maritz, Martin'
p1729
sI29851
S'Lee, Seong Ho'
p1730
sI21660
S'Schultz, Jason'
p1731
sI26822
S'Guetz, Bret'
p1732
sI46256
S'Green, Hunter'
p1733
sI21691
S'Derksen, Robert-Jan'
p1734
sI21695
S'Lafeber, Maarten'
p1735
sI29891
S'Arnold, Scott'
p1736
sI29892
S'Dartnall, Steve'
p1737
sI30924
S'Davies, Rhys'
p1738
sI21709
S'Wiemers, Chris'
p1739
sI46292
S'Dunlap, Ty'
p1740
sI30926
S'Kirk, Chris'
p1741
sI29910
S'Adams, Blake'
p1742
sI46302
S'Kinnear, Paul'
p1743
sI21727
S'Erlandsson, Martin'
p1744
sI29920
S'Batty, Doug'
p1745
sI21730
S'Olander, Marten'
p1746
sI21731
S'Jacobson, Freddie'
p1747
sI28198
S'Bray, Dustin'
p1748
sI29926
S'Lee, Danny'
p1749
sI21736
S'Zhang, Lian-Wei'
p1750
sI29930
S'Hendry, Mike'
p1751
sI21739
S'Barber, Aaron'
p1752
sI29936
S'Fox, Ryan'
p1753
sI29938
S'Wagner, Alan'
p1754
sI29939
S'Zanotti, Fabrizio'
p1755
sI21753
S'Davis, Brian'
p1756
sI30933
S'Sorenson, Jeff'
p1757
sI29954
S'Dinwiddie, Robert'
p1758
sI29956
S'Garcia, Federico'
p1759
sI29974
S'Grace, Branden'
p1760
sI29981
S'Mariano, Abe'
p1761
sI29982
S'Schultze, Bobby'
p1762
sI29983
S'Pellegrine, Steve'
p1763
sI29985
S'Ahokas, Antti'
p1764
sI29988
S'Harper, Kevin'
p1765
sI29989
S'Jensen, Lasse'
p1766
sI46375
S'Hemmerich, Chris'
p1767
sI21805
S'Frazar, Harrison'
p1768
sI21806
S'Gow, Paul'
p1769
sI30004
S'McGowan, Ross'
p1770
sI30005
S'Schietekat, Neil'
p1771
sI30008
S"Kruger, Jbe'"
p1772
sI46402
S'Gooch, Talor'
p1773
sI46405
S'Soderberg, Sebastian'
p1774
sI30945
S'Pettitt, Jr., Philip'
p1775
sI21836
S'Flynn, Michael'
p1776
sI21841
S'Jewell, Vince'
p1777
sI30947
S'Ureta, Martin'
p1778
sI30040
S'Saavedra, Sebastian L.'
p1779
sI21850
S'Griff, Darren'
p1780
sI30044
S'Costilla, Cesar'
p1781
sI30046
S'Figueroa, Fernando'
p1782
sI46435
S'Cook, Austin'
p1783
sI46439
S'Grimmer, Will'
p1784
sI46440
S'Kaufman, Smylie'
p1785
sI46441
S'Shelton, Robby'
p1786
sI46442
S'McNealy, Maverick'
p1787
sI46443
S'Campbell, Brian'
p1788
sI20029
S'Begay III, Notah'
p1789
sI21878
S'Wilson, Mark'
p1790
sI30074
S'Conway, Steve'
p1791
sI46459
S'Love, Sam'
p1792
sI46460
S'Jang, Dong-Kyu'
p1793
sI30079
S'Kurmel, Chad'
p1794
sI21893
S'Kortan, Brian'
p1795
sI21894
S'Kalinowski, Bobby'
p1796
sI30098
S'Alveiro, Max'
p1797
sI21907
S'Hazelden, Matthew'
p1798
sI46487
S'McIver, Brandon'
p1799
sI46488
S'Rainaud, Adam'
p1800
sI30106
S'Espinoza, Efren Serna'
p1801
sI23714
S'Rodiles, Carlos'
p1802
sI30109
S'Rummings, Mark'
p1803
sI30110
S'Stanley, Kyle'
p1804
sI30111
S'Regner, Mike'
p1805
sI46501
S'Schniederjans, Ollie'
p1806
sI21927
S'Wayment, Brett'
p1807
sI46504
S'Chesters, Ashley'
p1808
sI46507
S'Wyatt, Bobby'
p1809
sI46508
S'Anania, Brian'
p1810
sI46523
S'Garber, Joey'
p1811
sI21949
S'Ogilvie, Joe'
p1812
sI21951
S'Snyder III, Joey'
p1813
sI30144
S'Watabu, Casey'
p1814
sI30145
S'Womack, Dave'
p1815
sI30146
S'Smith, Michael J.'
p1816
sI24463
S'Fisher Jr, Trevor'
p1817
sI30150
S'Kelly, John M.'
p1818
sI30151
S'Mechereffe, Fernando'
p1819
sI21961
S'Howell III, Charles'
p1820
sI21969
S'Little, Euan'
p1821
sI30163
S'Norlander, Henrik'
p1822
sI46550
S'Hagy, Brandon'
p1823
sI46564
S'Moyers, Mikey'
p1824
sI46565
S'Agee, Brian'
p1825
sI46567
S'Dunne, Paul'
p1826
sI46568
S'Singleton, John'
p1827
sI46569
S'Neil, Bradley'
p1828
sI21998
S'Lawrie, Peter'
p1829
sI30191
S'Etulain, Julian'
p1830
sI22000
S'Wood, Chris'
p1831
sI46580
S'Knoll, Raymond'
p1832
sI46581
S'Lenahan, Ryan'
p1833
sI46584
S'Lucas, Kevin'
p1834
sI46585
S'Norman, Brian'
p1835
sI46586
S'Williamson, Eric'
p1836
sI46594
S'Gouveia, Ricardo'
p1837
sI22019
S'Schwamkrug, Victor'
p1838
sI46601
S'Mullinax, Trey'
p1839
sI46606
S'Cole, Eli'
p1840
sI22032
S'Kondo, Tomohiro'
p1841
sI22034
S'Imano, Yasuharu'
p1842
sI22038
S'Perske, Wayne'
p1843
sI30237
S'Renfrew, Cory'
p1844
sI22046
S'Ogilvy, Geoff'
p1845
sI22048
S'Barr, Scott'
p1846
sI22051
S'Ferguson, Ben'
p1847
sI22056
S'Percy, Cameron'
p1848
sI30258
S'King, Corbin'
p1849
sI30261
S'Yip, Ryan'
p1850
sI47369
S'Gilley, Chris'
p1851
sI22075
S'Gonzalez, Ricardo'
p1852
sI22078
S'Lundberg, Mikael'
p1853
sI46655
S'Eggers, Jacob'
p1854
sI22080
S'Marksaeng, Prayad'
p1855
sI22081
S'Molina, Mauricio'
p1856
sI32354
S'Baek, Seuk-hyun'
p1857
sI22110
S'Wiratchant, Thaworn'
p1858
sI22114
S'Yates, Simon'
p1859
sI22115
S'Mamat, Mardan'
p1860
sI22117
S'Randhawa, Jyoti'
p1861
sI22122
S'McLardy, Andrew'
p1862
sI48102
S'Schaake, Carson'
p1863
sI24178
S'Doak, Chris'
p1864
sI24179
S'Drysdale, David'
p1865
sI6431
S'Van de Velde, Jean'
p1866
sI22212
S'Lile, Craig'
p1867
sI39201
S'Elvira, Nacho'
p1868
sI22224
S'Walters, Euan'
p1869
sI35107
S'Zunic, Jordan'
p1870
sI30434
S'Urquizu, Inigo'
p1871
sI22253
S'Kiyota, Taichiro'
p1872
sI22261
S'Morales, Wilfredo'
p1873
sI22268
S'Gleeson, David'
p1874
sI46037
S'Stewart, Hunter'
p1875
sI22272
S'Lamb, Brad'
p1876
sI22275
S'Pilkadaris, Terry'
p1877
sI22276
S'Diaz, David'
p1878
sI22290
S'Bradley, Rob'
p1879
sI22293
S'Slocum, Heath'
p1880
sI22294
S'Smock, Brian'
p1881
sI22295
S'Stiles, Darron'
p1882
sI22300
S'Vomacka, Dean'
p1883
sI22313
S'Brown, Mark R.'
p1884
sI22320
S'Heaven, Bradley'
p1885
sI46046
S'Scheffler, Scottie'
p1886
sI36489
S'Collins, Will'
p1887
sI22328
S'Cayeux, Marc'
p1888
sI46907
S'Evans, Ryan'
p1889
sI46908
S'Anguiano, Mark'
p1890
sI46048
S'Niebrugge, Jordan'
p1891
sI46915
S'Ruiz, Gerardo'
p1892
sI22348
S"O'Hern, Nick"
p1893
sI10837
S'Burton, Kevin'
p1894
sI46932
S'Yang, Gunn'
p1895
sI28302
S'Richardson, Matthew'
p1896
sI22363
S'Yrene, Don'
p1897
sI22368
S'Gaunt, Daniel'
p1898
sI24208
S'Urquhart, Murray'
p1899
sI22371
S'Baddeley, Aaron'
p1900
sI22378
S'Immelman, Trevor'
p1901
sI22379
S'Foster, Mark B.'
p1902
sI22380
S'Worroll, Mike'
p1903
sI22388
S'Leary, John Ray'
p1904
sI6006
S'Anderson, JC'
p1905
sI22393
S'Fergin, Michael'
p1906
sI46970
S'Rahm, Jon'
p1907
sI6012
S'Kraft, Greg'
p1908
sI22400
S'Otto, Hennie'
p1909
sI21483
S'Spencer, Ian'
p1910
sI22405
S'Rose, Justin'
p1911
sI22414
S'Pineo, Warren'
p1912
sI50157
S'Barbaree, Philip'
p1913
sI22416
S'Beard, Michael'
p1914
sI22417
S'Choi, Jay'
p1915
sI6034
S'Dawson, Marco'
p1916
sI6036
S'Dunlap, Scott'
p1917
sI6044
S'Gump, Scott'
p1918
sI26949
S'Broadaway, Josh'
p1919
sI30626
S'Pullen, Craig'
p1920
sI6052
S'Morse, Andy'
p1921
sI22437
S'Boisvert, Robert'
p1922
sI6054
S'Pacetti, Sean'
p1923
sI6056
S'Estes, Jim'
p1924
sI22441
S'Nelson, John C.'
p1925
sI35143
S'Paolucci, Anthony'
p1926
sI30637
S'Benson, Yohann'
p1927
sI6064
S'Gallagher, Jeff'
p1928
sI6070
S'Weston, Wes'
p1929
sI6076
S'Schuman, Jim'
p1930
sI6078
S'Toledo, Esteban'
p1931
sI6080
S'Manning, Eric'
p1932
sI47041
S'Backel, Camden'
p1933
sI6088
S'Gotsche, Steve'
p1934
sI22473
S'Flinton, Kyle'
p1935
sI6090
S'McGovern, Jim'
p1936
sI22475
S'Wilson, Steve'
p1937
sI30669
S'Puska, Jeff'
p1938
sI7843
S'Seitz, Matt'
p1939
sI6102
S'Castillo, Ron'
p1940
sI30680
S'Weintraub, Isaac'
p1941
sI30683
S'Schneider, Cory'
p1942
sI30685
S'Abel, Derek'
p1943
sI30692
S'Stallings, Scott'
p1944
sI22508
S'Behr, Stephen'
p1945
sI6128
S'Lamontagne, Steve'
p1946
sI6132
S'Skinner, Sonny'
p1947
sI30711
S'Knost, Colt'
p1948
sI6136
S'Schuchart, Mike'
p1949
sI6140
S'Murphy, Sean'
p1950
sI6142
S'Adcock, Mitch'
p1951
sI6150
S'Cooper, Carl'
p1952
sI22540
S'Wall, Anthony'
p1953
sI30736
S'Fraustro, Oscar'
p1954
sI39256
S'Stoltz, John'
p1955
sI22548
S'Sheehan, Patrick'
p1956
sI30741
S'Lowry, Randy'
p1957
sI47126
S'McConnell, Paul'
p1958
sI47127
S'Pastore, David'
p1959
sI47128
S'Werenski, Richy'
p1960
sI47131
S'Crouch, Timothy'
p1961
sI47133
S'Geyer, Ben'
p1962
sI30750
S'Gainey, Tommy'
p1963
sI30751
S'Leon, Tyler'
p1964
sI30756
S'Pavan, Andrea'
p1965
sI6197
S'Allen, Michael'
p1966
sI22582
S'Thompson, Kyle'
p1967
sI22584
S'Shacklady, David'
p1968
sI28340
S'Guerrier, Julien'
p1969
sI6208
S'Bartoletti, Louis'
p1970
sI6210
S'Bauman, Doug'
p1971
sI33803
S'Bjerregaard, Lucas'
p1972
sI6214
S'Boros, Guy'
p1973
sI38985
S'Fox, Steven'
p1974
sI6220
S'Brigman, Jaxon'
p1975
sI30798
S'Takeya, Yoshitaka'
p1976
sI39004
S'Love IV, Davis'
p1977
sI22621
S'Curtis, Ben'
p1978
sI22624
S'Kribel, Joel'
p1979
sI30819
S'Riu, Victor'
p1980
sI22628
S'Sutcliffe, Nevin'
p1981
sI30824
S'Choi, Andy G.'
p1982
sI30826
S"O'Leary, John"
p1983
sI6251
S'DiMarco, Chris'
p1984
sI39021
S'Hattori, Richard'
p1985
sI47225
S'Kennedy, Ryan B.'
p1986
sI39040
S'Griffith, Glen'
p1987
sI47234
S'Suppa, Kyle'
p1988
sI47235
S'Okamura, Garrett'
p1989
sI30852
S'Ishikawa, Ryo'
p1990
sI47239
S'Khongwatmai, Phachara'
p1991
sI30860
S'Sonoda, Shunsuke'
p1992
sI29720
S'Gonzales, Andres'
p1993
sI47472
S'Maguire, MJ'
p1994
sI6306
S'Jacklin, Tony'
p1995
sI39075
S'Villarreal, Armando'
p1996
sI39281
S'Wonnell, Clayton'
p1997
sI6315
S'Jordan, Pete'
p1998
sI6320
S'Kelley, Tony'
p1999
sI6322
S'Keymont, Mike'
p2000
sI6323
S'King, Kevin'
p2001
sI30901
S'Burgin, Kelvin'
p2002
sI22711
S'Haverland, Butch'
p2003
sI30907
S'Enoch, Rhys'
p2004
sI6332
S'Lancaster, Neal'
p2005
sI30909
S'Horsey, David'
p2006
sI30911
S'Fleetwood, Tommy'
p2007
sI30913
S'Hanson, Chris'
p2008
sI30916
S'Laskey, Mark'
p2009
sI22732
S'Rowell, Brian'
p2010
sI30925
S'Johnson, Dustin'
p2011
sI6350
S'May, Bob'
p2012
sI30927
S'Todd, Brendon'
p2013
sI30930
S'Harris, Ty'
p2014
sI6357
S'Meade, Charlie'
p2015
sI22742
S'Irwin, Steve'
p2016
sI22746
S'Young, Steven'
p2017
sI30940
S'Berg, Michael'
p2018
sI30941
S'Condello, Chris'
p2019
sI30942
S'Golden, Jeff'
p2020
sI30943
S'Harrell, Mark'
p2021
sI30944
S'Kokrak, Jason'
p2022
sI22753
S'Fauchier, Ryan'
p2023
sI30946
S'Prugh, Alex'
p2024
sI22755
S'Faught, David'
p2025
sI6373
S'Olazabal, Jose Maria'
p2026
sI47336
S'Hopper, Michael'
p2027
sI22764
S'Block, Michael'
p2028
sI30957
S'Kieffer, Maximilian'
p2029
sI30958
S'Saltman, Elliot'
p2030
sI30964
S'Corfield, Lee'
p2031
sI47353
S'Olson, Blake'
p2032
sI39295
S'Gilman, Chris'
p2033
sI6401
S'Schiene, Marty'
p2034
sI30978
S'Aphibarnrat, Kiradech'
p2035
sI22789
S'Cairns, Brian'
p2036
sI22792
S'Hanson, Peter'
p2037
sI6409
S'Sherfy, Brad'
p2038
sI30996
S'Baldwin, Mark'
p2039
sI22806
S'LaBelle II, Doug'
p2040
sI31007
S'Parr, Andrew'
p2041
sI1072
S'Beck, Chip'
p2042
sI31111
S'Coupland, David'
p2043
sI22830
S'Smith, Mark'
p2044
sI47420
S'Knapp, Jake'
p2045
sI22849
S'DeVoll, Casey'
p2046
sI22850
S'Guetz, Brian'
p2047
sI31115
S'Matsumura, Michio'
p2048
sI31044
S'Harmon, Matt'
p2049
sI6475
S'Klein, Jeff'
p2050
sI35213
S'Echavarria, Andres'
p2051
sI39251
S'Ruffels, Ryan'
p2052
sI6488
S'Patton, Chris'
p2053
sI22876
S'Dully, Frank'
p2054
sI22878
S'Marsh, Kevin'
p2055
sI47504
S'Burns, Sam'
p2056
sI6498
S'Peterson, Matt'
p2057
sI47461
S'Kozan, Andrew'
p2058
sI33223
S'Han, Chang-won'
p2059
sI31121
S'Henson, Berry'
p2060
sI22892
S'Gore, Jason'
p2061
sI47470
S'Sorensen, Chad'
p2062
sI22896
S'Havret, Gregory'
p2063
sI6513
S'Allard, Ken'
p2064
sI6514
S'Johnson, Kevin'
p2065
sI6515
S'Micheel, Shaun'
p2066
sI22585
S'Wesselingh, Paul'
p2067
sI6522
S'Els, Ernie'
p2068
sI47483
S'Zalatoris, Will'
p2069
sI6526
S'Henley, Kip'
p2070
sI6527
S'Stricker, Steve'
p2071
sI22913
S'Rollins, John'
p2072
sI31108
S'Mulder, Brock'
p2073
sI31109
S'Lee, Richard T.'
p2074
sI6535
S'Bermel, John'
p2075
sI31113
S'Waring, Paul'
p2076
sI31114
S'Weaver, Drew'
p2077
sI6539
S'Price, Rick'
p2078
sI31120
S'Baker, Mark'
p2079
sI22929
S'Welborn, Ryan'
p2080
sI22932
S'Ray, Conrad'
p2081
sI35225
S'Stone, Brandon'
p2082
sI39324
S'Spaun, J.J.'
p2083
sI39327
S'Silverman, Ben'
p2084
sI39328
S'Shindler, Conrad'
p2085
sI22946
S'Bjornstad, Henrik'
p2086
sI31141
S'Maybin, Gareth'
p2087
sI6566
S'Gomez, Jaime'
p2088
sI6567
S'Singh, Vijay'
p2089
sI47528
S'Golding, Kevin'
p2090
sI47516
S'Beale, James'
p2091
sI6573
S'Jobe, Brandt'
p2092
sI6575
S'Hart, Dudley'
p2093
sI22961
S'Mathis, David'
p2094
sI6581
S'Sutherland, David'
p2095
sI39356
S'Moon, Alex'
p2096
sI31166
S'Amundsen, William'
p2097
sI39359
S'Miller, Brad'
p2098
sI6593
S'Ulrich, Gus'
p2099
sI6595
S'Sutherland, Kevin'
p2100
sI22983
S'Dredge, Bradley'
p2101
sI22986
S'Kjeldsen, Soren'
p2102
sI31138
S'Jamieson, Scott'
p2103
sI47567
S'Polland, Ben'
p2104
sI47568
S'Reed, Curtis'
p2105
sI7585
S'Evenson, Mark'
p2106
sI27043
S'Devlin, Chris'
p2107
sI6613
S'Tolles, Tommy'
p2108
sI31190
S'Williamson, Peter'
p2109
sI39384
S'Kang, Alex'
p2110
sI6617
S'Henninger, Brian'
p2111
sI1103
S'Bolling, Charles'
p2112
sI6621
S'Durant, Joe'
p2113
sI31202
S'McGirt, William'
p2114
sI31203
S'Taylor, Chris'
p2115
sI20952
S'Golding, Philip'
p2116
sI6631
S'McCorkle, Todd'
p2117
sI22951
S'Yano, Azuma'
p2118
sI28413
S'Chestnut, Jimmy'
p2119
sI6643
S'Goydos, Paul'
p2120
sI39412
S'Fischer, Zack'
p2121
sI31225
S'Sjoholm, Joel'
p2122
sI23034
S'Schwarzrock, Brent'
p2123
sI23036
S'Anderson, Chris'
p2124
sI23037
S'Robertson, John'
p2125
sI6655
S'Sisk, Geoffrey'
p2126
sI23042
S'Felton, Kim'
p2127
sI23043
S'Sheehan, Paul'
p2128
sI23048
S'Axley, Eric'
p2129
sI23063
S'Hend, Scott'
p2130
sI35233
S'Messer, Kevin'
p2131
sI47643
S'Lopez, Lance'
p2132
sI47644
S'Harvey, Scott'
p2133
sI1116
S'Bradley, Michael'
p2134
sI39470
S'Jung, Richard'
p2135
sI23089
S'Anderson, Billy'
p2136
sI47666
S'Edmondson, Zachary'
p2137
sI23091
S'Morin, Alan'
p2138
sI39480
S'Vogel, T.J.'
p2139
sI23097
S'Parel, Scott'
p2140
sI39489
S'Massa, Bobby'
p2141
sI23108
S'Kuchar, Matt'
p2142
sI23110
S'Sanday, Jeff'
p2143
sI6729
S'Marrello, Fran'
p2144
sI6731
S'Roth, Jeff'
p2145
sI23122
S'Castillo, Jr., Ron'
p2146
sI23123
S'Nutt, Bret'
p2147
sI23125
S'Elder, Brad'
p2148
sI31319
S'Bertoni, Travis'
p2149
sI6745
S'Hungate, Cary'
p2150
sI31323
S'Woodland, Gary'
p2151
sI6749
S'Vucinich, Roy'
p2152
sI23135
S'Clark, Tim'
p2153
sI23141
S'Neher, Jamie'
p2154
sI47721
S'Howard, Paul'
p2155
sI39531
S'Looper, Ken'
p2156
sI39537
S'Naegel, Chris'
p2157
sI23157
S'Johnson, Richard'
p2158
sI50281
S'Robbins, Kyle'
p2159
sI23162
S'Wakefield, Simon'
p2160
sI23165
S'Kamiyama, Takashi'
p2161
sI47742
S'Schoolcraft, Michael'
p2162
sI23167
S'Chand, Dinesh'
p2163
sI47745
S'Steffen, Zach'
p2164
sI6787
S'Norris, Paul'
p2165
sI35142
S'Saka, David'
p2166
sI23174
S'Narro, Jake'
p2167
sI6791
S'Wurtz, Mark'
p2168
sI23177
S'Staton, Kenneth'
p2169
sI6795
S'Freeman, Jeff'
p2170
sI6799
S'Hogarth, Tim'
p2171
sI6809
S'Burns, Bob'
p2172
sI23204
S'Christian, Gary'
p2173
sI23208
S'Larrazabal, Alejandro'
p2174
sI31401
S'Miller, Zack'
p2175
sI6599
S'Elliott, John'
p2176
sI35234
S'Bardgett, Justin'
p2177
sI47791
S'Howe, T.J.'
p2178
sI23217
S'Maness, Michael'
p2179
sI23218
S'Summerhays, Joseph'
p2180
sI6835
S'Blean, Bob'
p2181
sI31416
S'Fathauer, Derek'
p2182
sI31417
S'Fathauer, Daryl'
p2183
sI31420
S'Lahiri, Anirban'
p2184
sI6847
S'Synkelma, Jay'
p2185
sI23236
S'Streeter, Paul'
p2186
sI31433
S'Garrity, Ryan'
p2187
sI33911
S'Smith, Nate'
p2188
sI31437
S'Rogers, Chris'
p2189
sI47565
S'Myers II, Clay'
p2190
sI23250
S'Parris, Darren'
p2191
sI47828
S'Lim, Thomas'
p2192
sI23255
S'Johnson, Audie'
p2193
sI31449
S'Corr, Jeff'
p2194
sI29819
S'Dresser, Andrew'
p2195
sI23269
S'George, Andrew'
p2196
sI35281
S'Panzeri, Joe'
p2197
sI28455
S'Claxton, Will'
p2198
sI23290
S'Johnson, Andrew'
p2199
sI23305
S'Bensel, Frank'
p2200
sI23307
S'Tambellini, Roger'
p2201
sI31193
S'Renner, Jim'
p2202
sI23320
S'Palmer, Ryan'
p2203
sI23322
S'Wetterich, Brett'
p2204
sI23324
S'Allen, Jason'
p2205
sI23325
S'Taylor, Vaughn'
p2206
sI47906
S'Connelly, Austin'
p2207
sI31525
S'Ormand, Robby'
p2208
sI23338
S'Gossett, David'
p2209
sI23349
S'Warren, Charles'
p2210
sI23351
S'MacKellar, Bryant'
p2211
sI35148
S'Smith, Brandon'
p2212
sI23353
S'Henry, J.J.'
p2213
sI23364
S'Ueda, Yui'
p2214
sI31557
S'Herman, Jim'
p2215
sI23366
S'Gaffney, Brian'
p2216
sI31559
S'Osborn, Garrett'
p2217
sI31560
S'Stuard, Brian'
p2218
sI23373
S'Hoey, Michael'
p2219
sI23376
S'Kamin, Chris'
p2220
sI47953
S'Yates, Greg'
p2221
sI47958
S"O'Dell, Sam"
p2222
sI47959
S'DeChambeau, Bryson'
p2223
sI7001
S'Sneve, J.B.'
p2224
sI23386
S'Roesch, David'
p2225
sI7003
S'Berganio, Jr., David'
p2226
sI31587
S'Alverio, Max'
p2227
sI23397
S'Sutton, Fred'
p2228
sI31590
S'Cabrera, Federico'
p2229
sI47983
S'Ramey, Chad'
p2230
sI23409
S'Driscoll, James'
p2231
sI47986
S'Berberian, Jr., Rich'
p2232
sI47987
S'Hammer, Cole'
p2233
sI47988
S'Hardy, Nick'
p2234
sI36670
S'Fly, Jonathan'
p2235
sI47990
S'Jones, Kyle'
p2236
sI47992
S'Mabrey, Matt'
p2237
sI7033
S'Prowse, Dean'
p2238
sI47994
S'McCoy, Lee'
p2239
sI47995
S'Riley, Davis'
p2240
sI47996
S'Maguire, Jack'
p2241
sI20289
S'Deruntz, Robert'
p2242
sI31627
S'Baek, Todd'
p2243
sI7053
S'Fleming, Tim'
p2244
sI39826
S'Jin, Cheng'
p2245
sI36675
S'Yamamoto, Yoshio'
p2246
sI27118
S'Muto, Toshinori'
p2247
sI31640
S'Boyd, Gary'
p2248
sI48026
S'Vervaecke, Zack'
p2249
sI35311
S'Bigley, Bryan'
p2250
sI23452
S'Colsaerts, Nicolas'
p2251
sI31646
S'Grillo, Emiliano'
p2252
sI32581
S'Dean, Brad'
p2253
sI31652
S'Cocha, Tommy'
p2254
sI7077
S'Marchand, David'
p2255
sI31654
S'Estevez, Joaquin'
p2256
sI23465
S'Gustafsson, Peter'
p2257
sI23466
S'Hultman, Anders'
p2258
sI35314
S'Sullivan, Andy'
p2259
sI23477
S'Hebert, Scott'
p2260
sI31672
S'Nisbet, Daniel'
p2261
sI7097
S'Harding, Tom'
p2262
sI7101
S'Stockton, Jr., Dave'
p2263
sI31678
S'Bekker, Oliver'
p2264
sI31686
S'Ching, Alex'
p2265
sI31688
S'Kim, Kenny'
p2266
sI23497
S'Ridings, Tag'
p2267
sI39882
S'Kim, Alex'
p2268
sI23501
S'Doan, Cameron'
p2269
sI48081
S'Schauffele, Xander'
p2270
sI48083
S'Green, Garland'
p2271
sI48084
S'Bryan, Wesley'
p2272
sI23517
S'Jensen, Clint'
p2273
sI48095
S'Rank, Garrett'
p2274
sI7139
S'Girouard, Marc'
p2275
sI23526
S'Senecal, Kevin'
p2276
sI28497
S'Pare, Troy'
p2277
sI25767
S"O'Hara, Steven"
p2278
sI23532
S'PomArleau, Kevin'
p2279
sI23533
S'Kang, Anthony'
p2280
sI23540
S'Allred, Jason'
p2281
sI23541
S'Crane, Ben'
p2282
sI23542
S'Biershenk, Tommy'
p2283
sI48119
S'Taylor, Ben'
p2284
sI48120
S'Young, Mark'
p2285
sI23548
S'Lunde, Bill'
p2286
sI23552
S'Kuehne, Hank'
p2287
sI48135
S'Hamilton, Blair'
p2288
sI48137
S'Venezio, Daniel'
p2289
sI48138
S'Snyder, Brent'
p2290
sI48139
S'Peters, Austin'
p2291
sI23568
S'Ming, Chris'
p2292
sI39953
S'Seiffert, Chase'
p2293
sI39954
S'Gribble, Cody'
p2294
sI7187
S'Philo, Jr., Ron'
p2295
sI23573
S'Tanner, Todd'
p2296
sI39958
S'Wang, Jeunghun'
p2297
sI23580
S'Hiratsuka, Tetsuji'
p2298
sI33968
S'Olesen, Thorbjorn'
p2299
sI7205
S'Simonsen, Henrik'
p2300
sI39974
S'Ihm, Steven'
p2301
sI39975
S'Kim, Michael'
p2302
sI39976
S'McElyea, Cory'
p2303
sI39977
S'Homa, Max'
p2304
sI39978
S'Hahn, John'
p2305
sI23598
S'Kohut, J.T.'
p2306
sI33971
S'Sanchez, Isaac'
p2307
sI39990
S'Bilodeau, Kyle'
p2308
sI7223
S'Bateman, Brian'
p2309
sI23612
S'McGuigan, Doug'
p2310
sI23613
S'Barcelo, Rich'
p2311
sI23614
S'Beem, Rich'
p2312
sI23616
S'Hietala, Ryan'
p2313
sI7233
S'Boyle, Bob'
p2314
sI7235
S'Morse, John'
p2315
sI23621
S'Sabbatini, Rory'
p2316
sI23623
S'Van Pelt, Bo'
p2317
sI23624
S'Hansen, Soren'
p2318
sI40010
S'Brewbaker, Fielding'
p2319
sI40011
S'Millard, Jason'
p2320
sI23633
S'Schmitt, Phil'
p2321
sI23638
S'de Jonge, Brendon'
p2322
sI40026
S'Berger, Daniel'
p2323
sI40028
S'Shin, Justin'
p2324
sI7267
S'Doyle, Allen'
p2325
sI7271
S'Muntz, Rolf'
p2326
sI23656
S'Caron, Jason'
p2327
sI40055
S'Obremski, Dan'
p2328
sI40056
S'Zylstra, Ryan'
p2329
sI23673
S'Connell, Michael'
p2330
sI40058
S'Blair, Zac'
p2331
sI23688
S'Drummond, Scott'
p2332
sI23692
S'Raitt, Andrew'
p2333
sI7309
S'Bryan, George'
p2334
sI20702
S'Higgins, David'
p2335
sI23699
S'Chia, Danny'
p2336
sI23706
S'Ismail, Rashid'
p2337
sI23712
S'Pilkington, Mark'
p2338
sI40098
S'Fitzpatrick, Matthew'
p2339
sI39451
S'Redfield, Alex'
p2340
sI23718
S'Green, Nathan'
p2341
sI40104
S'Stalter, Joel'
p2342
sI40105
S'Rau, Nathaniel'
p2343
sI23725
S'Jones, Brendan'
p2344
sI40115
S'Svensson, Adam'
p2345
sI10883
S'Rudosky, Micah'
p2346
sI29897
S'Blizard, Rohan'
p2347
sI23739
S'Dillon, Ryan'
p2348
sI7363
S'Bowden, Craig'
p2349
sI29291
S'Chun, Eric'
p2350
sI29901
S'Stewart, Tim'
p2351
sI40148
S'Banks, Eric'
p2352
sI23770
S'Moore, Will'
p2353
sI7393
S'Toulson, Chris'
p2354
sI23778
S'Adamonis, Brad'
p2355
sI36799
S'Jaeger, Stephan'
p2356
sI23783
S'Aguilar, Felipe'
p2357
sI23788
S'Trahan, D.J.'
p2358
sI23790
S'De La Riva, Eduardo'
p2359
sI23795
S'Masuda, Nobuhiro'
p2360
sI23797
S'Rumford, Brett'
p2361
sI23800
S'Molder, Bryce'
p2362
sI29908
S'Pan, Cheng Tsung'
p2363
sI23802
S'Kennedy, Brad'
p2364
sI40188
S'McNabb, David'
p2365
sI40189
S'Muttitt, David'
p2366
sI40190
S'Polzin, Ryan'
p2367
sI26707
S'Elson, Jamie'
p2368
sI50390
S'Cutler, Steve'
p2369
sI23814
S'Molinari, Edoardo'
p2370
sI23821
S'Miyazato, Yusaku'
p2371
sI23824
S'Thomson, Oliver'
p2372
sI7445
S'Schultz, Dirk'
p2373
sI40216
S'Brown, Hunter'
p2374
sI23834
S'Lucquin, Jean-Francois'
p2375
sI23835
S'Ludwell, Nick'
p2376
sI1242
S'Curl, Rod'
p2377
sI47985
S'Becher, Jared'
p2378
sI7457
S'Flesch, Steve'
p2379
sI23844
S'Frayne, Adam'
p2380
sI23848
S'Iredell, Tom'
p2381
sI7465
S'Kase, Hideki'
p2382
sI7467
S'Gilmore, Mike'
p2383
sI23857
S'Cheetham, Neil'
p2384
sI6707
S'Casagranda, Greg'
p2385
sI32054
S'Hicks, Justin B.'
p2386
sI32055
S'Kodama, Mathew'
p2387
sI32056
S'Campbell, Peter'
p2388
sI32058
S'Rodriguez, Jose de Jesus'
p2389
sI23874
S'Schuster, Tino'
p2390
sI8075
S'Kelly, Jerry'
p2391
sI23878
S'Barnes, Andrew'
p2392
sI34017
S'Hack, Jhared'
p2393
sI23885
S'Challen, Charles'
p2394
sI49037
S'Mazzoli, Stefano'
p2395
sI32080
S'Cavanagh, Santiago'
p2396
sI32081
S'Scott, Drew'
p2397
sI31289
S'Alvarado, Benjamin'
p2398
sI15704
S'Holmes, David'
p2399
sI23899
S'Mulhearn, Danny'
p2400
sI23903
S'Gangluff, Stephen'
p2401
sI32101
S'Olive, Patrick'
p2402
sI32102
S'Fowler, Rickie'
p2403
sI32103
S'Stoltz, Drew'
p2404
sI23913
S'Kobayashi, Masanori'
p2405
sI7531
S'Wallace, Harold'
p2406
sI32115
S'Brooks, Daniel'
p2407
sI23926
S'Cantwell, Jr., Tim'
p2408
sI23929
S'Scaletta, Paul'
p2409
sI7547
S'Kanada, Craig'
p2410
sI23933
S'Boyd, Michael'
p2411
sI32139
S'Willett, Danny'
p2412
sI7569
S'Carnevale, Mark'
p2413
sI7571
S'Grisette, Uly'
p2414
sI32150
S'Thompson, Michael'
p2415
sI47989
S'Horsfield, Sam'
p2416
sI32152
S'Hart, Adam'
p2417
sI32154
S'Ellebye, Peter'
p2418
sI23969
S'Storm, Graeme'
p2419
sI23979
S'Gibb, Judd'
p2420
sI23980
S'Winkel, Chris'
p2421
sI1266
S'Dennis, Clark'
p2422
sI23982
S'Bevan, Jon'
p2423
sI23983
S'Donald, Luke'
p2424
sI23984
S'Scotland, Zane'
p2425
sI27765
S'Alvarez, Oscar'
p2426
sI32190
S'Smith, Jesse'
p2427
sI32193
S'Im, Daniel'
p2428
sI32199
S'Borchert, Matthew'
p2429
sI32200
S'Castro, Roberto'
p2430
sI32210
S'Murphy, Trevor'
p2431
sI32215
S'Garcia Pinto, Jordi'
p2432
sI24024
S'Johnson, Zach'
p2433
sI10831
S'Meyer, Greg'
p2434
sI35408
S'Wheeldon, Riley'
p2435
sI24039
S'Meesawat, Prom'
p2436
sI25351
S'Rodgers, Chris'
p2437
sI32249
S'Mitchell, Daniel'
p2438
sI7677
S'Mucha, Bob'
p2439
sI32254
S'Zhang, Xinjun'
p2440
sI6741
S'Fieger, Gene'
p2441
sI32257
S'Dvorak, Doug'
p2442
sI32260
S'Long, David'
p2443
sI32262
S'Brown, Mark'
p2444
sI7687
S'Kealey, Craig'
p2445
sI7689
S'Dell, David'
p2446
sI35415
S'Cornelson, Adam'
p2447
sI24077
S'Millar, Matthew'
p2448
sI24080
S'Strange, Scott'
p2449
sI24083
S'Fraser, Marcus'
p2450
sI7701
S'Baker, Mike'
p2451
sI23129
S'Bain, Ross'
p2452
sI7707
S'Small, Mike'
p2453
sI7721
S'Bates, Pat'
p2454
sI35421
S'Harkins, Brandon'
p2455
sI24115
S'Inoue, Makoto'
p2456
sI32310
S'Moran, Scott'
p2457
sI32312
S'Hampshire, Travis'
p2458
sI24121
S'Matthews, Andy'
p2459
sI24122
S'Rossetti, Todd'
p2460
sI48705
S'Ward, Dalton'
p2461
sI48707
S'Wolfes, Scott'
p2462
sI7749
S'Quigley, Brett'
p2463
sI32329
S'Poole, Stephen'
p2464
sI24138
S'Poulter, Ian'
p2465
sI32331
S'Blakefield, Mark'
p2466
sI32332
S'Larsen, Kevin'
p2467
sI32333
S'Tway, Kevin'
p2468
sI32334
S'Beljan, Charlie'
p2469
sI32335
S'Bergstol, Brian'
p2470
sI32336
S'Silva, Kevin'
p2471
sI32337
S'Bors, Jeffrey'
p2472
sI32338
S'Quagliano, Michael'
p2473
sI7763
S'Dunakey, Doug'
p2474
sI32340
S'Henderson, Jimmy'
p2475
sI32341
S'Chaussard, Garrett'
p2476
sI32342
S'Wilson, Jeff'
p2477
sI32343
S'Cox, Jordan'
p2478
sI24155
S'Hogue, Ryan'
p2479
sI24162
S'Kai, Shintaro'
p2480
sI8123
S'Brehaut, Jeff'
p2481
sI7781
S'Armstrong, Ty'
p2482
sI32366
S'Chappell, Kevin'
p2483
sI32367
S'Campillo, Jorge'
p2484
sI32370
S'Gruss, Andrew'
p2485
sI7795
S'Massey, Richard'
p2486
sI32373
S'Haylock, Thomas'
p2487
sI24184
S'Forsyth, Alastair'
p2488
sI7801
S'Lamb, Brian'
p2489
sI7803
S'McDonald, Bill'
p2490
sI24191
S'Marshall, Andrew'
p2491
sI30812
S'Hebert, Benjamin'
p2492
sI32406
S'Gross, Stephan'
p2493
sI24218
S'Lee, Han'
p2494
sI24219
S'Heffernan, Wes'
p2495
sI7837
S'Nelson, Kirk'
p2496
sI32416
S'Fox, Benjamin'
p2497
sI24227
S'Bolli, Justin'
p2498
sI32421
S'Wattel, Romain'
p2499
sI24236
S'Dougherty, Nick'
p2500
sI24237
S'Griffiths, David'
p2501
sI24238
S'Tateyama, Mitsuhiro'
p2502
sI24245
S'Woods, Jim'
p2503
sI24247
S'Huber, Keith'
p2504
sI7867
S'Austin, Woody'
p2505
sI32448
S'Hahn, James'
p2506
sI32455
S'Knight, Michael'
p2507
sI20429
S'Summerhays, Boyd'
p2508
sI20431
S'Brown, Charlie'
p2509
sI24289
S'Sellers, Kelly'
p2510
sI24290
S'Brigman, D.J.'
p2511
sI35451
S'Pinckney, Scott'
p2512
sI32485
S'Dougherty, Sean'
p2513
sI32493
S'Stal, Gary'
p2514
sI32495
S'Grube, Rob'
p2515
sI32496
S'Rask, Clayton'
p2516
sI25896
S'Benzel, Ryan'
p2517
sI32503
S'Slover, Cody'
p2518
sI32507
S'Carroll, Brian'
p2519
sI32508
S'Proehl, Chad'
p2520
sI32509
S'Appleyard, Peter'
p2521
sI32510
S'Howarth, Jamie'
p2522
sI32511
S'Sherreard, Thomas'
p2523
sI32512
S'Woltman, Dan'
p2524
sI24321
S'Ichihara, Kodai'
p2525
sI7939
S'Olsen, Dan'
p2526
sI7941
S'Grob, Mike'
p2527
sI32526
S'Esler, Josh'
p2528
sI7951
S'Chipokas, Scott'
p2529
sI32528
S'Tyler, Nathan'
p2530
sI36824
S'Peterson, Paul'
p2531
sI32530
S'Johnston, Mike'
p2532
sI32531
S'Landreville, Eric'
p2533
sI32532
S'Villegas, Manuel'
p2534
sI32543
S'Woo, Charlie'
p2535
sI32544
S'Scriven, Jacob'
p2536
sI24356
S'Buha, Jason'
p2537
sI24357
S'Choi, K.J.'
p2538
sI24358
S'Garrigus, Robert'
p2539
sI34097
S'Shinaut, Tyson'
p2540
sI24361
S'Perez, Pat'
p2541
sI23175
S"O'Neal, Timothy"
p2542
sI24364
S'Little, Sam'
p2543
sI24368
S'Yeh, Wei-Tze'
p2544
sI34099
S'English, Harris'
p2545
sI39563
S'Davan, Michael'
p2546
sI24389
S'Remesy, Jean-Francois'
p2547
sI32582
S'Dugas, Eric'
p2548
sI24398
S'Johnson, Rob'
p2549
sI24399
S'Gardiner, Scott'
p2550
sI32594
S'Farr, Oliver'
p2551
sI32616
S'Graham, Wesley'
p2552
sI32617
S'Turner, Jerod'
p2553
sI32618
S'Gibson, Rhein'
p2554
sI24427
S'Downes, Chris'
p2555
sI32620
S'Peck, Cameron'
p2556
sI8045
S'Moss, Perry'
p2557
sI32622
S'Baldwin, Matthew'
p2558
sI24435
S'Doyle, Martin'
p2559
sI32630
S'Smith, Robin'
p2560
sI8057
S'Wilson, Brian'
p2561
sI1343
S'Fiedler, Jon'
p2562
sI8063
S'Grunewald, Kelly'
p2563
sI32640
S'Merritt, Troy'
p2564
sI24449
S'McLachlin, Parker'
p2565
sI8067
S'Gibson, John'
p2566
sI24452
S'Douma, John'
p2567
sI32647
S'Boudreau, Ben'
p2568
sI24457
S'Van Zyl, Jaco'
p2569
sI24459
S'Sterne, Richard'
p2570
sI24460
S'Wellington, Ross'
p2571
sI24461
S'Aiken, Thomas'
p2572
sI8079
S'March, Gary'
p2573
sI8083
S'Combs, Michael'
p2574
sI32662
S'Gligic, Michael'
p2575
sI8089
S'Sheehan, Butch'
p2576
sI32666
S'Baillargeon, Graham'
p2577
sI32667
S'Doherty, Greg'
p2578
sI24486
S'Short, Adam'
p2579
sI32753
S'Huang, Wenyi'
p2580
sI24490
S'McNeill, George'
p2581
sI24491
S'Pearson, Michael'
p2582
sI24494
S'Compton, Erik'
p2583
sI10909
S'Crowder, Rett'
p2584
sI24496
S'Hauer, Brad'
p2585
sI24502
S'Scott, Adam'
p2586
sI24503
S'Klauk, Jeff'
p2587
sI24505
S'Boner, Brett'
p2588
sI32698
S'Gates, Bobby'
p2589
sI24507
S'Bohn, Jason'
p2590
sI32701
S'Burke, Cam'
p2591
sI24511
S'Jaidee, Thongchai'
p2592
sI24512
S'Dyson, Simon'
p2593
sI49091
S'Solomon, David'
p2594
sI34126
S'Vincent, Scott'
p2595
sI24536
S'Summers, Anthony'
p2596
sI24537
S'Archer, Philip'
p2597
sI24540
S'Rogers, Jacob'
p2598
sI32741
S'McCabe, Michael'
p2599
sI35461
S'Hossler, Beau'
p2600
sI24561
S'Corcoran, Rob'
p2601
sI24562
S'Ouellette, Ryan'
p2602
sI32757
S'Kizzire, Patton'
p2603
sI32758
S'Mawjii, Abs'
p2604
sI49147
S'Hallberg, Eric'
p2605
sI8191
S'Broadhurst, Paul'
p2606
s.