(lp0
(I2003
I16
tp1
a(I2003
I6
tp2
a(I2003
I3
tp3
a(I2003
I2
tp4
a(I2003
I5
tp5
a(I2003
I4
tp6
a(I2003
I7
tp7
a(I2003
I1
tp8
a(I2003
I8
tp9
a(I2003
I10
tp10
a(I2003
I9
tp11
a(I2003
I11
tp12
a(I2003
I22
tp13
a(I2003
I12
tp14
a(I2003
I20
tp15
a(I2003
I18
tp16
a(I2003
I480
tp17
a(I2003
I19
tp18
a(I2003
I21
tp19
a(I2003
I23
tp20
a(I2003
I24
tp21
a(I2003
I27
tp22
a(I2003
I25
tp23
a(I2003
I28
tp24
a(I2003
I29
tp25
a(I2003
I37
tp26
a(I2003
I34
tp27
a(I2003
I35
tp28
a(I2003
I472
tp29
a(I2003
I476
tp30
a(I2003
I505
tp31
a(I2003
I32
tp32
a(I2003
I30
tp33
a(I2003
I474
tp34
a(I2003
I41
tp35
a(I2003
I54
tp36
a(I2003
I473
tp37
a(I2003
I47
tp38
a(I2003
I13
tp39
a(I2003
I45
tp40
a(I2003
I475
tp41
a(I2003
I60
tp42
a(I2004
I16
tp43
a(I2004
I6
tp44
a(I2004
I2
tp45
a(I2004
I3
tp46
a(I2004
I5
tp47
a(I2004
I4
tp48
a(I2004
I7
tp49
a(I2004
I1
tp50
a(I2004
I8
tp51
a(I2004
I10
tp52
a(I2004
I9
tp53
a(I2004
I11
tp54
a(I2004
I22
tp55
a(I2004
I12
tp56
a(I2004
I20
tp57
a(I2004
I18
tp58
a(I2004
I480
tp59
a(I2004
I19
tp60
a(I2004
I21
tp61
a(I2004
I25
tp62
a(I2004
I23
tp63
a(I2004
I27
tp64
a(I2004
I24
tp65
a(I2004
I28
tp66
a(I2004
I30
tp67
a(I2004
I37
tp68
a(I2004
I29
tp69
a(I2004
I35
tp70
a(I2004
I472
tp71
a(I2004
I476
tp72
a(I2004
I34
tp73
a(I2004
I505
tp74
a(I2004
I32
tp75
a(I2004
I41
tp76
a(I2004
I474
tp77
a(I2004
I54
tp78
a(I2004
I473
tp79
a(I2004
I47
tp80
a(I2004
I13
tp81
a(I2004
I45
tp82
a(I2004
I475
tp83
a(I2004
I60
tp84
a(I2005
I16
tp85
a(I2005
I6
tp86
a(I2005
I4
tp87
a(I2005
I2
tp88
a(I2005
I3
tp89
a(I2005
I5
tp90
a(I2005
I7
tp91
a(I2005
I1
tp92
a(I2005
I8
tp93
a(I2005
I10
tp94
a(I2005
I9
tp95
a(I2005
I11
tp96
a(I2005
I22
tp97
a(I2005
I12
tp98
a(I2005
I20
tp99
a(I2005
I18
tp100
a(I2005
I480
tp101
a(I2005
I19
tp102
a(I2005
I21
tp103
a(I2005
I25
tp104
a(I2005
I23
tp105
a(I2005
I24
tp106
a(I2005
I27
tp107
a(I2005
I28
tp108
a(I2005
I30
tp109
a(I2005
I37
tp110
a(I2005
I29
tp111
a(I2005
I35
tp112
a(I2005
I56
tp113
a(I2005
I472
tp114
a(I2005
I476
tp115
a(I2005
I34
tp116
a(I2005
I505
tp117
a(I2005
I32
tp118
a(I2005
I474
tp119
a(I2005
I41
tp120
a(I2005
I13
tp121
a(I2005
I473
tp122
a(I2005
I47
tp123
a(I2005
I45
tp124
a(I2005
I475
tp125
a(I2005
I54
tp126
a(I2005
I60
tp127
a(I2006
I16
tp128
a(I2006
I6
tp129
a(I2006
I2
tp130
a(I2006
I4
tp131
a(I2006
I3
tp132
a(I2006
I5
tp133
a(I2006
I7
tp134
a(I2006
I1
tp135
a(I2006
I8
tp136
a(I2006
I10
tp137
a(I2006
I9
tp138
a(I2006
I11
tp139
a(I2006
I22
tp140
a(I2006
I12
tp141
a(I2006
I20
tp142
a(I2006
I18
tp143
a(I2006
I480
tp144
a(I2006
I19
tp145
a(I2006
I21
tp146
a(I2006
I25
tp147
a(I2006
I23
tp148
a(I2006
I27
tp149
a(I2006
I24
tp150
a(I2006
I34
tp151
a(I2006
I28
tp152
a(I2006
I30
tp153
a(I2006
I37
tp154
a(I2006
I29
tp155
a(I2006
I35
tp156
a(I2006
I56
tp157
a(I2006
I472
tp158
a(I2006
I476
tp159
a(I2006
I505
tp160
a(I2006
I32
tp161
a(I2006
I474
tp162
a(I2006
I41
tp163
a(I2006
I54
tp164
a(I2006
I473
tp165
a(I2006
I13
tp166
a(I2006
I47
tp167
a(I2006
I45
tp168
a(I2006
I475
tp169
a(I2006
I60
tp170
a(I2007
I16
tp171
a(I2007
I6
tp172
a(I2007
I2
tp173
a(I2007
I4
tp174
a(I2007
I3
tp175
a(I2007
I5
tp176
a(I2007
I7
tp177
a(I2007
I10
tp178
a(I2007
I475
tp179
a(I2007
I9
tp180
a(I2007
I473
tp181
a(I2007
I20
tp182
a(I2007
I12
tp183
a(I2007
I18
tp184
a(I2007
I19
tp185
a(I2007
I480
tp186
a(I2007
I11
tp187
a(I2007
I22
tp188
a(I2007
I21
tp189
a(I2007
I23
tp190
a(I2007
I25
tp191
a(I2007
I34
tp192
a(I2007
I35
tp193
a(I2007
I471
tp194
a(I2007
I30
tp195
a(I2007
I29
tp196
a(I2007
I32
tp197
a(I2007
I472
tp198
a(I2007
I476
tp199
a(I2007
I13
tp200
a(I2007
I27
tp201
a(I2007
I505
tp202
a(I2007
I28
tp203
a(I2007
I60
tp204
a(I2007
I481
tp205
a(I2007
I54
tp206
a(I2007
I41
tp207
a(I2007
I47
tp208
a(I2007
I464
tp209
a(I2007
I482
tp210
a(I2007
I45
tp211
a(I2008
I16
tp212
a(I2008
I6
tp213
a(I2008
I2
tp214
a(I2008
I4
tp215
a(I2008
I3
tp216
a(I2008
I5
tp217
a(I2008
I7
tp218
a(I2008
I10
tp219
a(I2008
I475
tp220
a(I2008
I9
tp221
a(I2008
I473
tp222
a(I2008
I18
tp223
a(I2008
I20
tp224
a(I2008
I12
tp225
a(I2008
I19
tp226
a(I2008
I480
tp227
a(I2008
I11
tp228
a(I2008
I22
tp229
a(I2008
I21
tp230
a(I2008
I23
tp231
a(I2008
I25
tp232
a(I2008
I34
tp233
a(I2008
I35
tp234
a(I2008
I471
tp235
a(I2008
I30
tp236
a(I2008
I29
tp237
a(I2008
I32
tp238
a(I2008
I472
tp239
a(I2008
I476
tp240
a(I2008
I13
tp241
a(I2008
I27
tp242
a(I2008
I505
tp243
a(I2008
I28
tp244
a(I2008
I54
tp245
a(I2008
I60
tp246
a(I2008
I481
tp247
a(I2008
I41
tp248
a(I2008
I47
tp249
a(I2008
I464
tp250
a(I2008
I482
tp251
a(I2008
I45
tp252
a(I2009
I16
tp253
a(I2009
I6
tp254
a(I2009
I2
tp255
a(I2009
I3
tp256
a(I2009
I4
tp257
a(I2009
I5
tp258
a(I2009
I7
tp259
a(I2009
I10
tp260
a(I2009
I473
tp261
a(I2009
I475
tp262
a(I2009
I9
tp263
a(I2009
I20
tp264
a(I2009
I12
tp265
a(I2009
I18
tp266
a(I2009
I480
tp267
a(I2009
I11
tp268
a(I2009
I41
tp269
a(I2009
I19
tp270
a(I2009
I21
tp271
a(I2009
I23
tp272
a(I2009
I25
tp273
a(I2009
I34
tp274
a(I2009
I471
tp275
a(I2009
I30
tp276
a(I2009
I29
tp277
a(I2009
I32
tp278
a(I2009
I35
tp279
a(I2009
I472
tp280
a(I2009
I476
tp281
a(I2009
I33
tp282
a(I2009
I13
tp283
a(I2009
I27
tp284
a(I2009
I505
tp285
a(I2009
I28
tp286
a(I2009
I60
tp287
a(I2009
I481
tp288
a(I2009
I47
tp289
a(I2009
I464
tp290
a(I2009
I45
tp291
a(I2010
I16
tp292
a(I2010
I6
tp293
a(I2010
I2
tp294
a(I2010
I4
tp295
a(I2010
I7
tp296
a(I2010
I5
tp297
a(I2010
I3
tp298
a(I2010
I10
tp299
a(I2010
I473
tp300
a(I2010
I475
tp301
a(I2010
I9
tp302
a(I2010
I20
tp303
a(I2010
I12
tp304
a(I2010
I18
tp305
a(I2010
I480
tp306
a(I2010
I11
tp307
a(I2010
I41
tp308
a(I2010
I19
tp309
a(I2010
I21
tp310
a(I2010
I23
tp311
a(I2010
I25
tp312
a(I2010
I34
tp313
a(I2010
I471
tp314
a(I2010
I30
tp315
a(I2010
I472
tp316
a(I2010
I32
tp317
a(I2010
I490
tp318
a(I2010
I481
tp319
a(I2010
I476
tp320
a(I2010
I33
tp321
a(I2010
I13
tp322
a(I2010
I27
tp323
a(I2010
I505
tp324
a(I2010
I28
tp325
a(I2010
I60
tp326
a(I2010
I54
tp327
a(I2010
I493
tp328
a(I2010
I464
tp329
a(I2010
I47
tp330
a(I2010
I45
tp331
a(I2011
I16
tp332
a(I2011
I6
tp333
a(I2011
I2
tp334
a(I2011
I4
tp335
a(I2011
I3
tp336
a(I2011
I5
tp337
a(I2011
I7
tp338
a(I2011
I10
tp339
a(I2011
I473
tp340
a(I2011
I475
tp341
a(I2011
I9
tp342
a(I2011
I20
tp343
a(I2011
I41
tp344
a(I2011
I12
tp345
a(I2011
I18
tp346
a(I2011
I480
tp347
a(I2011
I11
tp348
a(I2011
I21
tp349
a(I2011
I19
tp350
a(I2011
I23
tp351
a(I2011
I25
tp352
a(I2011
I34
tp353
a(I2011
I471
tp354
a(I2011
I30
tp355
a(I2011
I54
tp356
a(I2011
I32
tp357
a(I2011
I490
tp358
a(I2011
I472
tp359
a(I2011
I476
tp360
a(I2011
I33
tp361
a(I2011
I13
tp362
a(I2011
I27
tp363
a(I2011
I505
tp364
a(I2011
I28
tp365
a(I2011
I60
tp366
a(I2011
I47
tp367
a(I2011
I464
tp368
a(I2011
I493
tp369
a(I2011
I45
tp370
a(I2012
I16
tp371
a(I2012
I6
tp372
a(I2012
I2
tp373
a(I2012
I4
tp374
a(I2012
I3
tp375
a(I2012
I5
tp376
a(I2012
I7
tp377
a(I2012
I457
tp378
a(I2012
I10
tp379
a(I2012
I473
tp380
a(I2012
I475
tp381
a(I2012
I9
tp382
a(I2012
I20
tp383
a(I2012
I12
tp384
a(I2012
I41
tp385
a(I2012
I18
tp386
a(I2012
I480
tp387
a(I2012
I11
tp388
a(I2012
I19
tp389
a(I2012
I21
tp390
a(I2012
I23
tp391
a(I2012
I25
tp392
a(I2012
I34
tp393
a(I2012
I471
tp394
a(I2012
I490
tp395
a(I2012
I30
tp396
a(I2012
I54
tp397
a(I2012
I32
tp398
a(I2012
I476
tp399
a(I2012
I13
tp400
a(I2012
I27
tp401
a(I2012
I505
tp402
a(I2012
I28
tp403
a(I2012
I60
tp404
a(I2012
I47
tp405
a(I2012
I464
tp406
a(I2012
I493
tp407
a(I2012
I45
tp408
a(I2013
I16
tp409
a(I2013
I6
tp410
a(I2013
I2
tp411
a(I2013
I4
tp412
a(I2013
I3
tp413
a(I2013
I5
tp414
a(I2013
I7
tp415
a(I2013
I10
tp416
a(I2013
I483
tp417
a(I2013
I473
tp418
a(I2013
I475
tp419
a(I2013
I9
tp420
a(I2013
I20
tp421
a(I2013
I41
tp422
a(I2013
I12
tp423
a(I2013
I18
tp424
a(I2013
I480
tp425
a(I2013
I11
tp426
a(I2013
I19
tp427
a(I2013
I21
tp428
a(I2013
I23
tp429
a(I2013
I25
tp430
a(I2013
I34
tp431
a(I2013
I471
tp432
a(I2013
I490
tp433
a(I2013
I30
tp434
a(I2013
I54
tp435
a(I2013
I32
tp436
a(I2013
I476
tp437
a(I2013
I13
tp438
a(I2013
I27
tp439
a(I2013
I505
tp440
a(I2013
I28
tp441
a(I2013
I60
tp442
a(I2014
I464
tp443
a(I2014
I47
tp444
a(I2014
I493
tp445
a(I2014
I457
tp446
a(I2014
I16
tp447
a(I2014
I6
tp448
a(I2014
I2
tp449
a(I2014
I4
tp450
a(I2014
I3
tp451
a(I2014
I5
tp452
a(I2014
I7
tp453
a(I2014
I10
tp454
a(I2014
I483
tp455
a(I2014
I473
tp456
a(I2014
I475
tp457
a(I2014
I9
tp458
a(I2014
I41
tp459
a(I2014
I20
tp460
a(I2014
I12
tp461
a(I2014
I18
tp462
a(I2014
I480
tp463
a(I2014
I11
tp464
a(I2014
I19
tp465
a(I2014
I21
tp466
a(I2014
I23
tp467
a(I2014
I25
tp468
a(I2014
I34
tp469
a(I2014
I471
tp470
a(I2014
I490
tp471
a(I2014
I30
tp472
a(I2014
I32
tp473
a(I2014
I476
tp474
a(I2014
I33
tp475
a(I2014
I13
tp476
a(I2014
I27
tp477
a(I2014
I505
tp478
a(I2014
I28
tp479
a(I2014
I60
tp480
a(I2015
I464
tp481
a(I2015
I47
tp482
a(I2015
I493
tp483
a(I2015
I54
tp484
a(I2015
I457
tp485
a(I2015
I16
tp486
a(I2015
I6
tp487
a(I2015
I2
tp488
a(I2015
I3
tp489
a(I2015
I4
tp490
a(I2015
I5
tp491
a(I2015
I7
tp492
a(I2015
I10
tp493
a(I2015
I483
tp494
a(I2015
I473
tp495
a(I2015
I475
tp496
a(I2015
I9
tp497
a(I2015
I41
tp498
a(I2015
I20
tp499
a(I2015
I12
tp500
a(I2015
I18
tp501
a(I2015
I470
tp502
a(I2015
I11
tp503
a(I2015
I480
tp504
a(I2015
I21
tp505
a(I2015
I19
tp506
a(I2015
I23
tp507
a(I2015
I25
tp508
a(I2015
I34
tp509
a(I2015
I490
tp510
a(I2015
I30
tp511
a(I2015
I518
tp512
a(I2015
I32
tp513
a(I2015
I471
tp514
a(I2015
I476
tp515
a(I2015
I33
tp516
a(I2015
I13
tp517
a(I2015
I27
tp518
a(I2015
I505
tp519
a(I2015
I28
tp520
a(I2015
I60
tp521
a(I2016
I464
tp522
a(I2016
I47
tp523
a(I2016
I54
tp524
a(I2016
I457
tp525
a(I2016
I493
tp526
a(I2016
I16
tp527
a(I2016
I6
tp528
a(I2016
I2
tp529
a(I2016
I4
tp530
a(I2016
I3
tp531
a(I2016
I5
tp532
a(I2016
I7
tp533
a(I2016
I10
tp534
a(I2016
I473
tp535
a(I2016
I475
tp536
a(I2016
I9
tp537
a(I2016
I483
tp538
a(I2016
I470
tp539
a(I2016
I20
tp540
a(I2016
I12
tp541
a(I2016
I41
tp542
a(I2016
I18
tp543
a(I2016
I480
tp544
a(I2016
I11
tp545
a(I2016
I19
tp546
a(I2016
I21
tp547
a(I2016
I23
tp548
a(I2016
I25
tp549
a(I2016
I471
tp550
a(I2016
I476
tp551
a(I2016
I518
tp552
a(I2016
I32
tp553
a(I2016
I33
tp554
a(I2016
I34
tp555
a(I2016
I30
tp556
a(I2016
I13
tp557
a(I2016
I27
tp558
a(I2016
I505
tp559
a(I2016
I28
tp560
a(I2016
I60
tp561
a.